
out/f4e750bb-1437-4fbf-8785-8d3580c34994.elf:     file format elf64-littleaarch64
out/f4e750bb-1437-4fbf-8785-8d3580c34994.elf
architecture: aarch64, flags 0x00000150:
HAS_SYMS, DYNAMIC, D_PAGED
start address 0x0000000000000458

Program Header:
    LOAD off    0x0000000000001000 vaddr 0x0000000000000000 paddr 0x0000000000000000 align 2**12
         filesz 0x000000000000cd08 memsz 0x000000000000cd08 flags r-x
    LOAD off    0x000000000000e000 vaddr 0x000000000000d000 paddr 0x000000000000d000 align 2**12
         filesz 0x0000000000000444 memsz 0x000000000000b4c0 flags rw-
 DYNAMIC off    0x000000000000e000 vaddr 0x000000000000d000 paddr 0x000000000000d000 align 2**3
         filesz 0x0000000000000110 memsz 0x0000000000000110 flags rw-
   STACK off    0x0000000000000000 vaddr 0x0000000000000000 paddr 0x0000000000000000 align 2**4
         filesz 0x0000000000000000 memsz 0x0000000000000000 flags rw-

Dynamic Section:
  HASH                 0x000000000000cad8
  GNU_HASH             0x000000000000ca38
  STRTAB               0x000000000000cac0
  SYMTAB               0x000000000000ca60
  STRSZ                0x0000000000000012
  SYMENT               0x0000000000000018
  DEBUG                0x0000000000000000
  RELA                 0x000000000000caf8
  RELASZ               0x0000000000000348
  RELAENT              0x0000000000000018
  FLAGS_1              0x0000000008000000
  RELACOUNT            0x0000000000000016
private flags = 0:

Sections:
Idx Name          Size      VMA               LMA               File off  Algn
  0 .ta_head      00000020  0000000000000000  0000000000000000  00001000  2**3
                  CONTENTS, ALLOC, LOAD, READONLY, DATA
  1 .text         000099f0  0000000000000020  0000000000000020  00001020  2**3
                  CONTENTS, ALLOC, LOAD, READONLY, CODE
  2 .eh_frame     00001fe0  0000000000009a10  0000000000009a10  0000aa10  2**3
                  CONTENTS, ALLOC, LOAD, READONLY, DATA
  3 .rodata       00001041  000000000000b9f0  000000000000b9f0  0000c9f0  2**3
                  CONTENTS, ALLOC, LOAD, READONLY, DATA
  4 .gnu.hash     00000024  000000000000ca38  000000000000ca38  0000da38  2**3
                  CONTENTS, ALLOC, LOAD, READONLY, DATA
  5 .dynsym       00000060  000000000000ca60  000000000000ca60  0000da60  2**3
                  CONTENTS, ALLOC, LOAD, READONLY, DATA
  6 .dynstr       00000012  000000000000cac0  000000000000cac0  0000dac0  2**0
                  CONTENTS, ALLOC, LOAD, READONLY, DATA
  7 .hash         0000001c  000000000000cad8  000000000000cad8  0000dad8  2**3
                  CONTENTS, ALLOC, LOAD, READONLY, DATA
  8 .rela.dyn     00000210  000000000000caf8  000000000000caf8  0000daf8  2**3
                  CONTENTS, ALLOC, LOAD, READONLY, DATA
  9 .dynamic      00000110  000000000000d000  000000000000d000  0000e000  2**3
                  CONTENTS, ALLOC, LOAD, DATA
 10 .got          00000088  000000000000d110  000000000000d110  0000e110  2**3
                  CONTENTS, ALLOC, LOAD, DATA
 11 .rela.got     00000138  000000000000d198  000000000000d198  0000e198  2**3
                  CONTENTS, ALLOC, LOAD, READONLY, DATA
 12 .data         00000174  000000000000d2d0  000000000000d2d0  0000e2d0  2**3
                  CONTENTS, ALLOC, LOAD, DATA
 13 .bss          0000b078  000000000000d448  000000000000d448  0000e444  2**3
                  ALLOC
 14 .debug_info   00013ba1  0000000000000000  0000000000000000  0000e444  2**0
                  CONTENTS, READONLY, DEBUGGING
 15 .debug_abbrev 00003118  0000000000000000  0000000000000000  00021fe5  2**0
                  CONTENTS, READONLY, DEBUGGING
 16 .debug_loc    0001d7ce  0000000000000000  0000000000000000  000250fd  2**0
                  CONTENTS, READONLY, DEBUGGING
 17 .debug_aranges 00000800  0000000000000000  0000000000000000  000428d0  2**4
                  CONTENTS, READONLY, DEBUGGING
 18 .debug_ranges 000018f0  0000000000000000  0000000000000000  000430d0  2**4
                  CONTENTS, READONLY, DEBUGGING
 19 .debug_macro  00010d09  0000000000000000  0000000000000000  000449c0  2**0
                  CONTENTS, READONLY, DEBUGGING
 20 .debug_line   0000a971  0000000000000000  0000000000000000  000556c9  2**0
                  CONTENTS, READONLY, DEBUGGING
 21 .debug_str    00012bce  0000000000000000  0000000000000000  0006003a  2**0
                  CONTENTS, READONLY, DEBUGGING
 22 .comment      00000055  0000000000000000  0000000000000000  00072c08  2**0
                  CONTENTS, READONLY
SYMBOL TABLE:
0000000000000000 l    d  .ta_head	0000000000000000 .ta_head
0000000000000020 l    d  .text	0000000000000000 .text
0000000000009a10 l    d  .eh_frame	0000000000000000 .eh_frame
000000000000b9f0 l    d  .rodata	0000000000000000 .rodata
000000000000ca38 l    d  .gnu.hash	0000000000000000 .gnu.hash
000000000000ca60 l    d  .dynsym	0000000000000000 .dynsym
000000000000cac0 l    d  .dynstr	0000000000000000 .dynstr
000000000000cad8 l    d  .hash	0000000000000000 .hash
000000000000caf8 l    d  .rela.dyn	0000000000000000 .rela.dyn
000000000000d000 l    d  .dynamic	0000000000000000 .dynamic
000000000000d110 l    d  .got	0000000000000000 .got
000000000000d198 l    d  .rela.got	0000000000000000 .rela.got
000000000000d2d0 l    d  .data	0000000000000000 .data
000000000000d448 l    d  .bss	0000000000000000 .bss
0000000000000000 l    d  .debug_info	0000000000000000 .debug_info
0000000000000000 l    d  .debug_abbrev	0000000000000000 .debug_abbrev
0000000000000000 l    d  .debug_loc	0000000000000000 .debug_loc
0000000000000000 l    d  .debug_aranges	0000000000000000 .debug_aranges
0000000000000000 l    d  .debug_ranges	0000000000000000 .debug_ranges
0000000000000000 l    d  .debug_macro	0000000000000000 .debug_macro
0000000000000000 l    d  .debug_line	0000000000000000 .debug_line
0000000000000000 l    d  .debug_str	0000000000000000 .debug_str
0000000000000000 l    d  .comment	0000000000000000 .comment
0000000000000000 l    df *ABS*	0000000000000000 user_ta_header.c
000000000000b9f8 l     O .rodata	0000000000000004 __compound_literal.5
000000000000b9fc l     O .rodata	0000000000000004 __compound_literal.4
000000000000ba00 l     O .rodata	0000000000000004 __compound_literal.3
000000000000ba04 l     O .rodata	0000000000000001 __compound_literal.2
000000000000ba05 l     O .rodata	0000000000000001 __compound_literal.1
000000000000ba06 l     O .rodata	0000000000000001 __compound_literal.0
0000000000000000 l    df *ABS*	0000000000000000 memcpy.c
0000000000000000 l    df *ABS*	0000000000000000 secure_storage_ta.c
000000000000bd20 l     O .rodata	0000000000000012 __func__.4091
000000000000bd32 l     O .rodata	0000000000000010 __func__.4105
000000000000bd42 l     O .rodata	000000000000000e __func__.4078
000000000000bd50 l     O .rodata	000000000000001b __func__.4131
0000000000000000 l    df *ABS*	0000000000000000 trace.c
000000000000bf6e l     O .rodata	0000000000000005 lvl_strs.3494
0000000000000000 l    df *ABS*	0000000000000000 snprintk.c
000000000000bf8d l     O .rodata	0000000000000011 hexdigits
000000000000bf9e l     O .rodata	0000000000000011 HEXDIGITS
0000000000000000 l    df *ABS*	0000000000000000 memchr.c
0000000000000000 l    df *ABS*	0000000000000000 strlen.c
0000000000000000 l    df *ABS*	0000000000000000 trace_ext.c
0000000000000000 l    df *ABS*	0000000000000000 tee_api.c
00000000000015bc l     F .text	00000000000000b8 update_out_param
0000000000001734 l     F .text	00000000000001d0 copy_param.constprop.1
000000000000d448 l     O .bss	0000000000000008 tee_api_instance_data
000000000000ba23 l     O .rodata	000000000000000b __func__.4733
0000000000000000 l    df *ABS*	0000000000000000 tee_api_objects.c
0000000000000000 l    df *ABS*	0000000000000000 tee_api_panic.c
0000000000000000 l    df *ABS*	0000000000000000 tee_system_pta.c
00000000000029c4 l     F .text	0000000000000088 invoke_system_pta
000000000000ba30 l     O .rodata	0000000000000010 uuid.4142
000000000000ba40 l     O .rodata	000000000000000a __func__.4162
000000000000d450 l     O .bss	0000000000000008 sess.4141
0000000000000000 l    df *ABS*	0000000000000000 utee_syscalls_a64.o
0000000000000000 l    df *ABS*	0000000000000000 user_ta_entry.c
0000000000002df8 l     F .text	0000000000000028 ta_header_get_session
0000000000002e20 l     F .text	0000000000000078 to_utee_params
0000000000002e98 l     F .text	0000000000000068 from_utee_params
0000000000002f00 l     F .text	0000000000000014 ta_header_save_params.part.0
000000000000306c l     F .text	0000000000000098 ta_header_remove_session
00000000000184b8 l     O .bss	0000000000000001 init_done
000000000000d3a8 l     O .data	0000000000000010 ta_sessions
0000000000000000 l    df *ABS*	0000000000000000 tee_api_arith_mpi.c
0000000000003304 l     F .text	0000000000000030 api_panic
0000000000003334 l     F .text	0000000000000030 mpi_panic
0000000000003364 l     F .text	0000000000000098 get_mpi
00000000000033fc l     F .text	0000000000000064 copy_mpi_to_bigint
0000000000003460 l     F .text	0000000000000118 bigint_binary
0000000000003578 l     F .text	0000000000000020 mpi_is_odd
0000000000003598 l     F .text	0000000000000028 rng_read
00000000000035c0 l     F .text	000000000000054c mpi_egcd
000000000000d4b0 l     O .bss	0000000000003000 data.4724
0000000000003ea8 l     F .text	0000000000000194 bigint_binary_mod
000000000000c022 l     O .rodata	0000000000000008 __func__.4758
000000000000c02a l     O .rodata	000000000000000e __func__.4855
000000000000c038 l     O .rodata	0000000000000009 __func__.5001
000000000000c041 l     O .rodata	0000000000000012 __func__.4725
000000000000c053 l     O .rodata	000000000000000f __func__.4764
000000000000c062 l     O .rodata	000000000000001f __func__.4782
000000000000c081 l     O .rodata	0000000000000019 __func__.4789
000000000000c09a l     O .rodata	0000000000000012 __func__.4867
000000000000c0ac l     O .rodata	0000000000000015 __func__.4820
000000000000c0c1 l     O .rodata	000000000000000e __func__.4895
000000000000c0cf l     O .rodata	000000000000000e __func__.4924
000000000000c0dd l     O .rodata	000000000000000e __func__.4932
000000000000c0eb l     O .rodata	0000000000000011 __func__.4961
000000000000c0fc l     O .rodata	0000000000000018 __func__.4978
000000000000c114 l     O .rodata	000000000000001d __func__.5058
000000000000c131 l     O .rodata	0000000000000019 __func__.5111
000000000000c14a l     O .rodata	0000000000000015 __func__.5126
0000000000000000 l    df *ABS*	0000000000000000 bignum.c
0000000000004c48 l     F .text	0000000000000064 mpi_get_digit
0000000000004cac l     F .text	0000000000000060 mpi_sub_hlp
0000000000004d0c l     F .text	00000000000004d4 mpi_mul_hlp
00000000000051e0 l     F .text	0000000000000074 mpi_bigendian_to_host.part.0
00000000000070a0 l     F .text	0000000000000098 mpi_check_small_factors
0000000000007bd8 l     F .text	0000000000000280 mpi_miller_rabin
000000000000ba5c l     O .rodata	00000000000002a0 small_prime
000000000000bcfc l     O .rodata	0000000000000024 gcd_pairs
0000000000000000 l    df *ABS*	0000000000000000 platform_util.c
000000000000d3b8 l     O .data	0000000000000008 memset_func
0000000000000000 l    df *ABS*	0000000000000000 bget_malloc.c
0000000000008a4c l     F .text	0000000000000044 raw_malloc_return_hook.constprop.21
000000000000c673 l     O .rodata	0000000000000005 __func__.3641
000000000000c678 l     O .rodata	0000000000000006 __func__.3656
000000000000c67e l     O .rodata	0000000000000005 __func__.3674
000000000000c683 l     O .rodata	0000000000000006 __func__.3665
000000000000c689 l     O .rodata	0000000000000006 __func__.3683
000000000000c68f l     O .rodata	0000000000000007 __func__.3693
000000000000c696 l     O .rodata	0000000000000014 __func__.3857
000000000000c6aa l     O .rodata	000000000000000e __func__.3808
000000000000c6b8 l     O .rodata	0000000000000013 __func__.3755
000000000000d3c0 l     O .data	0000000000000080 malloc_ctx
0000000000000000 l    df *ABS*	0000000000000000 snprintf.c
0000000000000000 l    df *ABS*	0000000000000000 memmove.c
0000000000000000 l    df *ABS*	0000000000000000 memset.c
0000000000000000 l    df *ABS*	0000000000000000 mempool.c
000000000000c96f l     O .rodata	0000000000000013 __func__.3549
000000000000c982 l     O .rodata	000000000000000e __func__.3558
0000000000000000 l    df *ABS*	0000000000000000 consttime_memcmp.c
0000000000000000 l    df *ABS*	0000000000000000 assert.c
0000000000000000 l    df *ABS*	0000000000000000 
000000000000d000 l     O *ABS*	0000000000000000 _DYNAMIC
000000000000d128 l     O *ABS*	0000000000000000 _GLOBAL_OFFSET_TABLE_
0000000000001580 g     F .text	000000000000003c putchar
00000000000020f8 g     F .text	00000000000000c0 TEE_PopulateTransientObject
0000000000004a90 g     F .text	0000000000000004 TEE_BigIntConvertToFMM
00000000000045ec g     F .text	000000000000000c TEE_BigIntSquareMod
000000000000403c g     F .text	000000000000016c TEE_BigIntShiftRight
00000000000052f8 g     F .text	00000000000000f8 mbedtls_mpi_grow
0000000000001cb4 g     F .text	0000000000000008 TEE_Realloc
0000000000001478 g     F .text	00000000000000c8 printf
00000000000021b8 g     F .text	0000000000000054 TEE_InitRefAttribute
0000000000002b64 g     F .text	000000000000000c _utee_log
0000000000001904 g     F .text	0000000000000104 TEE_InvokeTACommand
0000000000005264 g     F .text	0000000000000028 mbedtls_mpi_init_mempool
0000000000002ce4 g     F .text	000000000000000c _utee_cryp_random_number_generate
0000000000005bd8 g     F .text	00000000000000c4 mbedtls_mpi_write_binary
0000000000001338 g     F .text	0000000000000054 vsnprintk
0000000000006444 g     F .text	0000000000000040 mbedtls_mpi_sub_int
0000000000009728 g     F .text	000000000000005c memmove
000000000000965c g     F .text	0000000000000078 snprintf
0000000000003e60 g     F .text	0000000000000048 TEE_BigIntCmpS32
000000000000220c g     F .text	0000000000000050 TEE_InitValueAttribute
00000000000053f0 g     F .text	0000000000000120 mbedtls_mpi_shrink
0000000000004234 g     F .text	000000000000000c TEE_BigIntAdd
0000000000002c84 g     F .text	000000000000000c _utee_cryp_obj_restrict_usage
000000000000ba08 g     O .rodata	0000000000000008 ta_heap_size
00000000000020a4 g     F .text	0000000000000054 TEE_ResetTransientObject
0000000000002d2c g     F .text	000000000000000c _utee_asymm_operate
0000000000006608 g     F .text	00000000000001e4 mbedtls_mpi_read_string
000000000000424c g     F .text	00000000000000b0 TEE_BigIntNeg
0000000000002d80 g     F .text	000000000000000c _utee_storage_free_enum
0000000000000020 g       .text	0000000000000000 __text_start
00000000000026e0 g     F .text	0000000000000050 TEE_StartPersistentObjectEnumerator
0000000000005d9c g     F .text	00000000000000c8 mbedtls_mpi_shift_r
00000000000095f0 g     F .text	000000000000006c malloc_buffer_overlaps_heap
0000000000002c30 g     F .text	000000000000000c _utee_hash_init
00000000000045d4 g     F .text	000000000000000c TEE_BigIntSubMod
0000000000008348 g     F .text	000000000000030c mbedtls_mpi_gen_prime
0000000000005830 g     F .text	000000000000002c mbedtls_mpi_get_bit
0000000000005a58 g     F .text	00000000000000c8 mbedtls_mpi_read_binary
0000000000000690 g     F .text	0000000000000070 trace_printf
0000000000007174 g     F .text	0000000000000134 mbedtls_mpi_montmul
0000000000002dec g     F .text	000000000000000c _utee_cache_operation
0000000000000020 g     F .text	00000000000000ec memcpy
0000000000004a94 g     F .text	000000000000009c TEE_BigIntConvertFromFMM
00000000000029bc g     F .text	0000000000000008 TEE_Panic
0000000000001540 g     F .text	0000000000000040 puts
0000000000004b30 g     F .text	0000000000000118 TEE_BigIntComputeFMM
00000000000091e8 g     F .text	0000000000000038 malloc_get_stats
0000000000001c30 g     F .text	0000000000000028 TEE_GetREETime
0000000000002630 g     F .text	0000000000000060 TEE_AllocatePersistentObjectEnumerator
000000000000d2d0 g     O .data	00000000000000d8 ta_props
0000000000009220 g     F .text	0000000000000050 malloc
000000000000235c g     F .text	0000000000000088 TEE_GenerateKey
00000000000096d4 g     F .text	0000000000000054 vsnprintf
000000000000d440 g     O .data	0000000000000004 trace_level
0000000000003df8 g     F .text	0000000000000068 TEE_BigIntCmp
000000000000b9f0 g     O .rodata	0000000000000008 ta_num_props
0000000000008f98 g     F .text	00000000000000cc bgetr
0000000000002d44 g     F .text	000000000000000c _utee_storage_obj_open
0000000000009904 g     F .text	0000000000000044 mempool_free
0000000000002c3c g     F .text	000000000000000c _utee_hash_update
0000000000003c58 g     F .text	0000000000000094 TEE_BigIntConvertToOctetString
000000000000593c g     F .text	000000000000005c mbedtls_mpi_bitlen
00000000000041a8 g     F .text	000000000000004c TEE_BigIntGetBit
000000000000ba10 g     O .rodata	0000000000000003 trace_ext_prefix
0000000000002da4 g     F .text	000000000000000c _utee_storage_next_enum
0000000000008c50 g     F .text	000000000000008c bgetz
0000000000001af0 g     F .text	000000000000000c TEE_GetInstanceData
0000000000001b3c g     F .text	000000000000003c TEE_Wait
0000000000006484 g     F .text	0000000000000150 mbedtls_mpi_mul_mpi
0000000000001cc8 g     F .text	0000000000000008 TEE_CacheFlush
00000000000004a0 g     F .text	00000000000001f0 trace_vprintf
0000000000000114 g     F .text	0000000000000004 TA_DestroyEntryPoint
0000000000005254 g     F .text	0000000000000010 mbedtls_mpi_init
0000000000002d5c g     F .text	000000000000000c _utee_storage_obj_del
00000000000058e8 g     F .text	0000000000000054 mbedtls_mpi_lsb
00000000000099b8 g     F .text	0000000000000044 _assert_log
0000000000002c18 g     F .text	000000000000000c _utee_cryp_state_copy
0000000000004a88 g     F .text	0000000000000008 TEE_BigIntFMMContextSizeInU32
0000000000002ac0 g     F .text	000000000000008c tee_unmap
00000000000025bc g     F .text	0000000000000074 TEE_RenamePersistentObject
0000000000003b0c g     F .text	0000000000000050 _TEE_MathAPI_Init
00000000000062f0 g     F .text	0000000000000088 mbedtls_mpi_add_mpi
00000000000104b8 g     O .bss	0000000000008000 ta_heap
00000000000045f8 g     F .text	000000000000011c TEE_BigIntInvMod
0000000000002f14 g     F .text	00000000000000b4 __utee_call_elf_init_fn
0000000000000120 g     F .text	0000000000000004 TA_CloseSessionEntryPoint
0000000000002ba0 g     F .text	000000000000000c _utee_close_ta_session
00000000000023e4 g     F .text	00000000000000ac TEE_OpenPersistentObject
0000000000006378 g     F .text	000000000000008c mbedtls_mpi_sub_mpi
0000000000009948 g     F .text	0000000000000070 consttime_memcmp
0000000000002b58 g     F .text	000000000000000c _utee_return
0000000000002b70 g     F .text	000000000000000c __utee_panic
0000000000000124 g     F .text	0000000000000334 TA_InvokeCommandEntryPoint
0000000000002fc8 g     F .text	00000000000000a4 __utee_call_elf_fini_fn
000000000000933c g     F .text	0000000000000018 free_wipe
0000000000009808 g     F .text	00000000000000ac mempool_alloc
0000000000002b4c g     F .text	000000000000000c _utee_panic
00000000000098b4 g     F .text	0000000000000050 mempool_calloc
0000000000002de0 g     F .text	000000000000000c _utee_cryp_obj_generate_key
0000000000002dc8 g     F .text	000000000000000c _utee_storage_obj_trunc
0000000000002308 g     F .text	0000000000000054 TEE_CopyObjectAttributes
0000000000002bd0 g     F .text	000000000000000c _utee_unmask_cancellation
0000000000009270 g     F .text	0000000000000064 calloc
000000000000d458 g     O .bss	0000000000000010 __init_fini_info
0000000000001c58 g     F .text	000000000000005c TEE_Malloc
0000000000001720 g     F .text	0000000000000014 TEE_CheckMemoryAccessRights
0000000000002b7c g     F .text	000000000000000c _utee_get_property
00000000000057c8 g     F .text	0000000000000068 mbedtls_mpi_lset
00000000000027b0 g     F .text	000000000000006c TEE_ReadObjectData
0000000000001e44 g     F .text	00000000000000ac TEE_GetObjectBufferAttribute
0000000000000118 g     F .text	0000000000000008 TA_OpenSessionEntryPoint
00000000000184c0 g       .bss	0000000000000000 __ftrace_buf_end
000000000000d468 g     O .bss	0000000000000004 ta_param_types
0000000000006cd0 g     F .text	0000000000000040 mbedtls_mpi_div_int
0000000000001cd8 g     F .text	0000000000000050 __utee_from_attr
0000000000008290 g     F .text	00000000000000a8 mbedtls_mpi_is_prime_ext
0000000000004a20 g     F .text	0000000000000050 TEE_BigIntIsProbablePrime
00000000000065d4 g     F .text	0000000000000034 mbedtls_mpi_mul_int
0000000000002548 g     F .text	0000000000000048 TEE_CloseAndDeletePersistentObject1
00000000000072e8 g     F .text	000000000000068c mbedtls_mpi_exp_mod
0000000000005624 g     F .text	00000000000000c0 mbedtls_mpi_safe_cond_assign
0000000000005fd8 g     F .text	00000000000000d8 mbedtls_mpi_lt_mpi_ct
0000000000003b5c g     F .text	0000000000000070 TEE_BigIntInit
0000000000001afc g     F .text	0000000000000008 TEE_MemMove
0000000000008a30 g     F .text	000000000000001c mbedtls_platform_zeroize
0000000000003bcc g     F .text	000000000000008c TEE_BigIntConvertFromOctetString
0000000000002d20 g     F .text	000000000000000c _utee_authenc_dec_final
0000000000005e64 g     F .text	000000000000009c mbedtls_mpi_cmp_abs
0000000000002db0 g     F .text	000000000000000c _utee_storage_obj_read
0000000000001400 g     F .text	000000000000002c memchr
00000000000016c8 g     F .text	000000000000002c TEE_UnmaskCancellation
0000000000001d28 g     F .text	0000000000000048 TEE_GetObjectInfo
0000000000008654 g     F .text	00000000000003dc mbedtls_mpi_self_test
0000000000002dd4 g     F .text	000000000000000c _utee_storage_obj_seek
0000000000002050 g     F .text	0000000000000054 TEE_FreeTransientObject
0000000000002bc4 g     F .text	000000000000000c _utee_check_access_rights
00000000000060b0 g     F .text	0000000000000040 mbedtls_mpi_cmp_int
0000000000002d8c g     F .text	000000000000000c _utee_storage_reset_enum
0000000000002d08 g     F .text	000000000000000c _utee_authenc_update_payload
0000000000004564 g     F .text	0000000000000064 TEE_BigIntMod
0000000000006dc4 g     F .text	00000000000000a0 mbedtls_mpi_mod_int
00000000000059b4 g     F .text	00000000000000a4 mbedtls_mpi_read_binary_le
00000000000043ec g     F .text	0000000000000178 TEE_BigIntDiv
0000000000002c9c g     F .text	000000000000000c _utee_cryp_obj_alloc
00000000000184c0 g       .bss	0000000000000000 __ftrace_buf_start
0000000000005510 g     F .text	00000000000000b4 mbedtls_mpi_copy
00000000000091d0 g     F .text	0000000000000018 malloc_reset_stats
0000000000002c00 g     F .text	000000000000000c _utee_set_ta_time
0000000000002bac g     F .text	000000000000000c _utee_invoke_ta_command
0000000000001db0 g     F .text	0000000000000044 TEE_RestrictObjectUsage1
00000000000092d4 g     F .text	0000000000000050 realloc
00000000000055c4 g     F .text	0000000000000060 mbedtls_mpi_swap
00000000000097a0 g     F .text	0000000000000068 mempool_alloc_pool
00000000000042fc g     F .text	00000000000000e8 TEE_BigIntMul
0000000000005c9c g     F .text	0000000000000100 mbedtls_mpi_shift_l
0000000000005f00 g     F .text	00000000000000d8 mbedtls_mpi_cmp_mpi
0000000000001b0c g     F .text	0000000000000008 TEE_MemFill
0000000000009354 g     F .text	000000000000011c malloc_add_pool
0000000000000490 g     F .text	0000000000000010 trace_get_level
00000000000060f0 g     F .text	000000000000012c mbedtls_mpi_add_abs
0000000000001df4 g     F .text	0000000000000050 TEE_RestrictObjectUsage
0000000000004a78 g     F .text	0000000000000010 TEE_BigIntFMMSizeInU32
0000000000004a70 g     F .text	0000000000000004 TEE_BigIntInitFMM
0000000000001fc4 g     F .text	0000000000000028 TEE_CloseObject
0000000000002c54 g     F .text	000000000000000c _utee_cipher_init
0000000000003104 g     F .text	0000000000000200 __utee_entry
0000000000009a10 g       .text	0000000000000000 __text_end
0000000000004714 g     F .text	00000000000000d4 TEE_BigIntRelativePrime
0000000000006d10 g     F .text	00000000000000b4 mbedtls_mpi_mod_mpi
0000000000002c78 g     F .text	000000000000000c _utee_cryp_obj_get_info
0000000000009064 g     F .text	00000000000000d4 bpool
0000000000002c0c g     F .text	000000000000000c _utee_cryp_state_alloc
000000000000169c g     F .text	000000000000002c TEE_GetCancellationFlag
0000000000007974 g     F .text	00000000000001a8 mbedtls_mpi_gcd
0000000000001bec g     F .text	0000000000000044 TEE_SetTAPersistentTime
0000000000005b20 g     F .text	00000000000000b8 mbedtls_mpi_write_binary_le
0000000000009784 g     F .text	000000000000001c memset
0000000000001b78 g     F .text	0000000000000074 TEE_GetTAPersistentTime
0000000000000700 g     F .text	0000000000000004 dhex_dump
0000000000002490 g     F .text	00000000000000b8 TEE_CreatePersistentObject
00000000000016f4 g     F .text	000000000000002c TEE_MaskCancellation
0000000000002884 g     F .text	0000000000000060 TEE_TruncateObjectData
0000000000002c90 g     F .text	000000000000000c _utee_cryp_obj_get_attr
0000000000001d70 g     F .text	0000000000000040 TEE_GetObjectInfo1
0000000000002c6c g     F .text	000000000000000c _utee_cipher_final
0000000000000474 g     F .text	000000000000001c trace_set_level
0000000000001ef0 g     F .text	00000000000000d4 TEE_GetObjectValueAttribute
0000000000002c24 g     F .text	000000000000000c _utee_cryp_state_free
0000000000002b94 g     F .text	000000000000000c _utee_open_ta_session
0000000000003d70 g     F .text	0000000000000088 TEE_BigIntConvertToS32
0000000000004240 g     F .text	000000000000000c TEE_BigIntSub
000000000000046c g     F .text	0000000000000008 tahead_get_trace_level
0000000000002d98 g     F .text	000000000000000c _utee_storage_start_enum
00000000000028e4 g     F .text	00000000000000d8 TEE_SeekObjectData
0000000000002a4c g     F .text	0000000000000074 tee_map_zi
00000000000072a8 g     F .text	0000000000000040 mbedtls_mpi_montred
0000000000003cec g     F .text	0000000000000084 TEE_BigIntConvertFromS32
0000000000006404 g     F .text	0000000000000040 mbedtls_mpi_add_int
0000000000002d14 g     F .text	000000000000000c _utee_authenc_enc_final
0000000000009470 g     F .text	0000000000000180 malloc_buffer_is_within_alloced
0000000000002ca8 g     F .text	000000000000000c _utee_cryp_obj_close
0000000000004a74 g     F .text	0000000000000004 TEE_BigIntInitFMMContext
0000000000002bdc g     F .text	000000000000000c _utee_mask_cancellation
0000000000002d68 g     F .text	000000000000000c _utee_storage_obj_rename
00000000000026b8 g     F .text	0000000000000028 TEE_ResetPersistentObjectEnumerator
000000000000281c g     F .text	0000000000000068 TEE_WriteObjectData
00000000000043e4 g     F .text	0000000000000008 TEE_BigIntSquare
0000000000002dbc g     F .text	000000000000000c _utee_storage_obj_write
000000000000010c g     F .text	0000000000000008 TA_CreateEntryPoint
0000000000000458 g     F .text	0000000000000014 __ta_entry
0000000000002cfc g     F .text	000000000000000c _utee_authenc_update_aad
0000000000007138 g     F .text	000000000000003c mbedtls_mpi_montg_init
000000000000138c g     F .text	0000000000000074 snprintk
00000000000041f4 g     F .text	0000000000000040 TEE_BigIntGetBitCount
0000000000002ccc g     F .text	000000000000000c _utee_cryp_obj_copy
00000000000045e0 g     F .text	000000000000000c TEE_BigIntMulMod
0000000000007e58 g     F .text	0000000000000438 mbedtls_mpi_inv_mod
000000000000d470 g     O .bss	0000000000000040 ta_params
00000000000067ec g     F .text	00000000000004e4 mbedtls_mpi_div_mpi
0000000000005998 g     F .text	000000000000001c mbedtls_mpi_size
0000000000008a90 g     F .text	00000000000001c0 bget
0000000000001fec g     F .text	0000000000000064 TEE_AllocateTransientObject
0000000000002be8 g     F .text	000000000000000c _utee_wait
000000000000585c g     F .text	000000000000008c mbedtls_mpi_set_bit
0000000000001cbc g     F .text	0000000000000004 TEE_Free
0000000000008338 g     F .text	0000000000000010 mbedtls_mpi_is_prime
0000000000001cd0 g     F .text	0000000000000008 TEE_CacheInvalidate
00000000000099fc g     F .text	0000000000000014 _assert_break
00000000000045c8 g     F .text	000000000000000c TEE_BigIntAddMod
0000000000002bf4 g     F .text	000000000000000c _utee_get_time
0000000000002cc0 g     F .text	000000000000000c _utee_cryp_obj_populate
0000000000001b04 g     F .text	0000000000000008 TEE_MemCompare
0000000000002c60 g     F .text	000000000000000c _utee_cipher_update
0000000000000704 g     F .text	0000000000000c34 __vsnprintf
0000000000002690 g     F .text	0000000000000028 TEE_FreePersistentObjectEnumerator
0000000000001a08 g     F .text	00000000000000dc TEE_OpenTASession
0000000000001448 g     F .text	0000000000000028 trace_ext_puts
0000000000001470 g     F .text	0000000000000008 trace_ext_get_thread_id
0000000000002590 g     F .text	000000000000002c TEE_CloseAndDeletePersistentObject
0000000000002cd8 g     F .text	000000000000000c _utee_cryp_derive_key
000000000000528c g     F .text	000000000000006c mbedtls_mpi_free
0000000000002cb4 g     F .text	000000000000000c _utee_cryp_obj_reset
0000000000001cc0 g     F .text	0000000000000008 TEE_CacheClean
0000000000002b88 g     F .text	000000000000000c _utee_get_property_name_to_index
00000000000056e4 g     F .text	00000000000000e4 mbedtls_mpi_safe_cond_swap
0000000000002cf0 g     F .text	000000000000000c _utee_authenc_init
000000000000225c g     F .text	00000000000000ac TEE_CopyObjectAttributes1
000000000000142c g     F .text	000000000000001c strlen
00000000000047e8 g     F .text	0000000000000238 TEE_BigIntComputeExtendedGcd
0000000000002d74 g     F .text	000000000000000c _utee_storage_alloc_enum
0000000000001b14 g     F .text	0000000000000028 TEE_GetSystemTime
0000000000002d38 g     F .text	000000000000000c _utee_asymm_verify
0000000000000000 g     O .ta_head	0000000000000020 ta_head
0000000000008cdc g     F .text	00000000000002bc brel
000000000000621c g     F .text	00000000000000d4 mbedtls_mpi_sub_abs
0000000000007b1c g     F .text	00000000000000bc mbedtls_mpi_fill_random
0000000000001ae4 g     F .text	000000000000000c TEE_SetInstanceData
0000000000002bb8 g     F .text	000000000000000c _utee_get_cancellation_flag
0000000000006e64 g     F .text	000000000000023c mbedtls_mpi_write_string
0000000000002730 g     F .text	0000000000000080 TEE_GetNextPersistentObject
0000000000001674 g     F .text	0000000000000028 TEE_CloseTASession
0000000000002d50 g     F .text	000000000000000c _utee_storage_obj_create
0000000000009324 g     F .text	0000000000000018 free
0000000000009138 g     F .text	0000000000000098 bstats
00000000000104b0 g     O .bss	0000000000000008 mbedtls_mpi_mempool
0000000000002c48 g     F .text	000000000000000c _utee_hash_final



Disassembly of section .text:

0000000000000020 <memcpy>:
memcpy():
/home/nk/optee/optee_os/lib/libutils/isoc/newlib/memcpy.c:106
      20:	f1007c5f 	cmp	x2, #0x1f
      24:	54000629 	b.ls	e8 <memcpy+0xc8>  // b.plast
/home/nk/optee/optee_os/lib/libutils/isoc/newlib/memcpy.c:106 (discriminator 1)
      28:	aa000025 	orr	x5, x1, x0
      2c:	f24008a5 	ands	x5, x5, #0x7
      30:	54000641 	b.ne	f8 <memcpy+0xd8>  // b.any
      34:	d1008048 	sub	x8, x2, #0x20
/home/nk/optee/optee_os/lib/libutils/isoc/newlib/memcpy.c:108
      38:	aa0103e4 	mov	x4, x1
      3c:	927be908 	and	x8, x8, #0xffffffffffffffe0
/home/nk/optee/optee_os/lib/libutils/isoc/newlib/memcpy.c:107
      40:	aa0003e3 	mov	x3, x0
      44:	91008108 	add	x8, x8, #0x20
      48:	8b080007 	add	x7, x0, x8
      4c:	d503201f 	nop
/home/nk/optee/optee_os/lib/libutils/isoc/newlib/memcpy.c:112
      50:	f9400086 	ldr	x6, [x4]
      54:	f9000066 	str	x6, [x3]
/home/nk/optee/optee_os/lib/libutils/isoc/newlib/memcpy.c:113
      58:	91008084 	add	x4, x4, #0x20
      5c:	91008063 	add	x3, x3, #0x20
      60:	f85e8086 	ldur	x6, [x4, #-24]
      64:	f81e8066 	stur	x6, [x3, #-24]
/home/nk/optee/optee_os/lib/libutils/isoc/newlib/memcpy.c:114
      68:	f85f0086 	ldur	x6, [x4, #-16]
      6c:	f81f0066 	stur	x6, [x3, #-16]
/home/nk/optee/optee_os/lib/libutils/isoc/newlib/memcpy.c:111
      70:	eb0300ff 	cmp	x7, x3
/home/nk/optee/optee_os/lib/libutils/isoc/newlib/memcpy.c:115
      74:	f85f8086 	ldur	x6, [x4, #-8]
      78:	f81f8066 	stur	x6, [x3, #-8]
/home/nk/optee/optee_os/lib/libutils/isoc/newlib/memcpy.c:111
      7c:	54fffea1 	b.ne	50 <memcpy+0x30>  // b.any
      80:	8b080021 	add	x1, x1, x8
/home/nk/optee/optee_os/lib/libutils/isoc/newlib/memcpy.c:120
      84:	f27d045f 	tst	x2, #0x18
      88:	92401044 	and	x4, x2, #0x1f
      8c:	540003c0 	b.eq	104 <memcpy+0xe4>  // b.none
/home/nk/optee/optee_os/lib/libutils/isoc/newlib/memcpy.c:121
      90:	f8656826 	ldr	x6, [x1, x5]
      94:	f8256866 	str	x6, [x3, x5]
/home/nk/optee/optee_os/lib/libutils/isoc/newlib/memcpy.c:122
      98:	910020a5 	add	x5, x5, #0x8
/home/nk/optee/optee_os/lib/libutils/isoc/newlib/memcpy.c:120
      9c:	cb050086 	sub	x6, x4, x5
      a0:	f1001cdf 	cmp	x6, #0x7
      a4:	54ffff68 	b.hi	90 <memcpy+0x70>  // b.pmore
      a8:	d1002084 	sub	x4, x4, #0x8
      ac:	92400842 	and	x2, x2, #0x7
      b0:	927df084 	and	x4, x4, #0xfffffffffffffff8
/home/nk/optee/optee_os/lib/libutils/isoc/newlib/memcpy.c:130
      b4:	d1000445 	sub	x5, x2, #0x1
      b8:	91002084 	add	x4, x4, #0x8
      bc:	8b040063 	add	x3, x3, x4
      c0:	8b040021 	add	x1, x1, x4
      c4:	b4000102 	cbz	x2, e4 <memcpy+0xc4>
/home/nk/optee/optee_os/lib/libutils/isoc/newlib/memcpy.c:99
      c8:	d2800002 	mov	x2, #0x0                   	// #0
      cc:	d503201f 	nop
/home/nk/optee/optee_os/lib/libutils/isoc/newlib/memcpy.c:131
      d0:	38626824 	ldrb	w4, [x1, x2]
/home/nk/optee/optee_os/lib/libutils/isoc/newlib/memcpy.c:130
      d4:	eb0200bf 	cmp	x5, x2
/home/nk/optee/optee_os/lib/libutils/isoc/newlib/memcpy.c:131
      d8:	38226864 	strb	w4, [x3, x2]
      dc:	91000442 	add	x2, x2, #0x1
/home/nk/optee/optee_os/lib/libutils/isoc/newlib/memcpy.c:130
      e0:	54ffff81 	b.ne	d0 <memcpy+0xb0>  // b.any
/home/nk/optee/optee_os/lib/libutils/isoc/newlib/memcpy.c:135
      e4:	d65f03c0 	ret
/home/nk/optee/optee_os/lib/libutils/isoc/newlib/memcpy.c:99
      e8:	aa0003e3 	mov	x3, x0
/home/nk/optee/optee_os/lib/libutils/isoc/newlib/memcpy.c:130
      ec:	d1000445 	sub	x5, x2, #0x1
      f0:	b5fffec2 	cbnz	x2, c8 <memcpy+0xa8>
/home/nk/optee/optee_os/lib/libutils/isoc/newlib/memcpy.c:135
      f4:	d65f03c0 	ret
/home/nk/optee/optee_os/lib/libutils/isoc/newlib/memcpy.c:130
      f8:	d1000445 	sub	x5, x2, #0x1
/home/nk/optee/optee_os/lib/libutils/isoc/newlib/memcpy.c:99
      fc:	aa0003e3 	mov	x3, x0
     100:	17fffff2 	b	c8 <memcpy+0xa8>
/home/nk/optee/optee_os/lib/libutils/isoc/newlib/memcpy.c:120
     104:	aa0403e2 	mov	x2, x4
     108:	17fffff9 	b	ec <memcpy+0xcc>

000000000000010c <TA_CreateEntryPoint>:
TA_CreateEntryPoint():
/home/nk/development/secure_storage/ta/secure_storage_ta.c:223
     10c:	52800000 	mov	w0, #0x0                   	// #0
     110:	d65f03c0 	ret

0000000000000114 <TA_DestroyEntryPoint>:
TA_DestroyEntryPoint():
/home/nk/development/secure_storage/ta/secure_storage_ta.c:228
     114:	d65f03c0 	ret

0000000000000118 <TA_OpenSessionEntryPoint>:
TA_OpenSessionEntryPoint():
/home/nk/development/secure_storage/ta/secure_storage_ta.c:236
     118:	52800000 	mov	w0, #0x0                   	// #0
     11c:	d65f03c0 	ret

0000000000000120 <TA_CloseSessionEntryPoint>:
TA_CloseSessionEntryPoint():
/home/nk/development/secure_storage/ta/secure_storage_ta.c:241
     120:	d65f03c0 	ret

0000000000000124 <TA_InvokeCommandEntryPoint>:
TA_InvokeCommandEntryPoint():
/home/nk/development/secure_storage/ta/secure_storage_ta.c:247
     124:	a9b97bfd 	stp	x29, x30, [sp, #-112]!
/home/nk/development/secure_storage/ta/secure_storage_ta.c:248
     128:	7100043f 	cmp	w1, #0x1
/home/nk/development/secure_storage/ta/secure_storage_ta.c:247
     12c:	910003fd 	mov	x29, sp
     130:	a90153f3 	stp	x19, x20, [sp, #16]
     134:	2a0103f4 	mov	w20, w1
     138:	aa0303f3 	mov	x19, x3
     13c:	a9025bf5 	stp	x21, x22, [sp, #32]
     140:	2a0203f5 	mov	w21, w2
     144:	a90363f7 	stp	x23, x24, [sp, #48]
/home/nk/development/secure_storage/ta/secure_storage_ta.c:248
     148:	54000200 	b.eq	188 <TA_InvokeCommandEntryPoint+0x64>  // b.none
     14c:	340009c1 	cbz	w1, 284 <TA_InvokeCommandEntryPoint+0x160>
     150:	7100083f 	cmp	w1, #0x2
     154:	54001360 	b.eq	3c0 <TA_InvokeCommandEntryPoint+0x29c>  // b.none
/home/nk/development/secure_storage/ta/secure_storage_ta.c:256
     158:	f0000040 	adrp	x0, b000 <__text_end+0x15f0>
     15c:	91348000 	add	x0, x0, #0xd20
     160:	2a0103e5 	mov	w5, w1
     164:	f0000044 	adrp	x4, b000 <__text_end+0x15f0>
     168:	52800023 	mov	w3, #0x1                   	// #1
     16c:	91391084 	add	x4, x4, #0xe44
     170:	52800022 	mov	w2, #0x1                   	// #1
     174:	52802001 	mov	w1, #0x100                 	// #256
     178:	9100c000 	add	x0, x0, #0x30
/home/nk/development/secure_storage/ta/secure_storage_ta.c:257
     17c:	129ffeb3 	mov	w19, #0xffff000a            	// #-65526
/home/nk/development/secure_storage/ta/secure_storage_ta.c:256
     180:	94000144 	bl	690 <trace_printf>
/home/nk/development/secure_storage/ta/secure_storage_ta.c:257
     184:	14000037 	b	260 <TA_InvokeCommandEntryPoint+0x13c>
create_raw_object():
/home/nk/development/secure_storage/ta/secure_storage_ta.c:96
     188:	7101545f 	cmp	w2, #0x55
     18c:	540015e1 	b.ne	448 <TA_InvokeCommandEntryPoint+0x324>  // b.any
/home/nk/development/secure_storage/ta/secure_storage_ta.c:99
     190:	b9400876 	ldr	w22, [x3, #8]
/home/nk/development/secure_storage/ta/secure_storage_ta.c:100
     194:	52800001 	mov	w1, #0x0                   	// #0
     198:	2a1603e0 	mov	w0, w22
     19c:	940006af 	bl	1c58 <TEE_Malloc>
     1a0:	aa0003f5 	mov	x21, x0
/home/nk/development/secure_storage/ta/secure_storage_ta.c:101
     1a4:	b4001560 	cbz	x0, 450 <TA_InvokeCommandEntryPoint+0x32c>
/home/nk/development/secure_storage/ta/secure_storage_ta.c:104
     1a8:	aa1303f7 	mov	x23, x19
     1ac:	2a1603e2 	mov	w2, w22
     1b0:	f84106e1 	ldr	x1, [x23], #16
     1b4:	94000652 	bl	1afc <TEE_MemMove>
/home/nk/development/secure_storage/ta/secure_storage_ta.c:107
     1b8:	b9400af7 	ldr	w23, [x23, #8]
/home/nk/development/secure_storage/ta/secure_storage_ta.c:117
     1bc:	910143e7 	add	x7, sp, #0x50
     1c0:	52800006 	mov	w6, #0x0                   	// #0
     1c4:	d2800005 	mov	x5, #0x0                   	// #0
     1c8:	d2800004 	mov	x4, #0x0                   	// #0
     1cc:	528080e3 	mov	w3, #0x407                 	// #1031
     1d0:	2a1603e2 	mov	w2, w22
     1d4:	aa1503e1 	mov	x1, x21
     1d8:	2a1403e0 	mov	w0, w20
/home/nk/development/secure_storage/ta/secure_storage_ta.c:106
     1dc:	f9400a78 	ldr	x24, [x19, #16]
/home/nk/development/secure_storage/ta/secure_storage_ta.c:117
     1e0:	940008ac 	bl	2490 <TEE_CreatePersistentObject>
     1e4:	2a0003f3 	mov	w19, w0
/home/nk/development/secure_storage/ta/secure_storage_ta.c:123
     1e8:	34000160 	cbz	w0, 214 <TA_InvokeCommandEntryPoint+0xf0>
/home/nk/development/secure_storage/ta/secure_storage_ta.c:124
     1ec:	2a0003e5 	mov	w5, w0
     1f0:	f0000044 	adrp	x4, b000 <__text_end+0x15f0>
     1f4:	f0000040 	adrp	x0, b000 <__text_end+0x15f0>
     1f8:	9135ac84 	add	x4, x4, #0xd6b
     1fc:	2a1403e3 	mov	w3, w20
     200:	2a1403e2 	mov	w2, w20
     204:	91348000 	add	x0, x0, #0xd20
     208:	52800f81 	mov	w1, #0x7c                  	// #124
read_raw_object():
/home/nk/development/secure_storage/ta/secure_storage_ta.c:182
     20c:	94000121 	bl	690 <trace_printf>
     210:	14000012 	b	258 <TA_InvokeCommandEntryPoint+0x134>
create_raw_object():
/home/nk/development/secure_storage/ta/secure_storage_ta.c:129
     214:	f9402be0 	ldr	x0, [sp, #80]
     218:	2a1703e2 	mov	w2, w23
     21c:	aa1803e1 	mov	x1, x24
     220:	9400097f 	bl	281c <TEE_WriteObjectData>
     224:	2a0003f3 	mov	w19, w0
/home/nk/development/secure_storage/ta/secure_storage_ta.c:130
     228:	34000280 	cbz	w0, 278 <TA_InvokeCommandEntryPoint+0x154>
/home/nk/development/secure_storage/ta/secure_storage_ta.c:131
     22c:	2a0003e5 	mov	w5, w0
     230:	f0000044 	adrp	x4, b000 <__text_end+0x15f0>
     234:	2a1403e3 	mov	w3, w20
     238:	91365084 	add	x4, x4, #0xd94
     23c:	2a1403e2 	mov	w2, w20
     240:	52801061 	mov	w1, #0x83                  	// #131
     244:	f0000040 	adrp	x0, b000 <__text_end+0x15f0>
     248:	91348000 	add	x0, x0, #0xd20
     24c:	94000111 	bl	690 <trace_printf>
/home/nk/development/secure_storage/ta/secure_storage_ta.c:132
     250:	f9402be0 	ldr	x0, [sp, #80]
     254:	940008bd 	bl	2548 <TEE_CloseAndDeletePersistentObject1>
read_raw_object():
/home/nk/development/secure_storage/ta/secure_storage_ta.c:183
     258:	aa1503e0 	mov	x0, x21
     25c:	94000698 	bl	1cbc <TEE_Free>
TA_InvokeCommandEntryPoint():
/home/nk/development/secure_storage/ta/secure_storage_ta.c:259
     260:	2a1303e0 	mov	w0, w19
     264:	a94153f3 	ldp	x19, x20, [sp, #16]
     268:	a9425bf5 	ldp	x21, x22, [sp, #32]
     26c:	a94363f7 	ldp	x23, x24, [sp, #48]
     270:	a8c77bfd 	ldp	x29, x30, [sp], #112
     274:	d65f03c0 	ret
create_raw_object():
/home/nk/development/secure_storage/ta/secure_storage_ta.c:134
     278:	f9402be0 	ldr	x0, [sp, #80]
read_raw_object():
/home/nk/development/secure_storage/ta/secure_storage_ta.c:214
     27c:	94000752 	bl	1fc4 <TEE_CloseObject>
/home/nk/development/secure_storage/ta/secure_storage_ta.c:215
     280:	17fffff6 	b	258 <TA_InvokeCommandEntryPoint+0x134>
/home/nk/development/secure_storage/ta/secure_storage_ta.c:159
     284:	7101945f 	cmp	w2, #0x65
     288:	54000e01 	b.ne	448 <TA_InvokeCommandEntryPoint+0x324>  // b.any
/home/nk/development/secure_storage/ta/secure_storage_ta.c:162
     28c:	b9400876 	ldr	w22, [x3, #8]
/home/nk/development/secure_storage/ta/secure_storage_ta.c:163
     290:	2a1603e0 	mov	w0, w22
     294:	94000671 	bl	1c58 <TEE_Malloc>
     298:	aa0003f5 	mov	x21, x0
/home/nk/development/secure_storage/ta/secure_storage_ta.c:164
     29c:	b4000da0 	cbz	x0, 450 <TA_InvokeCommandEntryPoint+0x32c>
/home/nk/development/secure_storage/ta/secure_storage_ta.c:167
     2a0:	aa1303f4 	mov	x20, x19
     2a4:	2a1603e2 	mov	w2, w22
     2a8:	f8410681 	ldr	x1, [x20], #16
     2ac:	94000614 	bl	1afc <TEE_MemMove>
/home/nk/development/secure_storage/ta/secure_storage_ta.c:170
     2b0:	b9400a98 	ldr	w24, [x20, #8]
/home/nk/development/secure_storage/ta/secure_storage_ta.c:176
     2b4:	910123e4 	add	x4, sp, #0x48
     2b8:	52800223 	mov	w3, #0x11                  	// #17
     2bc:	2a1603e2 	mov	w2, w22
     2c0:	aa1503e1 	mov	x1, x21
     2c4:	52800020 	mov	w0, #0x1                   	// #1
/home/nk/development/secure_storage/ta/secure_storage_ta.c:169
     2c8:	f9400a77 	ldr	x23, [x19, #16]
/home/nk/development/secure_storage/ta/secure_storage_ta.c:176
     2cc:	94000846 	bl	23e4 <TEE_OpenPersistentObject>
     2d0:	2a0003f3 	mov	w19, w0
/home/nk/development/secure_storage/ta/secure_storage_ta.c:181
     2d4:	34000160 	cbz	w0, 300 <TA_InvokeCommandEntryPoint+0x1dc>
/home/nk/development/secure_storage/ta/secure_storage_ta.c:182
     2d8:	2a0003e5 	mov	w5, w0
     2dc:	f0000040 	adrp	x0, b000 <__text_end+0x15f0>
     2e0:	91348000 	add	x0, x0, #0xd20
     2e4:	f0000044 	adrp	x4, b000 <__text_end+0x15f0>
     2e8:	52800023 	mov	w3, #0x1                   	// #1
     2ec:	9136d884 	add	x4, x4, #0xdb6
     2f0:	52800022 	mov	w2, #0x1                   	// #1
     2f4:	528016c1 	mov	w1, #0xb6                  	// #182
     2f8:	91004800 	add	x0, x0, #0x12
     2fc:	17ffffc4 	b	20c <TA_InvokeCommandEntryPoint+0xe8>
/home/nk/development/secure_storage/ta/secure_storage_ta.c:187
     300:	f94027e0 	ldr	x0, [sp, #72]
     304:	910143e1 	add	x1, sp, #0x50
     308:	9400069a 	bl	1d70 <TEE_GetObjectInfo1>
     30c:	2a0003f3 	mov	w19, w0
/home/nk/development/secure_storage/ta/secure_storage_ta.c:188
     310:	340001a0 	cbz	w0, 344 <TA_InvokeCommandEntryPoint+0x220>
/home/nk/development/secure_storage/ta/secure_storage_ta.c:189
     314:	2a0003e5 	mov	w5, w0
     318:	f0000040 	adrp	x0, b000 <__text_end+0x15f0>
     31c:	91348000 	add	x0, x0, #0xd20
     320:	f0000044 	adrp	x4, b000 <__text_end+0x15f0>
     324:	52800023 	mov	w3, #0x1                   	// #1
     328:	91378c84 	add	x4, x4, #0xde3
     32c:	52800022 	mov	w2, #0x1                   	// #1
     330:	528017a1 	mov	w1, #0xbd                  	// #189
     334:	91004800 	add	x0, x0, #0x12
     338:	940000d6 	bl	690 <trace_printf>
/home/nk/development/secure_storage/ta/secure_storage_ta.c:214
     33c:	f94027e0 	ldr	x0, [sp, #72]
     340:	17ffffcf 	b	27c <TA_InvokeCommandEntryPoint+0x158>
/home/nk/development/secure_storage/ta/secure_storage_ta.c:193
     344:	b94063e2 	ldr	w2, [sp, #96]
     348:	6b02031f 	cmp	w24, w2
     34c:	54000082 	b.cs	35c <TA_InvokeCommandEntryPoint+0x238>  // b.hs, b.nlast
/home/nk/development/secure_storage/ta/secure_storage_ta.c:199
     350:	129ffdf3 	mov	w19, #0xffff0010            	// #-65520
/home/nk/development/secure_storage/ta/secure_storage_ta.c:198
     354:	b9000a82 	str	w2, [x20, #8]
/home/nk/development/secure_storage/ta/secure_storage_ta.c:200
     358:	17fffff9 	b	33c <TA_InvokeCommandEntryPoint+0x218>
/home/nk/development/secure_storage/ta/secure_storage_ta.c:203
     35c:	f94027e0 	ldr	x0, [sp, #72]
     360:	910113e3 	add	x3, sp, #0x44
     364:	aa1703e1 	mov	x1, x23
     368:	94000912 	bl	27b0 <TEE_ReadObjectData>
     36c:	2a0003f3 	mov	w19, w0
/home/nk/development/secure_storage/ta/secure_storage_ta.c:205
     370:	350000a0 	cbnz	w0, 384 <TA_InvokeCommandEntryPoint+0x260>
     374:	b94047e1 	ldr	w1, [sp, #68]
     378:	b94063e0 	ldr	w0, [sp, #96]
     37c:	6b01001f 	cmp	w0, w1
     380:	540001c0 	b.eq	3b8 <TA_InvokeCommandEntryPoint+0x294>  // b.none
/home/nk/development/secure_storage/ta/secure_storage_ta.c:206
     384:	b94047e6 	ldr	w6, [sp, #68]
     388:	f0000040 	adrp	x0, b000 <__text_end+0x15f0>
     38c:	b94063e7 	ldr	w7, [sp, #96]
     390:	91348000 	add	x0, x0, #0xd20
     394:	2a1303e5 	mov	w5, w19
     398:	f0000044 	adrp	x4, b000 <__text_end+0x15f0>
     39c:	52800023 	mov	w3, #0x1                   	// #1
     3a0:	91384884 	add	x4, x4, #0xe12
     3a4:	52800022 	mov	w2, #0x1                   	// #1
     3a8:	528019e1 	mov	w1, #0xcf                  	// #207
     3ac:	91004800 	add	x0, x0, #0x12
     3b0:	940000b8 	bl	690 <trace_printf>
/home/nk/development/secure_storage/ta/secure_storage_ta.c:208
     3b4:	17ffffe2 	b	33c <TA_InvokeCommandEntryPoint+0x218>
/home/nk/development/secure_storage/ta/secure_storage_ta.c:212
     3b8:	b9000a80 	str	w0, [x20, #8]
     3bc:	17ffffe0 	b	33c <TA_InvokeCommandEntryPoint+0x218>
delete_object():
/home/nk/development/secure_storage/ta/secure_storage_ta.c:48
     3c0:	7100145f 	cmp	w2, #0x5
     3c4:	54000421 	b.ne	448 <TA_InvokeCommandEntryPoint+0x324>  // b.any
/home/nk/development/secure_storage/ta/secure_storage_ta.c:51
     3c8:	b9400876 	ldr	w22, [x3, #8]
/home/nk/development/secure_storage/ta/secure_storage_ta.c:52
     3cc:	52800001 	mov	w1, #0x0                   	// #0
     3d0:	2a1603e0 	mov	w0, w22
     3d4:	94000621 	bl	1c58 <TEE_Malloc>
     3d8:	aa0003f4 	mov	x20, x0
/home/nk/development/secure_storage/ta/secure_storage_ta.c:53
     3dc:	b40003a0 	cbz	x0, 450 <TA_InvokeCommandEntryPoint+0x32c>
/home/nk/development/secure_storage/ta/secure_storage_ta.c:56
     3e0:	f9400261 	ldr	x1, [x19]
     3e4:	2a1603e2 	mov	w2, w22
     3e8:	940005c5 	bl	1afc <TEE_MemMove>
/home/nk/development/secure_storage/ta/secure_storage_ta.c:61
     3ec:	910143e4 	add	x4, sp, #0x50
     3f0:	2a1503e3 	mov	w3, w21
     3f4:	2a1603e2 	mov	w2, w22
     3f8:	aa1403e1 	mov	x1, x20
     3fc:	52800020 	mov	w0, #0x1                   	// #1
     400:	940007f9 	bl	23e4 <TEE_OpenPersistentObject>
     404:	2a0003f3 	mov	w19, w0
/home/nk/development/secure_storage/ta/secure_storage_ta.c:66
     408:	340001a0 	cbz	w0, 43c <TA_InvokeCommandEntryPoint+0x318>
/home/nk/development/secure_storage/ta/secure_storage_ta.c:67
     40c:	2a0003e5 	mov	w5, w0
     410:	f0000040 	adrp	x0, b000 <__text_end+0x15f0>
     414:	91348000 	add	x0, x0, #0xd20
     418:	f0000044 	adrp	x4, b000 <__text_end+0x15f0>
     41c:	52800023 	mov	w3, #0x1                   	// #1
     420:	9136d884 	add	x4, x4, #0xdb6
     424:	52800022 	mov	w2, #0x1                   	// #1
     428:	52800861 	mov	w1, #0x43                  	// #67
     42c:	91008800 	add	x0, x0, #0x22
     430:	94000098 	bl	690 <trace_printf>
/home/nk/development/secure_storage/ta/secure_storage_ta.c:73
     434:	aa1403e0 	mov	x0, x20
     438:	17ffff89 	b	25c <TA_InvokeCommandEntryPoint+0x138>
/home/nk/development/secure_storage/ta/secure_storage_ta.c:72
     43c:	f9402be0 	ldr	x0, [sp, #80]
     440:	94000842 	bl	2548 <TEE_CloseAndDeletePersistentObject1>
     444:	17fffffc 	b	434 <TA_InvokeCommandEntryPoint+0x310>
/home/nk/development/secure_storage/ta/secure_storage_ta.c:49
     448:	129fff33 	mov	w19, #0xffff0006            	// #-65530
     44c:	17ffff85 	b	260 <TA_InvokeCommandEntryPoint+0x13c>
/home/nk/development/secure_storage/ta/secure_storage_ta.c:54
     450:	129ffe73 	mov	w19, #0xffff000c            	// #-65524
TA_InvokeCommandEntryPoint():
/home/nk/development/secure_storage/ta/secure_storage_ta.c:254
     454:	17ffff83 	b	260 <TA_InvokeCommandEntryPoint+0x13c>

0000000000000458 <__ta_entry>:
__ta_entry():
/home/nk/optee/optee_os/out/arm/export-ta_arm64/src/user_ta_header.c:47
     458:	a9bf7bfd 	stp	x29, x30, [sp, #-16]!
     45c:	910003fd 	mov	x29, sp
/home/nk/optee/optee_os/out/arm/export-ta_arm64/src/user_ta_header.c:48
     460:	94000b29 	bl	3104 <__utee_entry>
/home/nk/optee/optee_os/out/arm/export-ta_arm64/src/user_ta_header.c:59
     464:	2a0003e0 	mov	w0, w0
     468:	940009bc 	bl	2b58 <_utee_return>

000000000000046c <tahead_get_trace_level>:
tahead_get_trace_level():
/home/nk/optee/optee_os/out/arm/export-ta_arm64/src/user_ta_header.c:149
     46c:	52800020 	mov	w0, #0x1                   	// #1
     470:	d65f03c0 	ret

0000000000000474 <trace_set_level>:
trace_set_level():
/home/nk/optee/optee_os/lib/libutils/ext/trace.c:29
     474:	7100141f 	cmp	w0, #0x5
     478:	52800081 	mov	w1, #0x4                   	// #4
     47c:	1a813000 	csel	w0, w0, w1, cc  // cc = lo, ul, last
     480:	b0000061 	adrp	x1, d000 <_DYNAMIC>
     484:	f9409c21 	ldr	x1, [x1, #312]
     488:	b9000020 	str	w0, [x1]
/home/nk/optee/optee_os/lib/libutils/ext/trace.c:30
     48c:	d65f03c0 	ret

0000000000000490 <trace_get_level>:
trace_get_level():
/home/nk/optee/optee_os/lib/libutils/ext/trace.c:34
     490:	b0000060 	adrp	x0, d000 <_DYNAMIC>
/home/nk/optee/optee_os/lib/libutils/ext/trace.c:35
     494:	f9409c00 	ldr	x0, [x0, #312]
     498:	b9400000 	ldr	w0, [x0]
     49c:	d65f03c0 	ret

00000000000004a0 <trace_vprintf>:
trace_vprintf():
/home/nk/optee/optee_os/lib/libutils/ext/trace.c:106
     4a0:	a9a87bfd 	stp	x29, x30, [sp, #-384]!
     4a4:	910003fd 	mov	x29, sp
     4a8:	a90153f3 	stp	x19, x20, [sp, #16]
     4ac:	a9025bf5 	stp	x21, x22, [sp, #32]
     4b0:	a90363f7 	stp	x23, x24, [sp, #48]
/home/nk/optee/optee_os/lib/libutils/ext/trace.c:111
     4b4:	72001c77 	ands	w23, w3, #0xff
/home/nk/optee/optee_os/lib/libutils/ext/trace.c:106
     4b8:	a9046bf9 	stp	x25, x26, [sp, #64]
     4bc:	f9002bfb 	str	x27, [sp, #80]
/home/nk/optee/optee_os/lib/libutils/ext/trace.c:111
     4c0:	54000c00 	b.eq	640 <trace_vprintf+0x1a0>  // b.none
/home/nk/optee/optee_os/lib/libutils/ext/trace.c:111 (discriminator 1)
     4c4:	b0000063 	adrp	x3, d000 <_DYNAMIC>
     4c8:	f9409c63 	ldr	x3, [x3, #312]
     4cc:	b9400063 	ldr	w3, [x3]
     4d0:	6b02007f 	cmp	w3, w2
     4d4:	54000a8b 	b.lt	624 <trace_vprintf+0x184>  // b.tstop
trace_level_to_string():
/home/nk/optee/optee_os/lib/libutils/ext/trace.c:52
     4d8:	7100105f 	cmp	w2, #0x4
/home/nk/optee/optee_os/lib/libutils/ext/trace.c:55
     4dc:	f0000043 	adrp	x3, b000 <__text_end+0x15f0>
/home/nk/optee/optee_os/lib/libutils/ext/trace.c:52
     4e0:	1a9f9046 	csel	w6, w2, wzr, ls  // ls = plast
/home/nk/optee/optee_os/lib/libutils/ext/trace.c:55
     4e4:	913db863 	add	x3, x3, #0xf6e
     4e8:	3866c863 	ldrb	w3, [x3, w6, sxtw]
trace_vprintf():
/home/nk/optee/optee_os/lib/libutils/ext/trace.c:115
     4ec:	910203f4 	add	x20, sp, #0x80
     4f0:	2a0203f8 	mov	w24, w2
     4f4:	2a0103fb 	mov	w27, w1
     4f8:	aa0003f6 	mov	x22, x0
     4fc:	f0000042 	adrp	x2, b000 <__text_end+0x15f0>
     500:	aa0503fa 	mov	x26, x5
     504:	aa0403f9 	mov	x25, x4
     508:	913dcc42 	add	x2, x2, #0xf73
     50c:	d2802001 	mov	x1, #0x100                 	// #256
     510:	aa1403e0 	mov	x0, x20
     514:	9400039e 	bl	138c <snprintk>
/home/nk/optee/optee_os/lib/libutils/ext/trace.c:117
     518:	37f80860 	tbnz	w0, #31, 624 <trace_vprintf+0x184>
/home/nk/optee/optee_os/lib/libutils/ext/trace.c:122
     51c:	b0000063 	adrp	x3, d000 <_DYNAMIC>
/home/nk/optee/optee_os/lib/libutils/ext/trace.c:119
     520:	93407c15 	sxtw	x21, w0
/home/nk/optee/optee_os/lib/libutils/ext/trace.c:122
     524:	d2802013 	mov	x19, #0x100                 	// #256
     528:	f0000042 	adrp	x2, b000 <__text_end+0x15f0>
     52c:	f940a063 	ldr	x3, [x3, #320]
     530:	913ddc42 	add	x2, x2, #0xf77
     534:	cb150261 	sub	x1, x19, x21
     538:	8b150280 	add	x0, x20, x21
     53c:	94000394 	bl	138c <snprintk>
/home/nk/optee/optee_os/lib/libutils/ext/trace.c:124
     540:	37f80720 	tbnz	w0, #31, 624 <trace_vprintf+0x184>
/home/nk/optee/optee_os/lib/libutils/ext/trace.c:126
     544:	8b20c2b5 	add	x21, x21, w0, sxtw
/home/nk/optee/optee_os/lib/libutils/ext/trace.c:128
     548:	34000937 	cbz	w23, 66c <trace_vprintf+0x1cc>
/home/nk/optee/optee_os/lib/libutils/ext/trace.c:128 (discriminator 1)
     54c:	52800342 	mov	w2, #0x1a                  	// #26
     550:	1ad82442 	lsr	w2, w2, w24
     554:	360008c2 	tbz	w2, #0, 66c <trace_vprintf+0x1cc>
/home/nk/optee/optee_os/lib/libutils/ext/trace.c:130
     558:	8b150297 	add	x23, x20, x21
     55c:	cb150273 	sub	x19, x19, x21
print_thread_id():
/home/nk/optee/optee_os/lib/libutils/ext/trace.c:65
     560:	940003c4 	bl	1470 <trace_ext_get_thread_id>
/home/nk/optee/optee_os/lib/libutils/ext/trace.c:67
     564:	37f80720 	tbnz	w0, #31, 648 <trace_vprintf+0x1a8>
/home/nk/optee/optee_os/lib/libutils/ext/trace.c:68
     568:	2a0003e4 	mov	w4, w0
     56c:	f0000042 	adrp	x2, b000 <__text_end+0x15f0>
     570:	52800023 	mov	w3, #0x1                   	// #1
     574:	913dec42 	add	x2, x2, #0xf7b
     578:	aa1303e1 	mov	x1, x19
     57c:	aa1703e0 	mov	x0, x23
     580:	94000383 	bl	138c <snprintk>
trace_vprintf():
/home/nk/optee/optee_os/lib/libutils/ext/trace.c:137
     584:	37f80500 	tbnz	w0, #31, 624 <trace_vprintf+0x184>
/home/nk/optee/optee_os/lib/libutils/ext/trace.c:139
     588:	8b20c2b3 	add	x19, x21, w0, sxtw
/home/nk/optee/optee_os/lib/libutils/ext/trace.c:141
     58c:	b4000176 	cbz	x22, 5b8 <trace_vprintf+0x118>
/home/nk/optee/optee_os/lib/libutils/ext/trace.c:142
     590:	f0000042 	adrp	x2, b000 <__text_end+0x15f0>
     594:	d2802001 	mov	x1, #0x100                 	// #256
     598:	2a1b03e4 	mov	w4, w27
     59c:	aa1603e3 	mov	x3, x22
     5a0:	913e1842 	add	x2, x2, #0xf86
     5a4:	cb130021 	sub	x1, x1, x19
     5a8:	8b130280 	add	x0, x20, x19
     5ac:	94000378 	bl	138c <snprintk>
/home/nk/optee/optee_os/lib/libutils/ext/trace.c:144
     5b0:	37f803a0 	tbnz	w0, #31, 624 <trace_vprintf+0x184>
/home/nk/optee/optee_os/lib/libutils/ext/trace.c:146
     5b4:	8b20c273 	add	x19, x19, w0, sxtw
/home/nk/optee/optee_os/lib/libutils/ext/trace.c:156
     5b8:	910183e3 	add	x3, sp, #0x60
     5bc:	d2800402 	mov	x2, #0x20                  	// #32
     5c0:	aa1a03e1 	mov	x1, x26
     5c4:	aa0303e0 	mov	x0, x3
     5c8:	97fffe96 	bl	20 <memcpy>
     5cc:	aa0003e3 	mov	x3, x0
     5d0:	aa1903e2 	mov	x2, x25
     5d4:	d2802001 	mov	x1, #0x100                 	// #256
     5d8:	8b130280 	add	x0, x20, x19
     5dc:	cb130021 	sub	x1, x1, x19
     5e0:	94000356 	bl	1338 <vsnprintk>
/home/nk/optee/optee_os/lib/libutils/ext/trace.c:157
     5e4:	7100001f 	cmp	w0, #0x0
     5e8:	5400004d 	b.le	5f0 <trace_vprintf+0x150>
/home/nk/optee/optee_os/lib/libutils/ext/trace.c:158
     5ec:	8b20c273 	add	x19, x19, w0, sxtw
/home/nk/optee/optee_os/lib/libutils/ext/trace.c:160
     5f0:	f103fa7f 	cmp	x19, #0xfe
     5f4:	d2801fc0 	mov	x0, #0xfe                  	// #254
     5f8:	9a809273 	csel	x19, x19, x0, ls  // ls = plast
/home/nk/optee/optee_os/lib/libutils/ext/trace.c:163
     5fc:	52800140 	mov	w0, #0xa                   	// #10
     600:	38336a80 	strb	w0, [x20, x19]
/home/nk/optee/optee_os/lib/libutils/ext/trace.c:164
     604:	b4000093 	cbz	x19, 614 <trace_vprintf+0x174>
/home/nk/optee/optee_os/lib/libutils/ext/trace.c:164 (discriminator 1)
     608:	38736a80 	ldrb	w0, [x20, x19]
     60c:	7100281f 	cmp	w0, #0xa
     610:	540003c0 	b.eq	688 <trace_vprintf+0x1e8>  // b.none
/home/nk/optee/optee_os/lib/libutils/ext/trace.c:167
     614:	91020be0 	add	x0, sp, #0x82
     618:	3833681f 	strb	wzr, [x0, x19]
/home/nk/optee/optee_os/lib/libutils/ext/trace.c:169
     61c:	aa1403e0 	mov	x0, x20
     620:	9400038a 	bl	1448 <trace_ext_puts>
/home/nk/optee/optee_os/lib/libutils/ext/trace.c:170
     624:	a94153f3 	ldp	x19, x20, [sp, #16]
     628:	a9425bf5 	ldp	x21, x22, [sp, #32]
     62c:	a94363f7 	ldp	x23, x24, [sp, #48]
     630:	a9446bf9 	ldp	x25, x26, [sp, #64]
     634:	f9402bfb 	ldr	x27, [sp, #80]
     638:	a8d87bfd 	ldp	x29, x30, [sp], #384
     63c:	d65f03c0 	ret
trace_level_to_string():
/home/nk/optee/optee_os/lib/libutils/ext/trace.c:50
     640:	528009a3 	mov	w3, #0x4d                  	// #77
     644:	17ffffaa 	b	4ec <trace_vprintf+0x4c>
print_thread_id():
/home/nk/optee/optee_os/lib/libutils/ext/trace.c:70
     648:	90000064 	adrp	x4, c000 <HEXDIGITS+0x62>
     64c:	52800023 	mov	w3, #0x1                   	// #1
     650:	9119c884 	add	x4, x4, #0x672
     654:	f0000042 	adrp	x2, b000 <__text_end+0x15f0>
     658:	aa1303e1 	mov	x1, x19
     65c:	913e0442 	add	x2, x2, #0xf81
     660:	aa1703e0 	mov	x0, x23
     664:	9400034a 	bl	138c <snprintk>
     668:	17ffffc7 	b	584 <trace_vprintf+0xe4>
trace_vprintf():
/home/nk/optee/optee_os/lib/libutils/ext/trace.c:150
     66c:	f103fabf 	cmp	x21, #0xfe
     670:	54fffda8 	b.hi	624 <trace_vprintf+0x184>  // b.pmore
/home/nk/optee/optee_os/lib/libutils/ext/trace.c:152
     674:	910006b3 	add	x19, x21, #0x1
     678:	52800400 	mov	w0, #0x20                  	// #32
     67c:	38356a80 	strb	w0, [x20, x21]
/home/nk/optee/optee_os/lib/libutils/ext/trace.c:153
     680:	38336a9f 	strb	wzr, [x20, x19]
     684:	17ffffcd 	b	5b8 <trace_vprintf+0x118>
/home/nk/optee/optee_os/lib/libutils/ext/trace.c:165
     688:	d1000673 	sub	x19, x19, #0x1
     68c:	17ffffde 	b	604 <trace_vprintf+0x164>

0000000000000690 <trace_printf>:
trace_printf():
/home/nk/optee/optee_os/lib/libutils/ext/trace.c:97
     690:	a9b17bfd 	stp	x29, x30, [sp, #-240]!
     694:	910003fd 	mov	x29, sp
     698:	a90d9be5 	stp	x5, x6, [sp, #216]
/home/nk/optee/optee_os/lib/libutils/ext/trace.c:100
     69c:	9103c3e5 	add	x5, sp, #0xf0
     6a0:	a90317e5 	stp	x5, x5, [sp, #48]
     6a4:	910343e5 	add	x5, sp, #0xd0
     6a8:	f90023e5 	str	x5, [sp, #64]
     6ac:	128002e5 	mov	w5, #0xffffffe8            	// #-24
     6b0:	b9004be5 	str	w5, [sp, #72]
     6b4:	12800fe5 	mov	w5, #0xffffff80            	// #-128
     6b8:	b9004fe5 	str	w5, [sp, #76]
/home/nk/optee/optee_os/lib/libutils/ext/trace.c:101
     6bc:	910043e5 	add	x5, sp, #0x10
/home/nk/optee/optee_os/lib/libutils/ext/trace.c:97
     6c0:	f90077e7 	str	x7, [sp, #232]
/home/nk/optee/optee_os/lib/libutils/ext/trace.c:101
     6c4:	a9431fe6 	ldp	x6, x7, [sp, #48]
     6c8:	a9011fe6 	stp	x6, x7, [sp, #16]
     6cc:	a9441fe6 	ldp	x6, x7, [sp, #64]
     6d0:	a9021fe6 	stp	x6, x7, [sp, #32]
/home/nk/optee/optee_os/lib/libutils/ext/trace.c:97
     6d4:	3d8017e0 	str	q0, [sp, #80]
     6d8:	3d801be1 	str	q1, [sp, #96]
     6dc:	3d801fe2 	str	q2, [sp, #112]
     6e0:	3d8023e3 	str	q3, [sp, #128]
     6e4:	3d8027e4 	str	q4, [sp, #144]
     6e8:	3d802be5 	str	q5, [sp, #160]
     6ec:	3d802fe6 	str	q6, [sp, #176]
     6f0:	3d8033e7 	str	q7, [sp, #192]
/home/nk/optee/optee_os/lib/libutils/ext/trace.c:101
     6f4:	97ffff6b 	bl	4a0 <trace_vprintf>
/home/nk/optee/optee_os/lib/libutils/ext/trace.c:103
     6f8:	a8cf7bfd 	ldp	x29, x30, [sp], #240
     6fc:	d65f03c0 	ret

0000000000000700 <dhex_dump>:
dhex_dump():
/home/nk/optee/optee_os/lib/libutils/ext/trace.c:280
     700:	d65f03c0 	ret

0000000000000704 <__vsnprintf>:
__vsnprintf():
/home/nk/optee/optee_os/lib/libutils/ext/snprintk.c:137
     704:	d10403ff 	sub	sp, sp, #0x100
     708:	aa0203e9 	mov	x9, x2
kprintf():
/home/nk/optee/optee_os/lib/libutils/ext/snprintk.c:537
     70c:	910363ed 	add	x13, sp, #0xd8
__vsnprintf():
/home/nk/optee/optee_os/lib/libutils/ext/snprintk.c:137
     710:	a9037bfd 	stp	x29, x30, [sp, #48]
     714:	9100c3fd 	add	x29, sp, #0x30
     718:	a90987e0 	stp	x0, x1, [sp, #152]
     71c:	12001c80 	and	w0, w4, #0xff
     720:	a90453f3 	stp	x19, x20, [sp, #64]
     724:	b9401874 	ldr	w20, [x3, #24]
     728:	a90873fb 	stp	x27, x28, [sp, #128]
     72c:	b900afe0 	str	w0, [sp, #172]
     730:	a9407073 	ldp	x19, x28, [x3]
     734:	a9076bf9 	stp	x25, x26, [sp, #112]
kprintf():
/home/nk/optee/optee_os/lib/libutils/ext/snprintk.c:267
     738:	5280001a 	mov	w26, #0x0                   	// #0
__vsnprintf():
/home/nk/optee/optee_os/lib/libutils/ext/snprintk.c:141
     73c:	f9404fe0 	ldr	x0, [sp, #152]
/home/nk/optee/optee_os/lib/libutils/ext/snprintk.c:137
     740:	a9055bf5 	stp	x21, x22, [sp, #80]
kprintf():
/home/nk/optee/optee_os/lib/libutils/ext/snprintk.c:269
     744:	d2800016 	mov	x22, #0x0                   	// #0
__vsnprintf():
/home/nk/optee/optee_os/lib/libutils/ext/snprintk.c:141
     748:	8b010019 	add	x25, x0, x1
     74c:	aa0003fb 	mov	x27, x0
/home/nk/optee/optee_os/lib/libutils/ext/snprintk.c:137
     750:	a90663f7 	stp	x23, x24, [sp, #96]
kprintf():
/home/nk/optee/optee_os/lib/libutils/ext/snprintk.c:275
     754:	39400120 	ldrb	w0, [x9]
     758:	7100941f 	cmp	w0, #0x25
     75c:	7a401804 	ccmp	w0, #0x0, #0x4, ne  // ne = any
     760:	540003c1 	b.ne	7d8 <__vsnprintf+0xd4>  // b.any
/home/nk/optee/optee_os/lib/libutils/ext/snprintk.c:279
     764:	34005be0 	cbz	w0, 12e0 <__vsnprintf+0xbdc>
/home/nk/optee/optee_os/lib/libutils/ext/snprintk.c:287
     768:	12800003 	mov	w3, #0xffffffff            	// #-1
/home/nk/optee/optee_os/lib/libutils/ext/snprintk.c:282
     76c:	91000529 	add	x9, x9, #0x1
     770:	2a1403e1 	mov	w1, w20
     774:	aa1303e0 	mov	x0, x19
/home/nk/optee/optee_os/lib/libutils/ext/snprintk.c:324
     778:	2a0303e6 	mov	w6, w3
/home/nk/optee/optee_os/lib/libutils/ext/snprintk.c:288
     77c:	52800002 	mov	w2, #0x0                   	// #0
/home/nk/optee/optee_os/lib/libutils/ext/snprintk.c:286
     780:	52800017 	mov	w23, #0x0                   	// #0
/home/nk/optee/optee_os/lib/libutils/ext/snprintk.c:284
     784:	52800015 	mov	w21, #0x0                   	// #0
/home/nk/optee/optee_os/lib/libutils/ext/snprintk.c:299
     788:	52800407 	mov	w7, #0x20                  	// #32
/home/nk/optee/optee_os/lib/libutils/ext/snprintk.c:290
     78c:	38401538 	ldrb	w24, [x9], #1
/home/nk/optee/optee_os/lib/libutils/ext/snprintk.c:291
     790:	71018f1f 	cmp	w24, #0x63
     794:	540019e0 	b.eq	ad0 <__vsnprintf+0x3cc>  // b.none
     798:	540007ec 	b.gt	894 <__vsnprintf+0x190>
     79c:	7100c31f 	cmp	w24, #0x30
     7a0:	540017c0 	b.eq	a98 <__vsnprintf+0x394>  // b.none
     7a4:	5400038c 	b.gt	814 <__vsnprintf+0x110>
     7a8:	7100ab1f 	cmp	w24, #0x2a
     7ac:	54001100 	b.eq	9cc <__vsnprintf+0x2c8>  // b.none
     7b0:	5400022c 	b.gt	7f4 <__vsnprintf+0xf0>
     7b4:	7100831f 	cmp	w24, #0x20
     7b8:	54001000 	b.eq	9b8 <__vsnprintf+0x2b4>  // b.none
     7bc:	71008f1f 	cmp	w24, #0x23
     7c0:	54001020 	b.eq	9c4 <__vsnprintf+0x2c0>  // b.none
/home/nk/optee/optee_os/lib/libutils/ext/snprintk.c:541
     7c4:	340058f8 	cbz	w24, 12e0 <__vsnprintf+0xbdc>
/home/nk/optee/optee_os/lib/libutils/ext/snprintk.c:545
     7c8:	2a0103f4 	mov	w20, w1
     7cc:	aa0003f3 	mov	x19, x0
     7d0:	390363f8 	strb	w24, [sp, #216]
/home/nk/optee/optee_os/lib/libutils/ext/snprintk.c:548
     7d4:	140000c5 	b	ae8 <__vsnprintf+0x3e4>
/home/nk/optee/optee_os/lib/libutils/ext/snprintk.c:276
     7d8:	1100075a 	add	w26, w26, #0x1
/home/nk/optee/optee_os/lib/libutils/ext/snprintk.c:277
     7dc:	b400009b 	cbz	x27, 7ec <__vsnprintf+0xe8>
     7e0:	eb1b033f 	cmp	x25, x27
     7e4:	54000049 	b.ls	7ec <__vsnprintf+0xe8>  // b.plast
     7e8:	38001760 	strb	w0, [x27], #1
/home/nk/optee/optee_os/lib/libutils/ext/snprintk.c:275
     7ec:	91000529 	add	x9, x9, #0x1
     7f0:	17ffffd9 	b	754 <__vsnprintf+0x50>
/home/nk/optee/optee_os/lib/libutils/ext/snprintk.c:291
     7f4:	7100b71f 	cmp	w24, #0x2d
     7f8:	54000f80 	b.eq	9e8 <__vsnprintf+0x2e4>  // b.none
     7fc:	7100bb1f 	cmp	w24, #0x2e
     800:	540010e0 	b.eq	a1c <__vsnprintf+0x318>  // b.none
     804:	7100af1f 	cmp	w24, #0x2b
     808:	54fffde1 	b.ne	7c4 <__vsnprintf+0xc0>  // b.any
/home/nk/optee/optee_os/lib/libutils/ext/snprintk.c:319
     80c:	2a1803e2 	mov	w2, w24
     810:	17ffffdf 	b	78c <__vsnprintf+0x88>
/home/nk/optee/optee_os/lib/libutils/ext/snprintk.c:291
     814:	7101131f 	cmp	w24, #0x44
     818:	54001840 	b.eq	b20 <__vsnprintf+0x41c>  // b.none
     81c:	5400018c 	b.gt	84c <__vsnprintf+0x148>
     820:	7100e71f 	cmp	w24, #0x39
     824:	54fffd0c 	b.gt	7c4 <__vsnprintf+0xc0>
/home/nk/optee/optee_os/lib/libutils/ext/snprintk.c:344
     828:	52800017 	mov	w23, #0x0                   	// #0
/home/nk/optee/optee_os/lib/libutils/ext/snprintk.c:346
     82c:	5100c308 	sub	w8, w24, #0x30
     830:	52800144 	mov	w4, #0xa                   	// #10
/home/nk/optee/optee_os/lib/libutils/ext/snprintk.c:347
     834:	38401538 	ldrb	w24, [x9], #1
/home/nk/optee/optee_os/lib/libutils/ext/snprintk.c:346
     838:	1b0422f7 	madd	w23, w23, w4, w8
/home/nk/optee/optee_os/lib/libutils/ext/snprintk.c:348
     83c:	5100c304 	sub	w4, w24, #0x30
     840:	7100249f 	cmp	w4, #0x9
     844:	54ffff49 	b.ls	82c <__vsnprintf+0x128>  // b.plast
     848:	17ffffd2 	b	790 <__vsnprintf+0x8c>
/home/nk/optee/optee_os/lib/libutils/ext/snprintk.c:291
     84c:	7101571f 	cmp	w24, #0x55
     850:	54003e20 	b.eq	1014 <__vsnprintf+0x910>  // b.none
     854:	7101631f 	cmp	w24, #0x58
     858:	540043a0 	b.eq	10cc <__vsnprintf+0x9c8>  // b.none
     85c:	71013f1f 	cmp	w24, #0x4f
     860:	54fffb21 	b.ne	7c4 <__vsnprintf+0xc0>  // b.any
/home/nk/optee/optee_os/lib/libutils/ext/snprintk.c:408
     864:	321c02b5 	orr	w21, w21, #0x10
/home/nk/optee/optee_os/lib/libutils/ext/snprintk.c:411
     868:	36382675 	tbz	w21, #7, d34 <__vsnprintf+0x630>
     86c:	37f827a1 	tbnz	w1, #31, d60 <__vsnprintf+0x65c>
     870:	91003c13 	add	x19, x0, #0xf
     874:	2a0103f4 	mov	w20, w1
     878:	927df273 	and	x19, x19, #0xfffffffffffffff8
     87c:	f9400000 	ldr	x0, [x0]
/home/nk/optee/optee_os/lib/libutils/ext/snprintk.c:488
     880:	52800002 	mov	w2, #0x0                   	// #0
     884:	3100047f 	cmn	w3, #0x1
     888:	540016e0 	b.eq	b64 <__vsnprintf+0x460>  // b.none
     88c:	52800001 	mov	w1, #0x0                   	// #0
     890:	1400024e 	b	11c8 <__vsnprintf+0xac4>
/home/nk/optee/optee_os/lib/libutils/ext/snprintk.c:291
     894:	7101bf1f 	cmp	w24, #0x6f
     898:	54fffe80 	b.eq	868 <__vsnprintf+0x164>  // b.none
     89c:	5400024c 	b.gt	8e4 <__vsnprintf+0x1e0>
     8a0:	7101a71f 	cmp	w24, #0x69
     8a4:	54001400 	b.eq	b24 <__vsnprintf+0x420>  // b.none
     8a8:	540000ec 	b.gt	8c4 <__vsnprintf+0x1c0>
     8ac:	7101931f 	cmp	w24, #0x64
     8b0:	540013a0 	b.eq	b24 <__vsnprintf+0x420>  // b.none
     8b4:	7101a31f 	cmp	w24, #0x68
     8b8:	54fff861 	b.ne	7c4 <__vsnprintf+0xc0>  // b.any
/home/nk/optee/optee_os/lib/libutils/ext/snprintk.c:352
     8bc:	321a02b5 	orr	w21, w21, #0x40
/home/nk/optee/optee_os/lib/libutils/ext/snprintk.c:353
     8c0:	17ffffb3 	b	78c <__vsnprintf+0x88>
/home/nk/optee/optee_os/lib/libutils/ext/snprintk.c:291
     8c4:	7101b31f 	cmp	w24, #0x6c
     8c8:	54000ec0 	b.eq	aa0 <__vsnprintf+0x39c>  // b.none
     8cc:	7101bb1f 	cmp	w24, #0x6e
     8d0:	54001c40 	b.eq	c58 <__vsnprintf+0x554>  // b.none
     8d4:	7101ab1f 	cmp	w24, #0x6a
     8d8:	54fff761 	b.ne	7c4 <__vsnprintf+0xc0>  // b.any
/home/nk/optee/optee_os/lib/libutils/ext/snprintk.c:355
     8dc:	321902b5 	orr	w21, w21, #0x80
/home/nk/optee/optee_os/lib/libutils/ext/snprintk.c:356
     8e0:	17ffffab 	b	78c <__vsnprintf+0x88>
/home/nk/optee/optee_os/lib/libutils/ext/snprintk.c:291
     8e4:	7101d31f 	cmp	w24, #0x74
     8e8:	54000ec0 	b.eq	ac0 <__vsnprintf+0x3bc>  // b.none
     8ec:	5400042c 	b.gt	970 <__vsnprintf+0x26c>
     8f0:	7101c71f 	cmp	w24, #0x71
     8f4:	54000de0 	b.eq	ab0 <__vsnprintf+0x3ac>  // b.none
     8f8:	5400276b 	b.lt	de4 <__vsnprintf+0x6e0>  // b.tstop
     8fc:	7101cf1f 	cmp	w24, #0x73
     900:	54fff621 	b.ne	7c4 <__vsnprintf+0xc0>  // b.any
/home/nk/optee/optee_os/lib/libutils/ext/snprintk.c:442
     904:	37f83621 	tbnz	w1, #31, fc8 <__vsnprintf+0x8c4>
     908:	91003c13 	add	x19, x0, #0xf
     90c:	2a0103f4 	mov	w20, w1
     910:	927df273 	and	x19, x19, #0xfffffffffffffff8
     914:	f9400004 	ldr	x4, [x0]
     918:	b5000064 	cbnz	x4, 924 <__vsnprintf+0x220>
/home/nk/optee/optee_os/lib/libutils/ext/snprintk.c:444
     91c:	f0000044 	adrp	x4, b000 <__text_end+0x15f0>
     920:	913ebc84 	add	x4, x4, #0xfaf
/home/nk/optee/optee_os/lib/libutils/ext/snprintk.c:445
     924:	3100047f 	cmn	w3, #0x1
     928:	54003620 	b.eq	fec <__vsnprintf+0x8e8>  // b.none
/home/nk/optee/optee_os/lib/libutils/ext/snprintk.c:451
     92c:	93407c62 	sxtw	x2, w3
     930:	aa0403e0 	mov	x0, x4
     934:	52800001 	mov	w1, #0x0                   	// #0
     938:	f9005be4 	str	x4, [sp, #176]
     93c:	b900bbe3 	str	w3, [sp, #184]
     940:	a90c37e9 	stp	x9, x13, [sp, #192]
     944:	940002af 	bl	1400 <memchr>
/home/nk/optee/optee_os/lib/libutils/ext/snprintk.c:453
     948:	b940bbe3 	ldr	w3, [sp, #184]
     94c:	f9405be4 	ldr	x4, [sp, #176]
     950:	a94c37e9 	ldp	x9, x13, [sp, #192]
     954:	b4000080 	cbz	x0, 964 <__vsnprintf+0x260>
/home/nk/optee/optee_os/lib/libutils/ext/snprintk.c:454
     958:	cb040000 	sub	x0, x0, x4
     95c:	6b00007f 	cmp	w3, w0
     960:	1a80d063 	csel	w3, w3, w0, le
/home/nk/optee/optee_os/lib/libutils/ext/snprintk.c:285
     964:	52800001 	mov	w1, #0x0                   	// #0
/home/nk/optee/optee_os/lib/libutils/ext/snprintk.c:461
     968:	52800002 	mov	w2, #0x0                   	// #0
     96c:	14000148 	b	e8c <__vsnprintf+0x788>
/home/nk/optee/optee_os/lib/libutils/ext/snprintk.c:291
     970:	7101e31f 	cmp	w24, #0x78
     974:	54003ca0 	b.eq	1108 <__vsnprintf+0xa04>  // b.none
     978:	7101eb1f 	cmp	w24, #0x7a
     97c:	54000a60 	b.eq	ac8 <__vsnprintf+0x3c4>  // b.none
     980:	7101d71f 	cmp	w24, #0x75
     984:	54fff201 	b.ne	7c4 <__vsnprintf+0xc0>  // b.any
/home/nk/optee/optee_os/lib/libutils/ext/snprintk.c:467
     988:	363834b5 	tbz	w21, #7, 101c <__vsnprintf+0x918>
     98c:	37f835e1 	tbnz	w1, #31, 1048 <__vsnprintf+0x944>
     990:	91003c13 	add	x19, x0, #0xf
     994:	2a0103f4 	mov	w20, w1
     998:	927df273 	and	x19, x19, #0xfffffffffffffff8
     99c:	f9400000 	ldr	x0, [x0]
/home/nk/optee/optee_os/lib/libutils/ext/snprintk.c:482
     9a0:	52800002 	mov	w2, #0x0                   	// #0
/home/nk/optee/optee_os/lib/libutils/ext/snprintk.c:488
     9a4:	3100047f 	cmn	w3, #0x1
     9a8:	540041e1 	b.ne	11e4 <__vsnprintf+0xae0>  // b.any
/home/nk/optee/optee_os/lib/libutils/ext/snprintk.c:508
     9ac:	910095a1 	add	x1, x13, #0x25
/home/nk/optee/optee_os/lib/libutils/ext/snprintk.c:517
     9b0:	d2800145 	mov	x5, #0xa                   	// #10
     9b4:	14000216 	b	120c <__vsnprintf+0xb08>
/home/nk/optee/optee_os/lib/libutils/ext/snprintk.c:299
     9b8:	7100005f 	cmp	w2, #0x0
     9bc:	1a871042 	csel	w2, w2, w7, ne  // ne = any
     9c0:	17ffff73 	b	78c <__vsnprintf+0x88>
/home/nk/optee/optee_os/lib/libutils/ext/snprintk.c:302
     9c4:	320002b5 	orr	w21, w21, #0x1
/home/nk/optee/optee_os/lib/libutils/ext/snprintk.c:303
     9c8:	17ffff71 	b	78c <__vsnprintf+0x88>
/home/nk/optee/optee_os/lib/libutils/ext/snprintk.c:311
     9cc:	37f80121 	tbnz	w1, #31, 9f0 <__vsnprintf+0x2ec>
     9d0:	91002c05 	add	x5, x0, #0xb
     9d4:	aa0003e4 	mov	x4, x0
     9d8:	927df0a0 	and	x0, x5, #0xfffffffffffffff8
     9dc:	b9400097 	ldr	w23, [x4]
     9e0:	36ffed77 	tbz	w23, #31, 78c <__vsnprintf+0x88>
/home/nk/optee/optee_os/lib/libutils/ext/snprintk.c:313
     9e4:	4b1703f7 	neg	w23, w23
/home/nk/optee/optee_os/lib/libutils/ext/snprintk.c:316
     9e8:	321e02b5 	orr	w21, w21, #0x4
/home/nk/optee/optee_os/lib/libutils/ext/snprintk.c:317
     9ec:	17ffff68 	b	78c <__vsnprintf+0x88>
/home/nk/optee/optee_os/lib/libutils/ext/snprintk.c:311
     9f0:	11002025 	add	w5, w1, #0x8
     9f4:	710000bf 	cmp	w5, #0x0
     9f8:	540000cd 	b.le	a10 <__vsnprintf+0x30c>
     9fc:	91002c08 	add	x8, x0, #0xb
     a00:	aa0003e4 	mov	x4, x0
     a04:	2a0503e1 	mov	w1, w5
     a08:	927df100 	and	x0, x8, #0xfffffffffffffff8
     a0c:	17fffff4 	b	9dc <__vsnprintf+0x2d8>
     a10:	8b21c384 	add	x4, x28, w1, sxtw
     a14:	2a0503e1 	mov	w1, w5
     a18:	17fffff1 	b	9dc <__vsnprintf+0x2d8>
/home/nk/optee/optee_os/lib/libutils/ext/snprintk.c:322
     a1c:	38401538 	ldrb	w24, [x9], #1
     a20:	7100ab1f 	cmp	w24, #0x2a
     a24:	54000361 	b.ne	a90 <__vsnprintf+0x38c>  // b.any
/home/nk/optee/optee_os/lib/libutils/ext/snprintk.c:323
     a28:	37f80141 	tbnz	w1, #31, a50 <__vsnprintf+0x34c>
     a2c:	91002c04 	add	x4, x0, #0xb
     a30:	2a0103e5 	mov	w5, w1
     a34:	927df084 	and	x4, x4, #0xfffffffffffffff8
/home/nk/optee/optee_os/lib/libutils/ext/snprintk.c:324
     a38:	b9400003 	ldr	w3, [x0]
     a3c:	2a0503e1 	mov	w1, w5
     a40:	aa0403e0 	mov	x0, x4
     a44:	7100007f 	cmp	w3, #0x0
     a48:	1a86a063 	csel	w3, w3, w6, ge  // ge = tcont
/home/nk/optee/optee_os/lib/libutils/ext/snprintk.c:325
     a4c:	17ffff50 	b	78c <__vsnprintf+0x88>
/home/nk/optee/optee_os/lib/libutils/ext/snprintk.c:323
     a50:	11002025 	add	w5, w1, #0x8
     a54:	710000bf 	cmp	w5, #0x0
     a58:	5400008d 	b.le	a68 <__vsnprintf+0x364>
     a5c:	91002c04 	add	x4, x0, #0xb
     a60:	927df084 	and	x4, x4, #0xfffffffffffffff8
     a64:	17fffff5 	b	a38 <__vsnprintf+0x334>
     a68:	aa0003e4 	mov	x4, x0
     a6c:	8b21c380 	add	x0, x28, w1, sxtw
     a70:	17fffff2 	b	a38 <__vsnprintf+0x334>
/home/nk/optee/optee_os/lib/libutils/ext/snprintk.c:329
     a74:	52800145 	mov	w5, #0xa                   	// #10
/home/nk/optee/optee_os/lib/libutils/ext/snprintk.c:330
     a78:	38401538 	ldrb	w24, [x9], #1
/home/nk/optee/optee_os/lib/libutils/ext/snprintk.c:329
     a7c:	1b051063 	madd	w3, w3, w5, w4
/home/nk/optee/optee_os/lib/libutils/ext/snprintk.c:328
     a80:	5100c304 	sub	w4, w24, #0x30
     a84:	7100249f 	cmp	w4, #0x9
     a88:	54ffff69 	b.ls	a74 <__vsnprintf+0x370>  // b.plast
     a8c:	17ffff41 	b	790 <__vsnprintf+0x8c>
/home/nk/optee/optee_os/lib/libutils/ext/snprintk.c:327
     a90:	52800003 	mov	w3, #0x0                   	// #0
     a94:	17fffffb 	b	a80 <__vsnprintf+0x37c>
/home/nk/optee/optee_os/lib/libutils/ext/snprintk.c:340
     a98:	321602b5 	orr	w21, w21, #0x400
/home/nk/optee/optee_os/lib/libutils/ext/snprintk.c:341
     a9c:	17ffff3c 	b	78c <__vsnprintf+0x88>
/home/nk/optee/optee_os/lib/libutils/ext/snprintk.c:358
     aa0:	39400124 	ldrb	w4, [x9]
     aa4:	7101b09f 	cmp	w4, #0x6c
     aa8:	54000081 	b.ne	ab8 <__vsnprintf+0x3b4>  // b.any
     aac:	91000529 	add	x9, x9, #0x1
/home/nk/optee/optee_os/lib/libutils/ext/snprintk.c:366
     ab0:	321b02b5 	orr	w21, w21, #0x20
/home/nk/optee/optee_os/lib/libutils/ext/snprintk.c:367
     ab4:	17ffff36 	b	78c <__vsnprintf+0x88>
/home/nk/optee/optee_os/lib/libutils/ext/snprintk.c:362
     ab8:	321c02b5 	orr	w21, w21, #0x10
     abc:	17ffff34 	b	78c <__vsnprintf+0x88>
/home/nk/optee/optee_os/lib/libutils/ext/snprintk.c:369
     ac0:	321802b5 	orr	w21, w21, #0x100
/home/nk/optee/optee_os/lib/libutils/ext/snprintk.c:370
     ac4:	17ffff32 	b	78c <__vsnprintf+0x88>
/home/nk/optee/optee_os/lib/libutils/ext/snprintk.c:372
     ac8:	321702b5 	orr	w21, w21, #0x200
/home/nk/optee/optee_os/lib/libutils/ext/snprintk.c:373
     acc:	17ffff30 	b	78c <__vsnprintf+0x88>
/home/nk/optee/optee_os/lib/libutils/ext/snprintk.c:375
     ad0:	37f80161 	tbnz	w1, #31, afc <__vsnprintf+0x3f8>
     ad4:	91002c13 	add	x19, x0, #0xb
     ad8:	2a0103f4 	mov	w20, w1
     adc:	927df273 	and	x19, x19, #0xfffffffffffffff8
     ae0:	b9400000 	ldr	w0, [x0]
     ae4:	390363e0 	strb	w0, [sp, #216]
/home/nk/optee/optee_os/lib/libutils/ext/snprintk.c:546
     ae8:	52800023 	mov	w3, #0x1                   	// #1
/home/nk/optee/optee_os/lib/libutils/ext/snprintk.c:285
     aec:	52800001 	mov	w1, #0x0                   	// #0
/home/nk/optee/optee_os/lib/libutils/ext/snprintk.c:547
     af0:	52800002 	mov	w2, #0x0                   	// #0
/home/nk/optee/optee_os/lib/libutils/ext/snprintk.c:544
     af4:	910363e4 	add	x4, sp, #0xd8
     af8:	140000e5 	b	e8c <__vsnprintf+0x788>
/home/nk/optee/optee_os/lib/libutils/ext/snprintk.c:375
     afc:	11002034 	add	w20, w1, #0x8
     b00:	7100029f 	cmp	w20, #0x0
     b04:	5400008d 	b.le	b14 <__vsnprintf+0x410>
     b08:	91002c13 	add	x19, x0, #0xb
     b0c:	927df273 	and	x19, x19, #0xfffffffffffffff8
     b10:	17fffff4 	b	ae0 <__vsnprintf+0x3dc>
     b14:	aa0003f3 	mov	x19, x0
     b18:	8b21c380 	add	x0, x28, w1, sxtw
     b1c:	17fffff1 	b	ae0 <__vsnprintf+0x3dc>
/home/nk/optee/optee_os/lib/libutils/ext/snprintk.c:380
     b20:	321c02b5 	orr	w21, w21, #0x10
/home/nk/optee/optee_os/lib/libutils/ext/snprintk.c:384
     b24:	36380435 	tbz	w21, #7, ba8 <__vsnprintf+0x4a4>
     b28:	37f80561 	tbnz	w1, #31, bd4 <__vsnprintf+0x4d0>
     b2c:	91003c13 	add	x19, x0, #0xf
     b30:	2a0103f4 	mov	w20, w1
     b34:	927df273 	and	x19, x19, #0xfffffffffffffff8
     b38:	f9400000 	ldr	x0, [x0]
/home/nk/optee/optee_os/lib/libutils/ext/snprintk.c:385
     b3c:	b6fff340 	tbz	x0, #63, 9a4 <__vsnprintf+0x2a0>
/home/nk/optee/optee_os/lib/libutils/ext/snprintk.c:386
     b40:	cb0003e0 	neg	x0, x0
/home/nk/optee/optee_os/lib/libutils/ext/snprintk.c:389
     b44:	52800021 	mov	w1, #0x1                   	// #1
/home/nk/optee/optee_os/lib/libutils/ext/snprintk.c:387
     b48:	528005a2 	mov	w2, #0x2d                  	// #45
/home/nk/optee/optee_os/lib/libutils/ext/snprintk.c:488
     b4c:	3100047f 	cmn	w3, #0x1
     b50:	540033c1 	b.ne	11c8 <__vsnprintf+0xac4>  // b.any
/home/nk/optee/optee_os/lib/libutils/ext/snprintk.c:503
     b54:	7100043f 	cmp	w1, #0x1
     b58:	54fff2a0 	b.eq	9ac <__vsnprintf+0x2a8>  // b.none
     b5c:	7100083f 	cmp	w1, #0x2
     b60:	54002140 	b.eq	f88 <__vsnprintf+0x884>  // b.none
/home/nk/optee/optee_os/lib/libutils/ext/snprintk.c:488
     b64:	910095a1 	add	x1, x13, #0x25
/home/nk/optee/optee_os/lib/libutils/ext/snprintk.c:506
     b68:	12000805 	and	w5, w0, #0x7
     b6c:	d1000424 	sub	x4, x1, #0x1
     b70:	1100c0a5 	add	w5, w5, #0x30
     b74:	381ff025 	sturb	w5, [x1, #-1]
/home/nk/optee/optee_os/lib/libutils/ext/snprintk.c:507
     b78:	d343fc00 	lsr	x0, x0, #3
/home/nk/optee/optee_os/lib/libutils/ext/snprintk.c:508
     b7c:	b5003380 	cbnz	x0, 11ec <__vsnprintf+0xae8>
/home/nk/optee/optee_os/lib/libutils/ext/snprintk.c:510
     b80:	360000d5 	tbz	w21, #0, b98 <__vsnprintf+0x494>
     b84:	7100c0bf 	cmp	w5, #0x30
     b88:	54000080 	b.eq	b98 <__vsnprintf+0x494>  // b.none
/home/nk/optee/optee_os/lib/libutils/ext/snprintk.c:511
     b8c:	52800600 	mov	w0, #0x30                  	// #48
     b90:	381ff080 	sturb	w0, [x4, #-1]
     b94:	d1000824 	sub	x4, x1, #0x2
/home/nk/optee/optee_os/lib/libutils/ext/snprintk.c:537
     b98:	910095a0 	add	x0, x13, #0x25
     b9c:	2a0303e1 	mov	w1, w3
     ba0:	4b040003 	sub	w3, w0, w4
     ba4:	140000ba 	b	e8c <__vsnprintf+0x788>
/home/nk/optee/optee_os/lib/libutils/ext/snprintk.c:384
     ba8:	3747fc15 	tbnz	w21, #8, b28 <__vsnprintf+0x424>
     bac:	374ffbf5 	tbnz	w21, #9, b28 <__vsnprintf+0x424>
     bb0:	372ffbd5 	tbnz	w21, #5, b28 <__vsnprintf+0x424>
     bb4:	3727fbb5 	tbnz	w21, #4, b28 <__vsnprintf+0x424>
     bb8:	36300335 	tbz	w21, #6, c1c <__vsnprintf+0x518>
     bbc:	37f801e1 	tbnz	w1, #31, bf8 <__vsnprintf+0x4f4>
     bc0:	91002c13 	add	x19, x0, #0xb
     bc4:	2a0103f4 	mov	w20, w1
     bc8:	927df273 	and	x19, x19, #0xfffffffffffffff8
     bcc:	79800000 	ldrsh	x0, [x0]
     bd0:	17ffffdb 	b	b3c <__vsnprintf+0x438>
     bd4:	11002034 	add	w20, w1, #0x8
     bd8:	7100029f 	cmp	w20, #0x0
     bdc:	5400008d 	b.le	bec <__vsnprintf+0x4e8>
     be0:	91003c13 	add	x19, x0, #0xf
     be4:	927df273 	and	x19, x19, #0xfffffffffffffff8
     be8:	17ffffd4 	b	b38 <__vsnprintf+0x434>
     bec:	aa0003f3 	mov	x19, x0
     bf0:	8b21c380 	add	x0, x28, w1, sxtw
     bf4:	17ffffd1 	b	b38 <__vsnprintf+0x434>
     bf8:	11002034 	add	w20, w1, #0x8
     bfc:	7100029f 	cmp	w20, #0x0
     c00:	5400008d 	b.le	c10 <__vsnprintf+0x50c>
     c04:	91002c13 	add	x19, x0, #0xb
     c08:	927df273 	and	x19, x19, #0xfffffffffffffff8
     c0c:	17fffff0 	b	bcc <__vsnprintf+0x4c8>
     c10:	aa0003f3 	mov	x19, x0
     c14:	8b21c380 	add	x0, x28, w1, sxtw
     c18:	17ffffed 	b	bcc <__vsnprintf+0x4c8>
     c1c:	37f800c1 	tbnz	w1, #31, c34 <__vsnprintf+0x530>
     c20:	91002c13 	add	x19, x0, #0xb
     c24:	2a0103f4 	mov	w20, w1
     c28:	927df273 	and	x19, x19, #0xfffffffffffffff8
     c2c:	b9800000 	ldrsw	x0, [x0]
     c30:	17ffffc3 	b	b3c <__vsnprintf+0x438>
     c34:	11002034 	add	w20, w1, #0x8
     c38:	7100029f 	cmp	w20, #0x0
     c3c:	5400008d 	b.le	c4c <__vsnprintf+0x548>
     c40:	91002c13 	add	x19, x0, #0xb
     c44:	927df273 	and	x19, x19, #0xfffffffffffffff8
     c48:	17fffff9 	b	c2c <__vsnprintf+0x528>
     c4c:	aa0003f3 	mov	x19, x0
     c50:	8b21c380 	add	x0, x28, w1, sxtw
     c54:	17fffff6 	b	c2c <__vsnprintf+0x528>
/home/nk/optee/optee_os/lib/libutils/ext/snprintk.c:392
     c58:	36380135 	tbz	w21, #7, c7c <__vsnprintf+0x578>
/home/nk/optee/optee_os/lib/libutils/ext/snprintk.c:401
     c5c:	37f80281 	tbnz	w1, #31, cac <__vsnprintf+0x5a8>
     c60:	91003c13 	add	x19, x0, #0xf
     c64:	2a0103f4 	mov	w20, w1
     c68:	927df273 	and	x19, x19, #0xfffffffffffffff8
     c6c:	f9400000 	ldr	x0, [x0]
     c70:	93407f41 	sxtw	x1, w26
     c74:	f9000001 	str	x1, [x0]
     c78:	17fffeb7 	b	754 <__vsnprintf+0x50>
/home/nk/optee/optee_os/lib/libutils/ext/snprintk.c:394
     c7c:	3747ff15 	tbnz	w21, #8, c5c <__vsnprintf+0x558>
/home/nk/optee/optee_os/lib/libutils/ext/snprintk.c:396
     c80:	374ffef5 	tbnz	w21, #9, c5c <__vsnprintf+0x558>
/home/nk/optee/optee_os/lib/libutils/ext/snprintk.c:398
     c84:	372ffed5 	tbnz	w21, #5, c5c <__vsnprintf+0x558>
/home/nk/optee/optee_os/lib/libutils/ext/snprintk.c:400
     c88:	3727feb5 	tbnz	w21, #4, c5c <__vsnprintf+0x558>
/home/nk/optee/optee_os/lib/libutils/ext/snprintk.c:402
     c8c:	36300355 	tbz	w21, #6, cf4 <__vsnprintf+0x5f0>
/home/nk/optee/optee_os/lib/libutils/ext/snprintk.c:403
     c90:	37f80201 	tbnz	w1, #31, cd0 <__vsnprintf+0x5cc>
     c94:	91003c13 	add	x19, x0, #0xf
     c98:	2a0103f4 	mov	w20, w1
     c9c:	927df273 	and	x19, x19, #0xfffffffffffffff8
     ca0:	f9400000 	ldr	x0, [x0]
     ca4:	7900001a 	strh	w26, [x0]
     ca8:	17fffeab 	b	754 <__vsnprintf+0x50>
/home/nk/optee/optee_os/lib/libutils/ext/snprintk.c:401
     cac:	11002034 	add	w20, w1, #0x8
     cb0:	7100029f 	cmp	w20, #0x0
     cb4:	5400008d 	b.le	cc4 <__vsnprintf+0x5c0>
     cb8:	91003c13 	add	x19, x0, #0xf
     cbc:	927df273 	and	x19, x19, #0xfffffffffffffff8
     cc0:	17ffffeb 	b	c6c <__vsnprintf+0x568>
     cc4:	aa0003f3 	mov	x19, x0
     cc8:	8b21c380 	add	x0, x28, w1, sxtw
     ccc:	17ffffe8 	b	c6c <__vsnprintf+0x568>
/home/nk/optee/optee_os/lib/libutils/ext/snprintk.c:403
     cd0:	11002034 	add	w20, w1, #0x8
     cd4:	7100029f 	cmp	w20, #0x0
     cd8:	5400008d 	b.le	ce8 <__vsnprintf+0x5e4>
     cdc:	91003c13 	add	x19, x0, #0xf
     ce0:	927df273 	and	x19, x19, #0xfffffffffffffff8
     ce4:	17ffffef 	b	ca0 <__vsnprintf+0x59c>
     ce8:	aa0003f3 	mov	x19, x0
     cec:	8b21c380 	add	x0, x28, w1, sxtw
     cf0:	17ffffec 	b	ca0 <__vsnprintf+0x59c>
/home/nk/optee/optee_os/lib/libutils/ext/snprintk.c:405
     cf4:	37f800e1 	tbnz	w1, #31, d10 <__vsnprintf+0x60c>
     cf8:	91003c13 	add	x19, x0, #0xf
     cfc:	2a0103f4 	mov	w20, w1
     d00:	927df273 	and	x19, x19, #0xfffffffffffffff8
     d04:	f9400000 	ldr	x0, [x0]
     d08:	b900001a 	str	w26, [x0]
     d0c:	17fffe92 	b	754 <__vsnprintf+0x50>
     d10:	11002034 	add	w20, w1, #0x8
     d14:	7100029f 	cmp	w20, #0x0
     d18:	5400008d 	b.le	d28 <__vsnprintf+0x624>
     d1c:	91003c13 	add	x19, x0, #0xf
     d20:	927df273 	and	x19, x19, #0xfffffffffffffff8
     d24:	17fffff8 	b	d04 <__vsnprintf+0x600>
     d28:	aa0003f3 	mov	x19, x0
     d2c:	8b21c380 	add	x0, x28, w1, sxtw
     d30:	17fffff5 	b	d04 <__vsnprintf+0x600>
/home/nk/optee/optee_os/lib/libutils/ext/snprintk.c:411
     d34:	3747d9d5 	tbnz	w21, #8, 86c <__vsnprintf+0x168>
     d38:	374fd9b5 	tbnz	w21, #9, 86c <__vsnprintf+0x168>
     d3c:	372fd995 	tbnz	w21, #5, 86c <__vsnprintf+0x168>
     d40:	3727d975 	tbnz	w21, #4, 86c <__vsnprintf+0x168>
     d44:	36300335 	tbz	w21, #6, da8 <__vsnprintf+0x6a4>
     d48:	37f801e1 	tbnz	w1, #31, d84 <__vsnprintf+0x680>
     d4c:	91002c13 	add	x19, x0, #0xb
     d50:	2a0103f4 	mov	w20, w1
     d54:	927df273 	and	x19, x19, #0xfffffffffffffff8
     d58:	79400000 	ldrh	w0, [x0]
     d5c:	17fffec9 	b	880 <__vsnprintf+0x17c>
     d60:	11002034 	add	w20, w1, #0x8
     d64:	7100029f 	cmp	w20, #0x0
     d68:	5400008d 	b.le	d78 <__vsnprintf+0x674>
     d6c:	91003c13 	add	x19, x0, #0xf
     d70:	927df273 	and	x19, x19, #0xfffffffffffffff8
     d74:	17fffec2 	b	87c <__vsnprintf+0x178>
     d78:	aa0003f3 	mov	x19, x0
     d7c:	8b21c380 	add	x0, x28, w1, sxtw
     d80:	17fffebf 	b	87c <__vsnprintf+0x178>
     d84:	11002034 	add	w20, w1, #0x8
     d88:	7100029f 	cmp	w20, #0x0
     d8c:	5400008d 	b.le	d9c <__vsnprintf+0x698>
     d90:	91002c13 	add	x19, x0, #0xb
     d94:	927df273 	and	x19, x19, #0xfffffffffffffff8
     d98:	17fffff0 	b	d58 <__vsnprintf+0x654>
     d9c:	aa0003f3 	mov	x19, x0
     da0:	8b21c380 	add	x0, x28, w1, sxtw
     da4:	17ffffed 	b	d58 <__vsnprintf+0x654>
     da8:	37f800c1 	tbnz	w1, #31, dc0 <__vsnprintf+0x6bc>
     dac:	91002c13 	add	x19, x0, #0xb
     db0:	2a0103f4 	mov	w20, w1
     db4:	927df273 	and	x19, x19, #0xfffffffffffffff8
     db8:	b9400000 	ldr	w0, [x0]
     dbc:	17fffeb1 	b	880 <__vsnprintf+0x17c>
     dc0:	11002034 	add	w20, w1, #0x8
     dc4:	7100029f 	cmp	w20, #0x0
     dc8:	5400008d 	b.le	dd8 <__vsnprintf+0x6d4>
     dcc:	91002c13 	add	x19, x0, #0xb
     dd0:	927df273 	and	x19, x19, #0xfffffffffffffff8
     dd4:	17fffff9 	b	db8 <__vsnprintf+0x6b4>
     dd8:	aa0003f3 	mov	x19, x0
     ddc:	8b21c380 	add	x0, x28, w1, sxtw
     de0:	17fffff6 	b	db8 <__vsnprintf+0x6b4>
/home/nk/optee/optee_os/lib/libutils/ext/snprintk.c:415
     de4:	b940afe2 	ldr	w2, [sp, #172]
     de8:	34000b82 	cbz	w2, f58 <__vsnprintf+0x854>
     dec:	39400122 	ldrb	w2, [x9]
     df0:	7101545f 	cmp	w2, #0x55
     df4:	54000b21 	b.ne	f58 <__vsnprintf+0x854>  // b.any
     df8:	39400522 	ldrb	w2, [x9, #1]
     dfc:	7101b05f 	cmp	w2, #0x6c
     e00:	54000ac1 	b.ne	f58 <__vsnprintf+0x854>  // b.any
/home/nk/optee/optee_os/lib/libutils/ext/snprintk.c:420
     e04:	91000929 	add	x9, x9, #0x2
/home/nk/optee/optee_os/lib/libutils/ext/snprintk.c:421
     e08:	37f80961 	tbnz	w1, #31, f34 <__vsnprintf+0x830>
     e0c:	91003c13 	add	x19, x0, #0xf
     e10:	2a0103f4 	mov	w20, w1
     e14:	927df273 	and	x19, x19, #0xfffffffffffffff8
     e18:	f9400000 	ldr	x0, [x0]
uuid2str():
/home/nk/optee/optee_os/lib/libutils/ext/snprintk.c:223
     e1c:	f0000042 	adrp	x2, b000 <__text_end+0x15f0>
     e20:	913ed842 	add	x2, x2, #0xfb6
     e24:	a90b27ed 	stp	x13, x9, [sp, #176]
     e28:	39403c01 	ldrb	w1, [x0, #15]
     e2c:	79400804 	ldrh	w4, [x0, #4]
     e30:	39402407 	ldrb	w7, [x0, #9]
     e34:	39402006 	ldrb	w6, [x0, #8]
     e38:	79400c05 	ldrh	w5, [x0, #6]
     e3c:	b9002be1 	str	w1, [sp, #40]
     e40:	39403801 	ldrb	w1, [x0, #14]
     e44:	b90023e1 	str	w1, [sp, #32]
     e48:	39403401 	ldrb	w1, [x0, #13]
     e4c:	b9001be1 	str	w1, [sp, #24]
     e50:	39403001 	ldrb	w1, [x0, #12]
     e54:	b90013e1 	str	w1, [sp, #16]
     e58:	39402c01 	ldrb	w1, [x0, #11]
     e5c:	b9000be1 	str	w1, [sp, #8]
     e60:	39402801 	ldrb	w1, [x0, #10]
     e64:	b90003e1 	str	w1, [sp]
     e68:	d28004a1 	mov	x1, #0x25                  	// #37
     e6c:	b9400003 	ldr	w3, [x0]
     e70:	aa0d03e0 	mov	x0, x13
     e74:	94000146 	bl	138c <snprintk>
     e78:	2a0003e3 	mov	w3, w0
kprintf():
/home/nk/optee/optee_os/lib/libutils/ext/snprintk.c:425
     e7c:	a94b27ed 	ldp	x13, x9, [sp, #176]
/home/nk/optee/optee_os/lib/libutils/ext/snprintk.c:285
     e80:	52800001 	mov	w1, #0x0                   	// #0
/home/nk/optee/optee_os/lib/libutils/ext/snprintk.c:424
     e84:	52800002 	mov	w2, #0x0                   	// #0
/home/nk/optee/optee_os/lib/libutils/ext/snprintk.c:423
     e88:	aa0d03e4 	mov	x4, x13
/home/nk/optee/optee_os/lib/libutils/ext/snprintk.c:565
     e8c:	6b03003f 	cmp	w1, w3
     e90:	1a83a020 	csel	w0, w1, w3, ge  // ge = tcont
/home/nk/optee/optee_os/lib/libutils/ext/snprintk.c:566
     e94:	34001c82 	cbz	w2, 1224 <__vsnprintf+0xb20>
/home/nk/optee/optee_os/lib/libutils/ext/snprintk.c:567
     e98:	11000400 	add	w0, w0, #0x1
/home/nk/optee/optee_os/lib/libutils/ext/snprintk.c:572
     e9c:	6b17001f 	cmp	w0, w23
     ea0:	1a97a005 	csel	w5, w0, w23, ge  // ge = tcont
     ea4:	0b05035a 	add	w26, w26, w5
/home/nk/optee/optee_os/lib/libutils/ext/snprintk.c:575
     ea8:	52808085 	mov	w5, #0x404                 	// #1028
     eac:	6a0502a5 	ands	w5, w21, w5
     eb0:	540000a1 	b.ne	ec4 <__vsnprintf+0x7c0>  // b.any
/home/nk/optee/optee_os/lib/libutils/ext/snprintk.c:576
     eb4:	4b0002e6 	sub	w6, w23, w0
/home/nk/optee/optee_os/lib/libutils/ext/snprintk.c:578
     eb8:	52800407 	mov	w7, #0x20                  	// #32
/home/nk/optee/optee_os/lib/libutils/ext/snprintk.c:577
     ebc:	710000df 	cmp	w6, #0x0
     ec0:	54001b8c 	b.gt	1230 <__vsnprintf+0xb2c>
/home/nk/optee/optee_os/lib/libutils/ext/snprintk.c:582
     ec4:	34001ca2 	cbz	w2, 1258 <__vsnprintf+0xb54>
/home/nk/optee/optee_os/lib/libutils/ext/snprintk.c:583
     ec8:	b5001c1b 	cbnz	x27, 1248 <__vsnprintf+0xb44>
/home/nk/optee/optee_os/lib/libutils/ext/snprintk.c:586
     ecc:	d280001b 	mov	x27, #0x0                   	// #0
/home/nk/optee/optee_os/lib/libutils/ext/snprintk.c:590
     ed0:	711000bf 	cmp	w5, #0x400
     ed4:	540000a1 	b.ne	ee8 <__vsnprintf+0x7e4>  // b.any
/home/nk/optee/optee_os/lib/libutils/ext/snprintk.c:591
     ed8:	4b0002e2 	sub	w2, w23, w0
/home/nk/optee/optee_os/lib/libutils/ext/snprintk.c:593
     edc:	52800605 	mov	w5, #0x30                  	// #48
/home/nk/optee/optee_os/lib/libutils/ext/snprintk.c:592
     ee0:	7100005f 	cmp	w2, #0x0
     ee4:	54001d8c 	b.gt	1294 <__vsnprintf+0xb90>
/home/nk/optee/optee_os/lib/libutils/ext/snprintk.c:597
     ee8:	4b030021 	sub	w1, w1, w3
/home/nk/optee/optee_os/lib/libutils/ext/snprintk.c:599
     eec:	52800602 	mov	w2, #0x30                  	// #48
/home/nk/optee/optee_os/lib/libutils/ext/snprintk.c:598
     ef0:	7100003f 	cmp	w1, #0x0
     ef4:	54001dcc 	b.gt	12ac <__vsnprintf+0xba8>
     ef8:	2a0303e3 	mov	w3, w3
     efc:	d2800001 	mov	x1, #0x0                   	// #0
/home/nk/optee/optee_os/lib/libutils/ext/snprintk.c:602
     f00:	eb01007f 	cmp	x3, x1
     f04:	54001e01 	b.ne	12c4 <__vsnprintf+0xbc0>  // b.any
/home/nk/optee/optee_os/lib/libutils/ext/snprintk.c:605
     f08:	3617c275 	tbz	w21, #2, 754 <__vsnprintf+0x50>
/home/nk/optee/optee_os/lib/libutils/ext/snprintk.c:606
     f0c:	4b0002eb 	sub	w11, w23, w0
/home/nk/optee/optee_os/lib/libutils/ext/snprintk.c:608
     f10:	52800400 	mov	w0, #0x20                  	// #32
/home/nk/optee/optee_os/lib/libutils/ext/snprintk.c:607
     f14:	7100017f 	cmp	w11, #0x0
     f18:	54ffc1ed 	b.le	754 <__vsnprintf+0x50>
/home/nk/optee/optee_os/lib/libutils/ext/snprintk.c:608
     f1c:	b400009b 	cbz	x27, f2c <__vsnprintf+0x828>
     f20:	eb1b033f 	cmp	x25, x27
     f24:	54000049 	b.ls	f2c <__vsnprintf+0x828>  // b.plast
     f28:	38001760 	strb	w0, [x27], #1
     f2c:	5100056b 	sub	w11, w11, #0x1
     f30:	17fffff9 	b	f14 <__vsnprintf+0x810>
/home/nk/optee/optee_os/lib/libutils/ext/snprintk.c:421
     f34:	11002034 	add	w20, w1, #0x8
     f38:	7100029f 	cmp	w20, #0x0
     f3c:	5400008d 	b.le	f4c <__vsnprintf+0x848>
     f40:	91003c13 	add	x19, x0, #0xf
     f44:	927df273 	and	x19, x19, #0xfffffffffffffff8
     f48:	17ffffb4 	b	e18 <__vsnprintf+0x714>
     f4c:	aa0003f3 	mov	x19, x0
     f50:	8b21c380 	add	x0, x28, w1, sxtw
     f54:	17ffffb1 	b	e18 <__vsnprintf+0x714>
/home/nk/optee/optee_os/lib/libutils/ext/snprintk.c:435
     f58:	37f80261 	tbnz	w1, #31, fa4 <__vsnprintf+0x8a0>
     f5c:	91003c13 	add	x19, x0, #0xf
     f60:	2a0103f4 	mov	w20, w1
     f64:	927df273 	and	x19, x19, #0xfffffffffffffff8
     f68:	f9400000 	ldr	x0, [x0]
/home/nk/optee/optee_os/lib/libutils/ext/snprintk.c:437
     f6c:	f0000056 	adrp	x22, b000 <__text_end+0x15f0>
/home/nk/optee/optee_os/lib/libutils/ext/snprintk.c:438
     f70:	321f02b5 	orr	w21, w21, #0x2
/home/nk/optee/optee_os/lib/libutils/ext/snprintk.c:437
     f74:	913e36d6 	add	x22, x22, #0xf8d
/home/nk/optee/optee_os/lib/libutils/ext/snprintk.c:439
     f78:	52800f18 	mov	w24, #0x78                  	// #120
/home/nk/optee/optee_os/lib/libutils/ext/snprintk.c:488
     f7c:	52800002 	mov	w2, #0x0                   	// #0
     f80:	3100047f 	cmn	w3, #0x1
     f84:	54001201 	b.ne	11c4 <__vsnprintf+0xac0>  // b.any
     f88:	910095a4 	add	x4, x13, #0x25
/home/nk/optee/optee_os/lib/libutils/ext/snprintk.c:525
     f8c:	92400c01 	and	x1, x0, #0xf
/home/nk/optee/optee_os/lib/libutils/ext/snprintk.c:526
     f90:	d344fc00 	lsr	x0, x0, #4
/home/nk/optee/optee_os/lib/libutils/ext/snprintk.c:525
     f94:	38616ac1 	ldrb	w1, [x22, x1]
     f98:	381ffc81 	strb	w1, [x4, #-1]!
/home/nk/optee/optee_os/lib/libutils/ext/snprintk.c:527
     f9c:	b5ffff80 	cbnz	x0, f8c <__vsnprintf+0x888>
     fa0:	17fffefe 	b	b98 <__vsnprintf+0x494>
/home/nk/optee/optee_os/lib/libutils/ext/snprintk.c:435
     fa4:	11002034 	add	w20, w1, #0x8
     fa8:	7100029f 	cmp	w20, #0x0
     fac:	5400008d 	b.le	fbc <__vsnprintf+0x8b8>
     fb0:	91003c13 	add	x19, x0, #0xf
     fb4:	927df273 	and	x19, x19, #0xfffffffffffffff8
     fb8:	17ffffec 	b	f68 <__vsnprintf+0x864>
     fbc:	aa0003f3 	mov	x19, x0
     fc0:	8b21c380 	add	x0, x28, w1, sxtw
     fc4:	17ffffe9 	b	f68 <__vsnprintf+0x864>
/home/nk/optee/optee_os/lib/libutils/ext/snprintk.c:442
     fc8:	11002034 	add	w20, w1, #0x8
     fcc:	7100029f 	cmp	w20, #0x0
     fd0:	5400008d 	b.le	fe0 <__vsnprintf+0x8dc>
     fd4:	91003c13 	add	x19, x0, #0xf
     fd8:	927df273 	and	x19, x19, #0xfffffffffffffff8
     fdc:	17fffe4e 	b	914 <__vsnprintf+0x210>
     fe0:	aa0003f3 	mov	x19, x0
     fe4:	8b21c380 	add	x0, x28, w1, sxtw
     fe8:	17fffe4b 	b	914 <__vsnprintf+0x210>
/home/nk/optee/optee_os/lib/libutils/ext/snprintk.c:460
     fec:	aa0403e0 	mov	x0, x4
     ff0:	a90b27e4 	stp	x4, x9, [sp, #176]
     ff4:	f90063ed 	str	x13, [sp, #192]
     ff8:	9400010d 	bl	142c <strlen>
/home/nk/optee/optee_os/lib/libutils/ext/snprintk.c:285
     ffc:	52800001 	mov	w1, #0x0                   	// #0
/home/nk/optee/optee_os/lib/libutils/ext/snprintk.c:460
    1000:	2a0003e3 	mov	w3, w0
/home/nk/optee/optee_os/lib/libutils/ext/snprintk.c:461
    1004:	52800002 	mov	w2, #0x0                   	// #0
    1008:	a94b27e4 	ldp	x4, x9, [sp, #176]
    100c:	f94063ed 	ldr	x13, [sp, #192]
    1010:	17ffff9f 	b	e8c <__vsnprintf+0x788>
/home/nk/optee/optee_os/lib/libutils/ext/snprintk.c:464
    1014:	321c02b5 	orr	w21, w21, #0x10
    1018:	17fffe5c 	b	988 <__vsnprintf+0x284>
/home/nk/optee/optee_os/lib/libutils/ext/snprintk.c:467
    101c:	3747cb95 	tbnz	w21, #8, 98c <__vsnprintf+0x288>
    1020:	374fcb75 	tbnz	w21, #9, 98c <__vsnprintf+0x288>
    1024:	372fcb55 	tbnz	w21, #5, 98c <__vsnprintf+0x288>
    1028:	3727cb35 	tbnz	w21, #4, 98c <__vsnprintf+0x288>
    102c:	36300335 	tbz	w21, #6, 1090 <__vsnprintf+0x98c>
    1030:	37f801e1 	tbnz	w1, #31, 106c <__vsnprintf+0x968>
    1034:	91002c13 	add	x19, x0, #0xb
    1038:	2a0103f4 	mov	w20, w1
    103c:	927df273 	and	x19, x19, #0xfffffffffffffff8
    1040:	79400000 	ldrh	w0, [x0]
    1044:	17fffe57 	b	9a0 <__vsnprintf+0x29c>
    1048:	11002034 	add	w20, w1, #0x8
    104c:	7100029f 	cmp	w20, #0x0
    1050:	5400008d 	b.le	1060 <__vsnprintf+0x95c>
    1054:	91003c13 	add	x19, x0, #0xf
    1058:	927df273 	and	x19, x19, #0xfffffffffffffff8
    105c:	17fffe50 	b	99c <__vsnprintf+0x298>
    1060:	aa0003f3 	mov	x19, x0
    1064:	8b21c380 	add	x0, x28, w1, sxtw
    1068:	17fffe4d 	b	99c <__vsnprintf+0x298>
    106c:	11002034 	add	w20, w1, #0x8
    1070:	7100029f 	cmp	w20, #0x0
    1074:	5400008d 	b.le	1084 <__vsnprintf+0x980>
    1078:	91002c13 	add	x19, x0, #0xb
    107c:	927df273 	and	x19, x19, #0xfffffffffffffff8
    1080:	17fffff0 	b	1040 <__vsnprintf+0x93c>
    1084:	aa0003f3 	mov	x19, x0
    1088:	8b21c380 	add	x0, x28, w1, sxtw
    108c:	17ffffed 	b	1040 <__vsnprintf+0x93c>
    1090:	37f800c1 	tbnz	w1, #31, 10a8 <__vsnprintf+0x9a4>
    1094:	91002c13 	add	x19, x0, #0xb
    1098:	2a0103f4 	mov	w20, w1
    109c:	927df273 	and	x19, x19, #0xfffffffffffffff8
    10a0:	b9400000 	ldr	w0, [x0]
    10a4:	17fffe3f 	b	9a0 <__vsnprintf+0x29c>
    10a8:	11002034 	add	w20, w1, #0x8
    10ac:	7100029f 	cmp	w20, #0x0
    10b0:	5400008d 	b.le	10c0 <__vsnprintf+0x9bc>
    10b4:	91002c13 	add	x19, x0, #0xb
    10b8:	927df273 	and	x19, x19, #0xfffffffffffffff8
    10bc:	17fffff9 	b	10a0 <__vsnprintf+0x99c>
    10c0:	aa0003f3 	mov	x19, x0
    10c4:	8b21c380 	add	x0, x28, w1, sxtw
    10c8:	17fffff6 	b	10a0 <__vsnprintf+0x99c>
/home/nk/optee/optee_os/lib/libutils/ext/snprintk.c:471
    10cc:	d0000056 	adrp	x22, b000 <__text_end+0x15f0>
    10d0:	913e36d6 	add	x22, x22, #0xf8d
    10d4:	910046d6 	add	x22, x22, #0x11
/home/nk/optee/optee_os/lib/libutils/ext/snprintk.c:475
    10d8:	363801f5 	tbz	w21, #7, 1114 <__vsnprintf+0xa10>
    10dc:	37f80321 	tbnz	w1, #31, 1140 <__vsnprintf+0xa3c>
    10e0:	91003c13 	add	x19, x0, #0xf
    10e4:	2a0103f4 	mov	w20, w1
    10e8:	927df273 	and	x19, x19, #0xfffffffffffffff8
    10ec:	f9400000 	ldr	x0, [x0]
/home/nk/optee/optee_os/lib/libutils/ext/snprintk.c:478
    10f0:	3607f475 	tbz	w21, #0, f7c <__vsnprintf+0x878>
    10f4:	b4fff440 	cbz	x0, f7c <__vsnprintf+0x878>
/home/nk/optee/optee_os/lib/libutils/ext/snprintk.c:479
    10f8:	321f02b5 	orr	w21, w21, #0x2
/home/nk/optee/optee_os/lib/libutils/ext/snprintk.c:476
    10fc:	52800041 	mov	w1, #0x2                   	// #2
/home/nk/optee/optee_os/lib/libutils/ext/snprintk.c:482
    1100:	52800002 	mov	w2, #0x0                   	// #0
    1104:	17fffe92 	b	b4c <__vsnprintf+0x448>
/home/nk/optee/optee_os/lib/libutils/ext/snprintk.c:474
    1108:	d0000056 	adrp	x22, b000 <__text_end+0x15f0>
    110c:	913e36d6 	add	x22, x22, #0xf8d
    1110:	17fffff2 	b	10d8 <__vsnprintf+0x9d4>
/home/nk/optee/optee_os/lib/libutils/ext/snprintk.c:475
    1114:	3747fe55 	tbnz	w21, #8, 10dc <__vsnprintf+0x9d8>
    1118:	374ffe35 	tbnz	w21, #9, 10dc <__vsnprintf+0x9d8>
    111c:	372ffe15 	tbnz	w21, #5, 10dc <__vsnprintf+0x9d8>
    1120:	3727fdf5 	tbnz	w21, #4, 10dc <__vsnprintf+0x9d8>
    1124:	36300335 	tbz	w21, #6, 1188 <__vsnprintf+0xa84>
    1128:	37f801e1 	tbnz	w1, #31, 1164 <__vsnprintf+0xa60>
    112c:	91002c13 	add	x19, x0, #0xb
    1130:	2a0103f4 	mov	w20, w1
    1134:	927df273 	and	x19, x19, #0xfffffffffffffff8
    1138:	79400000 	ldrh	w0, [x0]
    113c:	17ffffed 	b	10f0 <__vsnprintf+0x9ec>
    1140:	11002034 	add	w20, w1, #0x8
    1144:	7100029f 	cmp	w20, #0x0
    1148:	5400008d 	b.le	1158 <__vsnprintf+0xa54>
    114c:	91003c13 	add	x19, x0, #0xf
    1150:	927df273 	and	x19, x19, #0xfffffffffffffff8
    1154:	17ffffe6 	b	10ec <__vsnprintf+0x9e8>
    1158:	aa0003f3 	mov	x19, x0
    115c:	8b21c380 	add	x0, x28, w1, sxtw
    1160:	17ffffe3 	b	10ec <__vsnprintf+0x9e8>
    1164:	11002034 	add	w20, w1, #0x8
    1168:	7100029f 	cmp	w20, #0x0
    116c:	5400008d 	b.le	117c <__vsnprintf+0xa78>
    1170:	91002c13 	add	x19, x0, #0xb
    1174:	927df273 	and	x19, x19, #0xfffffffffffffff8
    1178:	17fffff0 	b	1138 <__vsnprintf+0xa34>
    117c:	aa0003f3 	mov	x19, x0
    1180:	8b21c380 	add	x0, x28, w1, sxtw
    1184:	17ffffed 	b	1138 <__vsnprintf+0xa34>
    1188:	37f800c1 	tbnz	w1, #31, 11a0 <__vsnprintf+0xa9c>
    118c:	91002c13 	add	x19, x0, #0xb
    1190:	2a0103f4 	mov	w20, w1
    1194:	927df273 	and	x19, x19, #0xfffffffffffffff8
    1198:	b9400000 	ldr	w0, [x0]
    119c:	17ffffd5 	b	10f0 <__vsnprintf+0x9ec>
    11a0:	11002034 	add	w20, w1, #0x8
    11a4:	7100029f 	cmp	w20, #0x0
    11a8:	5400008d 	b.le	11b8 <__vsnprintf+0xab4>
    11ac:	91002c13 	add	x19, x0, #0xb
    11b0:	927df273 	and	x19, x19, #0xfffffffffffffff8
    11b4:	17fffff9 	b	1198 <__vsnprintf+0xa94>
    11b8:	aa0003f3 	mov	x19, x0
    11bc:	8b21c380 	add	x0, x28, w1, sxtw
    11c0:	17fffff6 	b	1198 <__vsnprintf+0xa94>
/home/nk/optee/optee_os/lib/libutils/ext/snprintk.c:488
    11c4:	52800041 	mov	w1, #0x2                   	// #2
/home/nk/optee/optee_os/lib/libutils/ext/snprintk.c:497
    11c8:	f100001f 	cmp	x0, #0x0
/home/nk/optee/optee_os/lib/libutils/ext/snprintk.c:489
    11cc:	12157ab5 	and	w21, w21, #0xfffffbff
/home/nk/optee/optee_os/lib/libutils/ext/snprintk.c:497
    11d0:	7a400860 	ccmp	w3, #0x0, #0x0, eq  // eq = none
    11d4:	54ffcc01 	b.ne	b54 <__vsnprintf+0x450>  // b.any
    11d8:	52800003 	mov	w3, #0x0                   	// #0
/home/nk/optee/optee_os/lib/libutils/ext/snprintk.c:496
    11dc:	910095a4 	add	x4, x13, #0x25
    11e0:	17fffe6e 	b	b98 <__vsnprintf+0x494>
/home/nk/optee/optee_os/lib/libutils/ext/snprintk.c:488
    11e4:	52800021 	mov	w1, #0x1                   	// #1
    11e8:	17fffff8 	b	11c8 <__vsnprintf+0xac4>
/home/nk/optee/optee_os/lib/libutils/ext/snprintk.c:508
    11ec:	aa0403e1 	mov	x1, x4
    11f0:	17fffe5e 	b	b68 <__vsnprintf+0x464>
/home/nk/optee/optee_os/lib/libutils/ext/snprintk.c:517
    11f4:	9ac50806 	udiv	x6, x0, x5
    11f8:	9b0580c0 	msub	x0, x6, x5, x0
    11fc:	1100c000 	add	w0, w0, #0x30
    1200:	381ff020 	sturb	w0, [x1, #-1]
/home/nk/optee/optee_os/lib/libutils/ext/snprintk.c:518
    1204:	aa0603e0 	mov	x0, x6
    1208:	aa0403e1 	mov	x1, x4
    120c:	d1000424 	sub	x4, x1, #0x1
/home/nk/optee/optee_os/lib/libutils/ext/snprintk.c:516
    1210:	f100241f 	cmp	x0, #0x9
    1214:	54ffff08 	b.hi	11f4 <__vsnprintf+0xaf0>  // b.pmore
/home/nk/optee/optee_os/lib/libutils/ext/snprintk.c:520
    1218:	1100c000 	add	w0, w0, #0x30
    121c:	381ff020 	sturb	w0, [x1, #-1]
/home/nk/optee/optee_os/lib/libutils/ext/snprintk.c:521
    1220:	17fffe5e 	b	b98 <__vsnprintf+0x494>
/home/nk/optee/optee_os/lib/libutils/ext/snprintk.c:568
    1224:	360fe3d5 	tbz	w21, #1, e9c <__vsnprintf+0x798>
/home/nk/optee/optee_os/lib/libutils/ext/snprintk.c:569
    1228:	11000800 	add	w0, w0, #0x2
    122c:	17ffff1c 	b	e9c <__vsnprintf+0x798>
/home/nk/optee/optee_os/lib/libutils/ext/snprintk.c:578
    1230:	b400009b 	cbz	x27, 1240 <__vsnprintf+0xb3c>
    1234:	eb1b033f 	cmp	x25, x27
    1238:	54000049 	b.ls	1240 <__vsnprintf+0xb3c>  // b.plast
    123c:	38001767 	strb	w7, [x27], #1
    1240:	510004c6 	sub	w6, w6, #0x1
    1244:	17ffff1e 	b	ebc <__vsnprintf+0x7b8>
/home/nk/optee/optee_os/lib/libutils/ext/snprintk.c:583
    1248:	eb1b033f 	cmp	x25, x27
    124c:	54ffe429 	b.ls	ed0 <__vsnprintf+0x7cc>  // b.plast
    1250:	38001762 	strb	w2, [x27], #1
    1254:	17ffff1f 	b	ed0 <__vsnprintf+0x7cc>
/home/nk/optee/optee_os/lib/libutils/ext/snprintk.c:584
    1258:	360fe3d5 	tbz	w21, #1, ed0 <__vsnprintf+0x7cc>
/home/nk/optee/optee_os/lib/libutils/ext/snprintk.c:585
    125c:	b4ffe39b 	cbz	x27, ecc <__vsnprintf+0x7c8>
    1260:	eb1b033f 	cmp	x25, x27
    1264:	54ffe369 	b.ls	ed0 <__vsnprintf+0x7cc>  // b.plast
    1268:	aa1b03e2 	mov	x2, x27
    126c:	52800606 	mov	w6, #0x30                  	// #48
    1270:	38001446 	strb	w6, [x2], #1
/home/nk/optee/optee_os/lib/libutils/ext/snprintk.c:586
    1274:	b4ffe2c2 	cbz	x2, ecc <__vsnprintf+0x7c8>
    1278:	eb02033f 	cmp	x25, x2
    127c:	54000089 	b.ls	128c <__vsnprintf+0xb88>  // b.plast
    1280:	91000b7b 	add	x27, x27, #0x2
    1284:	381ff378 	sturb	w24, [x27, #-1]
    1288:	17ffff12 	b	ed0 <__vsnprintf+0x7cc>
    128c:	aa0203fb 	mov	x27, x2
    1290:	17ffff10 	b	ed0 <__vsnprintf+0x7cc>
/home/nk/optee/optee_os/lib/libutils/ext/snprintk.c:593
    1294:	b400009b 	cbz	x27, 12a4 <__vsnprintf+0xba0>
    1298:	eb1b033f 	cmp	x25, x27
    129c:	54000049 	b.ls	12a4 <__vsnprintf+0xba0>  // b.plast
    12a0:	38001765 	strb	w5, [x27], #1
    12a4:	51000442 	sub	w2, w2, #0x1
    12a8:	17ffff0e 	b	ee0 <__vsnprintf+0x7dc>
/home/nk/optee/optee_os/lib/libutils/ext/snprintk.c:599
    12ac:	b400009b 	cbz	x27, 12bc <__vsnprintf+0xbb8>
    12b0:	eb1b033f 	cmp	x25, x27
    12b4:	54000049 	b.ls	12bc <__vsnprintf+0xbb8>  // b.plast
    12b8:	38001762 	strb	w2, [x27], #1
    12bc:	51000421 	sub	w1, w1, #0x1
    12c0:	17ffff0c 	b	ef0 <__vsnprintf+0x7ec>
/home/nk/optee/optee_os/lib/libutils/ext/snprintk.c:603
    12c4:	b40000bb 	cbz	x27, 12d8 <__vsnprintf+0xbd4>
    12c8:	eb1b033f 	cmp	x25, x27
    12cc:	54000069 	b.ls	12d8 <__vsnprintf+0xbd4>  // b.plast
    12d0:	38616882 	ldrb	w2, [x4, x1]
    12d4:	38001762 	strb	w2, [x27], #1
    12d8:	91000421 	add	x1, x1, #0x1
    12dc:	17ffff09 	b	f00 <__vsnprintf+0x7fc>
__vsnprintf():
/home/nk/optee/optee_os/lib/libutils/ext/snprintk.c:143
    12e0:	f9404fe0 	ldr	x0, [sp, #152]
    12e4:	f100001f 	cmp	x0, #0x0
    12e8:	f94053e0 	ldr	x0, [sp, #160]
    12ec:	fa401804 	ccmp	x0, #0x0, #0x4, ne  // ne = any
    12f0:	540000c0 	b.eq	1308 <__vsnprintf+0xc04>  // b.none
/home/nk/optee/optee_os/lib/libutils/ext/snprintk.c:145
    12f4:	f94053e1 	ldr	x1, [sp, #160]
    12f8:	93407f40 	sxtw	x0, w26
    12fc:	eb01001f 	cmp	x0, x1
    1300:	54000163 	b.cc	132c <__vsnprintf+0xc28>  // b.lo, b.ul, b.last
/home/nk/optee/optee_os/lib/libutils/ext/snprintk.c:146
    1304:	381ff33f 	sturb	wzr, [x25, #-1]
/home/nk/optee/optee_os/lib/libutils/ext/snprintk.c:151
    1308:	2a1a03e0 	mov	w0, w26
    130c:	a9437bfd 	ldp	x29, x30, [sp, #48]
    1310:	a94453f3 	ldp	x19, x20, [sp, #64]
    1314:	a9455bf5 	ldp	x21, x22, [sp, #80]
    1318:	a94663f7 	ldp	x23, x24, [sp, #96]
    131c:	a9476bf9 	ldp	x25, x26, [sp, #112]
    1320:	a94873fb 	ldp	x27, x28, [sp, #128]
    1324:	910403ff 	add	sp, sp, #0x100
    1328:	d65f03c0 	ret
/home/nk/optee/optee_os/lib/libutils/ext/snprintk.c:148
    132c:	f9404fe1 	ldr	x1, [sp, #152]
    1330:	3820683f 	strb	wzr, [x1, x0]
/home/nk/optee/optee_os/lib/libutils/ext/snprintk.c:150
    1334:	17fffff5 	b	1308 <__vsnprintf+0xc04>

0000000000001338 <vsnprintk>:
vsnprintk():
/home/nk/optee/optee_os/lib/libutils/ext/snprintk.c:129
    1338:	a9bb7bfd 	stp	x29, x30, [sp, #-80]!
    133c:	910003fd 	mov	x29, sp
    1340:	a90153f3 	stp	x19, x20, [sp, #16]
    1344:	aa0003f3 	mov	x19, x0
    1348:	aa0103f4 	mov	x20, x1
/home/nk/optee/optee_os/lib/libutils/ext/snprintk.c:130
    134c:	9100c3e0 	add	x0, sp, #0x30
    1350:	aa0303e1 	mov	x1, x3
/home/nk/optee/optee_os/lib/libutils/ext/snprintk.c:129
    1354:	f90013f5 	str	x21, [sp, #32]
    1358:	aa0203f5 	mov	x21, x2
/home/nk/optee/optee_os/lib/libutils/ext/snprintk.c:130
    135c:	d2800402 	mov	x2, #0x20                  	// #32
    1360:	97fffb30 	bl	20 <memcpy>
    1364:	aa1503e2 	mov	x2, x21
    1368:	aa0003e3 	mov	x3, x0
    136c:	aa1403e1 	mov	x1, x20
    1370:	52800024 	mov	w4, #0x1                   	// #1
    1374:	aa1303e0 	mov	x0, x19
    1378:	97fffce3 	bl	704 <__vsnprintf>
/home/nk/optee/optee_os/lib/libutils/ext/snprintk.c:131
    137c:	a94153f3 	ldp	x19, x20, [sp, #16]
    1380:	f94013f5 	ldr	x21, [sp, #32]
    1384:	a8c57bfd 	ldp	x29, x30, [sp], #80
    1388:	d65f03c0 	ret

000000000000138c <snprintk>:
snprintk():
/home/nk/optee/optee_os/lib/libutils/ext/snprintk.c:112
    138c:	a9b07bfd 	stp	x29, x30, [sp, #-256]!
    1390:	910003fd 	mov	x29, sp
    1394:	a90d93e3 	stp	x3, x4, [sp, #216]
/home/nk/optee/optee_os/lib/libutils/ext/snprintk.c:116
    1398:	910403e3 	add	x3, sp, #0x100
    139c:	a9030fe3 	stp	x3, x3, [sp, #48]
    13a0:	910343e3 	add	x3, sp, #0xd0
    13a4:	f90023e3 	str	x3, [sp, #64]
    13a8:	128004e3 	mov	w3, #0xffffffd8            	// #-40
    13ac:	b9004be3 	str	w3, [sp, #72]
    13b0:	12800fe3 	mov	w3, #0xffffff80            	// #-128
    13b4:	b9004fe3 	str	w3, [sp, #76]
/home/nk/optee/optee_os/lib/libutils/ext/snprintk.c:117
    13b8:	910043e3 	add	x3, sp, #0x10
/home/nk/optee/optee_os/lib/libutils/ext/snprintk.c:112
    13bc:	a90e9be5 	stp	x5, x6, [sp, #232]
/home/nk/optee/optee_os/lib/libutils/ext/snprintk.c:117
    13c0:	a94317e4 	ldp	x4, x5, [sp, #48]
    13c4:	a90117e4 	stp	x4, x5, [sp, #16]
    13c8:	a94417e4 	ldp	x4, x5, [sp, #64]
    13cc:	a90217e4 	stp	x4, x5, [sp, #32]
/home/nk/optee/optee_os/lib/libutils/ext/snprintk.c:112
    13d0:	3d8017e0 	str	q0, [sp, #80]
    13d4:	3d801be1 	str	q1, [sp, #96]
    13d8:	3d801fe2 	str	q2, [sp, #112]
    13dc:	3d8023e3 	str	q3, [sp, #128]
    13e0:	3d8027e4 	str	q4, [sp, #144]
    13e4:	3d802be5 	str	q5, [sp, #160]
    13e8:	3d802fe6 	str	q6, [sp, #176]
    13ec:	3d8033e7 	str	q7, [sp, #192]
    13f0:	f9007fe7 	str	x7, [sp, #248]
/home/nk/optee/optee_os/lib/libutils/ext/snprintk.c:117
    13f4:	97ffffd1 	bl	1338 <vsnprintk>
/home/nk/optee/optee_os/lib/libutils/ext/snprintk.c:121
    13f8:	a8d07bfd 	ldp	x29, x30, [sp], #256
    13fc:	d65f03c0 	ret

0000000000001400 <memchr>:
memchr():
/home/nk/optee/optee_os/lib/libutils/isoc/newlib/memchr.c:109
    1400:	12001c21 	and	w1, w1, #0xff
/home/nk/optee/optee_os/lib/libutils/isoc/newlib/memchr.c:153
    1404:	8b020002 	add	x2, x0, x2
    1408:	eb02001f 	cmp	x0, x2
    140c:	54000061 	b.ne	1418 <memchr+0x18>  // b.any
/home/nk/optee/optee_os/lib/libutils/isoc/newlib/memchr.c:159
    1410:	d2800000 	mov	x0, #0x0                   	// #0
/home/nk/optee/optee_os/lib/libutils/isoc/newlib/memchr.c:160
    1414:	d65f03c0 	ret
/home/nk/optee/optee_os/lib/libutils/isoc/newlib/memchr.c:154
    1418:	39400003 	ldrb	w3, [x0]
    141c:	6b01007f 	cmp	w3, w1
    1420:	54ffffa0 	b.eq	1414 <memchr+0x14>  // b.none
/home/nk/optee/optee_os/lib/libutils/isoc/newlib/memchr.c:156
    1424:	91000400 	add	x0, x0, #0x1
    1428:	17fffff8 	b	1408 <memchr+0x8>

000000000000142c <strlen>:
strlen():
/home/nk/optee/optee_os/lib/libutils/isoc/newlib/strlen.c:117
    142c:	aa0003e1 	mov	x1, x0
    1430:	39400022 	ldrb	w2, [x1]
    1434:	35000062 	cbnz	w2, 1440 <strlen+0x14>
/home/nk/optee/optee_os/lib/libutils/isoc/newlib/strlen.c:120
    1438:	cb000020 	sub	x0, x1, x0
    143c:	d65f03c0 	ret
/home/nk/optee/optee_os/lib/libutils/isoc/newlib/strlen.c:118
    1440:	91000421 	add	x1, x1, #0x1
    1444:	17fffffb 	b	1430 <strlen+0x4>

0000000000001448 <trace_ext_puts>:
trace_ext_puts():
/home/nk/optee/optee_os/lib/libutee/trace_ext.c:17
    1448:	a9be7bfd 	stp	x29, x30, [sp, #-32]!
    144c:	910003fd 	mov	x29, sp
    1450:	f9000bf3 	str	x19, [sp, #16]
    1454:	aa0003f3 	mov	x19, x0
/home/nk/optee/optee_os/lib/libutee/trace_ext.c:18
    1458:	97fffff5 	bl	142c <strlen>
    145c:	aa0003e1 	mov	x1, x0
    1460:	aa1303e0 	mov	x0, x19
/home/nk/optee/optee_os/lib/libutee/trace_ext.c:19
    1464:	f9400bf3 	ldr	x19, [sp, #16]
    1468:	a8c27bfd 	ldp	x29, x30, [sp], #32
/home/nk/optee/optee_os/lib/libutee/trace_ext.c:18
    146c:	140005be 	b	2b64 <_utee_log>

0000000000001470 <trace_ext_get_thread_id>:
trace_ext_get_thread_id():
/home/nk/optee/optee_os/lib/libutee/trace_ext.c:24
    1470:	12800000 	mov	w0, #0xffffffff            	// #-1
    1474:	d65f03c0 	ret

0000000000001478 <printf>:
printf():
/home/nk/optee/optee_os/lib/libutee/trace_ext.c:32
    1478:	d10883ff 	sub	sp, sp, #0x220
    147c:	a9007bfd 	stp	x29, x30, [sp]
    1480:	910003fd 	mov	x29, sp
    1484:	a90153f3 	stp	x19, x20, [sp, #16]
    1488:	aa0003f3 	mov	x19, x0
    148c:	3d805be0 	str	q0, [sp, #352]
    1490:	3d805fe1 	str	q1, [sp, #368]
    1494:	3d8063e2 	str	q2, [sp, #384]
    1498:	3d8067e3 	str	q3, [sp, #400]
    149c:	3d806be4 	str	q4, [sp, #416]
    14a0:	3d806fe5 	str	q5, [sp, #432]
    14a4:	3d8073e6 	str	q6, [sp, #448]
    14a8:	3d8077e7 	str	q7, [sp, #464]
    14ac:	a91e8be1 	stp	x1, x2, [sp, #488]
    14b0:	a91f93e3 	stp	x3, x4, [sp, #504]
    14b4:	f90107e5 	str	x5, [sp, #520]
    14b8:	f9010be6 	str	x6, [sp, #528]
    14bc:	f9010fe7 	str	x7, [sp, #536]
/home/nk/optee/optee_os/lib/libutee/trace_ext.c:37
    14c0:	97fffbf4 	bl	490 <trace_get_level>
    14c4:	7100001f 	cmp	w0, #0x0
    14c8:	5400038d 	b.le	1538 <printf+0xc0>
/home/nk/optee/optee_os/lib/libutee/trace_ext.c:40
    14cc:	910883e0 	add	x0, sp, #0x220
    14d0:	a90403e0 	stp	x0, x0, [sp, #64]
    14d4:	910783e0 	add	x0, sp, #0x1e0
    14d8:	f9002be0 	str	x0, [sp, #80]
    14dc:	128006e0 	mov	w0, #0xffffffc8            	// #-56
    14e0:	b9005be0 	str	w0, [sp, #88]
    14e4:	12800fe0 	mov	w0, #0xffffff80            	// #-128
    14e8:	b9005fe0 	str	w0, [sp, #92]
/home/nk/optee/optee_os/lib/libutee/trace_ext.c:41
    14ec:	910183f4 	add	x20, sp, #0x60
    14f0:	a94407e0 	ldp	x0, x1, [sp, #64]
    14f4:	a90207e0 	stp	x0, x1, [sp, #32]
    14f8:	aa1303e2 	mov	x2, x19
    14fc:	a94507e0 	ldp	x0, x1, [sp, #80]
    1500:	910083e3 	add	x3, sp, #0x20
    1504:	a90307e0 	stp	x0, x1, [sp, #48]
    1508:	aa1403e0 	mov	x0, x20
    150c:	d2802001 	mov	x1, #0x100                 	// #256
    1510:	94002071 	bl	96d4 <vsnprintf>
    1514:	2a0003f3 	mov	w19, w0
/home/nk/optee/optee_os/lib/libutee/trace_ext.c:44
    1518:	37f80060 	tbnz	w0, #31, 1524 <printf+0xac>
/home/nk/optee/optee_os/lib/libutee/trace_ext.c:47
    151c:	aa1403e0 	mov	x0, x20
    1520:	97ffffca 	bl	1448 <trace_ext_puts>
/home/nk/optee/optee_os/lib/libutee/trace_ext.c:50
    1524:	2a1303e0 	mov	w0, w19
    1528:	a9407bfd 	ldp	x29, x30, [sp]
    152c:	a94153f3 	ldp	x19, x20, [sp, #16]
    1530:	910883ff 	add	sp, sp, #0x220
    1534:	d65f03c0 	ret
/home/nk/optee/optee_os/lib/libutee/trace_ext.c:38
    1538:	52800013 	mov	w19, #0x0                   	// #0
    153c:	17fffffa 	b	1524 <printf+0xac>

0000000000001540 <puts>:
puts():
/home/nk/optee/optee_os/lib/libutee/trace_ext.c:53
    1540:	a9be7bfd 	stp	x29, x30, [sp, #-32]!
    1544:	910003fd 	mov	x29, sp
    1548:	f9000bf3 	str	x19, [sp, #16]
    154c:	aa0003f3 	mov	x19, x0
/home/nk/optee/optee_os/lib/libutee/trace_ext.c:54
    1550:	97fffbd0 	bl	490 <trace_get_level>
    1554:	7100001f 	cmp	w0, #0x0
    1558:	540000cd 	b.le	1570 <puts+0x30>
/home/nk/optee/optee_os/lib/libutee/trace_ext.c:55
    155c:	aa1303e0 	mov	x0, x19
    1560:	97ffffba 	bl	1448 <trace_ext_puts>
/home/nk/optee/optee_os/lib/libutee/trace_ext.c:56
    1564:	f0000040 	adrp	x0, c000 <HEXDIGITS+0x62>
    1568:	9119c400 	add	x0, x0, #0x671
    156c:	97ffffb7 	bl	1448 <trace_ext_puts>
/home/nk/optee/optee_os/lib/libutee/trace_ext.c:59
    1570:	52800020 	mov	w0, #0x1                   	// #1
    1574:	f9400bf3 	ldr	x19, [sp, #16]
    1578:	a8c27bfd 	ldp	x29, x30, [sp], #32
    157c:	d65f03c0 	ret

0000000000001580 <putchar>:
putchar():
/home/nk/optee/optee_os/lib/libutee/trace_ext.c:62
    1580:	a9bd7bfd 	stp	x29, x30, [sp, #-48]!
    1584:	910003fd 	mov	x29, sp
    1588:	f9000bf3 	str	x19, [sp, #16]
    158c:	2a0003f3 	mov	w19, w0
/home/nk/optee/optee_os/lib/libutee/trace_ext.c:63
    1590:	3900a3e0 	strb	w0, [sp, #40]
    1594:	3900a7ff 	strb	wzr, [sp, #41]
/home/nk/optee/optee_os/lib/libutee/trace_ext.c:65
    1598:	97fffbbe 	bl	490 <trace_get_level>
    159c:	7100001f 	cmp	w0, #0x0
    15a0:	5400006d 	b.le	15ac <putchar+0x2c>
/home/nk/optee/optee_os/lib/libutee/trace_ext.c:66
    15a4:	9100a3e0 	add	x0, sp, #0x28
    15a8:	97ffffa8 	bl	1448 <trace_ext_puts>
/home/nk/optee/optee_os/lib/libutee/trace_ext.c:73
    15ac:	12001e60 	and	w0, w19, #0xff
    15b0:	f9400bf3 	ldr	x19, [sp, #16]
    15b4:	a8c37bfd 	ldp	x29, x30, [sp], #48
    15b8:	d65f03c0 	ret

00000000000015bc <update_out_param>:
update_out_param():
/home/nk/optee/optee_os/lib/libutee/tee_api.c:115
    15bc:	a9bb7bfd 	stp	x29, x30, [sp, #-80]!
    15c0:	910003fd 	mov	x29, sp
    15c4:	a90153f3 	stp	x19, x20, [sp, #16]
/home/nk/optee/optee_os/lib/libutee/tee_api.c:117
    15c8:	aa0203f4 	mov	x20, x2
    15cc:	aa0003f3 	mov	x19, x0
/home/nk/optee/optee_os/lib/libutee/tee_api.c:115
    15d0:	a90363f7 	stp	x23, x24, [sp, #48]
/home/nk/optee/optee_os/lib/libutee/tee_api.c:123
    15d4:	d0000058 	adrp	x24, b000 <__text_end+0x15f0>
    15d8:	91285318 	add	x24, x24, #0xa14
/home/nk/optee/optee_os/lib/libutee/tee_api.c:117
    15dc:	f8408697 	ldr	x23, [x20], #8
/home/nk/optee/optee_os/lib/libutee/tee_api.c:115
    15e0:	f90023f9 	str	x25, [sp, #64]
    15e4:	aa0103f9 	mov	x25, x1
    15e8:	a9025bf5 	stp	x21, x22, [sp, #32]
/home/nk/optee/optee_os/lib/libutee/tee_api.c:119
    15ec:	d2800015 	mov	x21, #0x0                   	// #0
/home/nk/optee/optee_os/lib/libutee/tee_api.c:123
    15f0:	531e76a0 	lsl	w0, w21, #2
/home/nk/optee/optee_os/lib/libutee/tee_api.c:121
    15f4:	f9400696 	ldr	x22, [x20, #8]
/home/nk/optee/optee_os/lib/libutee/tee_api.c:123
    15f8:	1ac026e0 	lsr	w0, w23, w0
    15fc:	12000c00 	and	w0, w0, #0xf
    1600:	51000800 	sub	w0, w0, #0x2
    1604:	7100141f 	cmp	w0, #0x5
    1608:	540000e8 	b.hi	1624 <update_out_param+0x68>  // b.pmore
    160c:	38604b00 	ldrb	w0, [x24, w0, uxtw]
    1610:	10000061 	adr	x1, 161c <update_out_param+0x60>
    1614:	8b208820 	add	x0, x1, w0, sxtb #2
    1618:	d61f0000 	br	x0
/home/nk/optee/optee_os/lib/libutee/tee_api.c:126
    161c:	f9400280 	ldr	x0, [x20]
/home/nk/optee/optee_os/lib/libutee/tee_api.c:127
    1620:	29005a60 	stp	w0, w22, [x19]
/home/nk/optee/optee_os/lib/libutee/tee_api.c:119 (discriminator 2)
    1624:	910006b5 	add	x21, x21, #0x1
    1628:	91004294 	add	x20, x20, #0x10
    162c:	91004273 	add	x19, x19, #0x10
    1630:	f10012bf 	cmp	x21, #0x4
    1634:	54fffde1 	b.ne	15f0 <update_out_param+0x34>  // b.any
/home/nk/optee/optee_os/lib/libutee/tee_api.c:140
    1638:	a94153f3 	ldp	x19, x20, [sp, #16]
    163c:	a9425bf5 	ldp	x21, x22, [sp, #32]
    1640:	a94363f7 	ldp	x23, x24, [sp, #48]
    1644:	f94023f9 	ldr	x25, [sp, #64]
    1648:	a8c57bfd 	ldp	x29, x30, [sp], #80
    164c:	d65f03c0 	ret
/home/nk/optee/optee_os/lib/libutee/tee_api.c:131
    1650:	f8757b21 	ldr	x1, [x25, x21, lsl #3]
    1654:	b40000c1 	cbz	x1, 166c <update_out_param+0xb0>
/home/nk/optee/optee_os/lib/libutee/tee_api.c:133
    1658:	b9400a62 	ldr	w2, [x19, #8]
/home/nk/optee/optee_os/lib/libutee/tee_api.c:132
    165c:	f9400260 	ldr	x0, [x19]
/home/nk/optee/optee_os/lib/libutee/tee_api.c:133
    1660:	eb16005f 	cmp	x2, x22
/home/nk/optee/optee_os/lib/libutee/tee_api.c:132
    1664:	9a969042 	csel	x2, x2, x22, ls  // ls = plast
    1668:	97fffa6e 	bl	20 <memcpy>
/home/nk/optee/optee_os/lib/libutee/tee_api.c:134
    166c:	b9000a76 	str	w22, [x19, #8]
/home/nk/optee/optee_os/lib/libutee/tee_api.c:135
    1670:	17ffffed 	b	1624 <update_out_param+0x68>

0000000000001674 <TEE_CloseTASession>:
TEE_CloseTASession():
/home/nk/optee/optee_os/lib/libutee/tee_api.c:184
    1674:	b4000120 	cbz	x0, 1698 <TEE_CloseTASession+0x24>
/home/nk/optee/optee_os/lib/libutee/tee_api.c:183
    1678:	a9bf7bfd 	stp	x29, x30, [sp, #-16]!
    167c:	910003fd 	mov	x29, sp
/home/nk/optee/optee_os/lib/libutee/tee_api.c:185
    1680:	94000548 	bl	2ba0 <_utee_close_ta_session>
/home/nk/optee/optee_os/lib/libutee/tee_api.c:187
    1684:	34000060 	cbz	w0, 1690 <TEE_CloseTASession+0x1c>
/home/nk/optee/optee_os/lib/libutee/tee_api.c:190
    1688:	a8c17bfd 	ldp	x29, x30, [sp], #16
/home/nk/optee/optee_os/lib/libutee/tee_api.c:188
    168c:	140004cc 	b	29bc <TEE_Panic>
/home/nk/optee/optee_os/lib/libutee/tee_api.c:190
    1690:	a8c17bfd 	ldp	x29, x30, [sp], #16
    1694:	d65f03c0 	ret
    1698:	d65f03c0 	ret

000000000000169c <TEE_GetCancellationFlag>:
TEE_GetCancellationFlag():
/home/nk/optee/optee_os/lib/libutee/tee_api.c:237
    169c:	a9be7bfd 	stp	x29, x30, [sp, #-32]!
    16a0:	910003fd 	mov	x29, sp
/home/nk/optee/optee_os/lib/libutee/tee_api.c:239
    16a4:	910073e0 	add	x0, sp, #0x1c
    16a8:	94000544 	bl	2bb8 <_utee_get_cancellation_flag>
/home/nk/optee/optee_os/lib/libutee/tee_api.c:241
    16ac:	34000040 	cbz	w0, 16b4 <TEE_GetCancellationFlag+0x18>
/home/nk/optee/optee_os/lib/libutee/tee_api.c:242
    16b0:	b9001fff 	str	wzr, [sp, #28]
/home/nk/optee/optee_os/lib/libutee/tee_api.c:243
    16b4:	b9401fe0 	ldr	w0, [sp, #28]
/home/nk/optee/optee_os/lib/libutee/tee_api.c:244
    16b8:	a8c27bfd 	ldp	x29, x30, [sp], #32
/home/nk/optee/optee_os/lib/libutee/tee_api.c:243
    16bc:	7100001f 	cmp	w0, #0x0
/home/nk/optee/optee_os/lib/libutee/tee_api.c:244
    16c0:	1a9f07e0 	cset	w0, ne  // ne = any
    16c4:	d65f03c0 	ret

00000000000016c8 <TEE_UnmaskCancellation>:
TEE_UnmaskCancellation():
/home/nk/optee/optee_os/lib/libutee/tee_api.c:247
    16c8:	a9be7bfd 	stp	x29, x30, [sp, #-32]!
    16cc:	910003fd 	mov	x29, sp
/home/nk/optee/optee_os/lib/libutee/tee_api.c:249
    16d0:	910073e0 	add	x0, sp, #0x1c
    16d4:	9400053f 	bl	2bd0 <_utee_unmask_cancellation>
/home/nk/optee/optee_os/lib/libutee/tee_api.c:251
    16d8:	34000040 	cbz	w0, 16e0 <TEE_UnmaskCancellation+0x18>
/home/nk/optee/optee_os/lib/libutee/tee_api.c:252
    16dc:	940004b8 	bl	29bc <TEE_Panic>
/home/nk/optee/optee_os/lib/libutee/tee_api.c:253
    16e0:	b9401fe0 	ldr	w0, [sp, #28]
/home/nk/optee/optee_os/lib/libutee/tee_api.c:254
    16e4:	a8c27bfd 	ldp	x29, x30, [sp], #32
/home/nk/optee/optee_os/lib/libutee/tee_api.c:253
    16e8:	7100001f 	cmp	w0, #0x0
/home/nk/optee/optee_os/lib/libutee/tee_api.c:254
    16ec:	1a9f07e0 	cset	w0, ne  // ne = any
    16f0:	d65f03c0 	ret

00000000000016f4 <TEE_MaskCancellation>:
TEE_MaskCancellation():
/home/nk/optee/optee_os/lib/libutee/tee_api.c:257
    16f4:	a9be7bfd 	stp	x29, x30, [sp, #-32]!
    16f8:	910003fd 	mov	x29, sp
/home/nk/optee/optee_os/lib/libutee/tee_api.c:259
    16fc:	910073e0 	add	x0, sp, #0x1c
    1700:	94000537 	bl	2bdc <_utee_mask_cancellation>
/home/nk/optee/optee_os/lib/libutee/tee_api.c:261
    1704:	34000040 	cbz	w0, 170c <TEE_MaskCancellation+0x18>
/home/nk/optee/optee_os/lib/libutee/tee_api.c:262
    1708:	940004ad 	bl	29bc <TEE_Panic>
/home/nk/optee/optee_os/lib/libutee/tee_api.c:263
    170c:	b9401fe0 	ldr	w0, [sp, #28]
/home/nk/optee/optee_os/lib/libutee/tee_api.c:264
    1710:	a8c27bfd 	ldp	x29, x30, [sp], #32
/home/nk/optee/optee_os/lib/libutee/tee_api.c:263
    1714:	7100001f 	cmp	w0, #0x0
/home/nk/optee/optee_os/lib/libutee/tee_api.c:264
    1718:	1a9f07e0 	cset	w0, ne  // ne = any
    171c:	d65f03c0 	ret

0000000000001720 <TEE_CheckMemoryAccessRights>:
TEE_CheckMemoryAccessRights():
/home/nk/optee/optee_os/lib/libutee/tee_api.c:273
    1720:	34000062 	cbz	w2, 172c <TEE_CheckMemoryAccessRights+0xc>
/home/nk/optee/optee_os/lib/libutee/tee_api.c:277
    1724:	2a0203e2 	mov	w2, w2
    1728:	14000527 	b	2bc4 <_utee_check_access_rights>
/home/nk/optee/optee_os/lib/libutee/tee_api.c:289
    172c:	52800000 	mov	w0, #0x0                   	// #0
    1730:	d65f03c0 	ret

0000000000001734 <copy_param.constprop.1>:
copy_param():
/home/nk/optee/optee_os/lib/libutee/tee_api.c:19
    1734:	a9b87bfd 	stp	x29, x30, [sp, #-128]!
    1738:	910003fd 	mov	x29, sp
    173c:	a9046bf9 	stp	x25, x26, [sp, #64]
    1740:	aa0303f9 	mov	x25, x3
/home/nk/optee/optee_os/lib/libutee/tee_api.c:60
    1744:	9101e3e3 	add	x3, sp, #0x78
/home/nk/optee/optee_os/lib/libutee/tee_api.c:19
    1748:	a90363f7 	stp	x23, x24, [sp, #48]
    174c:	aa0403f8 	mov	x24, x4
    1750:	aa0503f7 	mov	x23, x5
    1754:	a90153f3 	stp	x19, x20, [sp, #16]
    1758:	aa0003f3 	mov	x19, x0
    175c:	aa0203f4 	mov	x20, x2
    1760:	a9025bf5 	stp	x21, x22, [sp, #32]
    1764:	2a0103f6 	mov	w22, w1
/home/nk/optee/optee_os/lib/libutee/tee_api.c:41
    1768:	d2800015 	mov	x21, #0x0                   	// #0
/home/nk/optee/optee_os/lib/libutee/tee_api.c:19
    176c:	a90573fb 	stp	x27, x28, [sp, #80]
/home/nk/optee/optee_os/lib/libutee/tee_api.c:48
    1770:	9100205c 	add	x28, x2, #0x8
/home/nk/optee/optee_os/lib/libutee/tee_api.c:26
    1774:	d280001b 	mov	x27, #0x0                   	// #0
/home/nk/optee/optee_os/lib/libutee/tee_api.c:39
    1778:	f900033f 	str	xzr, [x25]
/home/nk/optee/optee_os/lib/libutee/tee_api.c:60
    177c:	52800024 	mov	w4, #0x1                   	// #1
/home/nk/optee/optee_os/lib/libutee/tee_api.c:40
    1780:	f900031f 	str	xzr, [x24]
/home/nk/optee/optee_os/lib/libutee/tee_api.c:28
    1784:	b9007bff 	str	wzr, [sp, #120]
/home/nk/optee/optee_os/lib/libutee/tee_api.c:43
    1788:	531e76a0 	lsl	w0, w21, #2
/home/nk/optee/optee_os/lib/libutee/tee_api.c:42
    178c:	f8357aff 	str	xzr, [x23, x21, lsl #3]
/home/nk/optee/optee_os/lib/libutee/tee_api.c:43
    1790:	1ac026c0 	lsr	w0, w22, w0
    1794:	12000c00 	and	w0, w0, #0xf
    1798:	51001400 	sub	w0, w0, #0x5
    179c:	7100081f 	cmp	w0, #0x2
    17a0:	54000268 	b.hi	17ec <copy_param.constprop.1+0xb8>  // b.pmore
/home/nk/optee/optee_os/lib/libutee/tee_api.c:47
    17a4:	d37ceea0 	lsl	x0, x21, #4
/home/nk/optee/optee_os/lib/libutee/tee_api.c:48
    17a8:	b8606b82 	ldr	w2, [x28, x0]
/home/nk/optee/optee_os/lib/libutee/tee_api.c:47
    17ac:	f8606a81 	ldr	x1, [x20, x0]
/home/nk/optee/optee_os/lib/libutee/tee_api.c:48
    17b0:	2a0203fa 	mov	w26, w2
/home/nk/optee/optee_os/lib/libutee/tee_api.c:58
    17b4:	f100003f 	cmp	x1, #0x0
    17b8:	fa401b44 	ccmp	x26, #0x0, #0x4, ne  // ne = any
    17bc:	54000180 	b.eq	17ec <copy_param.constprop.1+0xb8>  // b.none
/home/nk/optee/optee_os/lib/libutee/tee_api.c:59
    17c0:	52800020 	mov	w0, #0x1                   	// #1
    17c4:	f90033e3 	str	x3, [sp, #96]
    17c8:	b9006fe4 	str	w4, [sp, #108]
    17cc:	97ffffd5 	bl	1720 <TEE_CheckMemoryAccessRights>
/home/nk/optee/optee_os/lib/libutee/tee_api.c:58
    17d0:	b9406fe4 	ldr	w4, [sp, #108]
    17d4:	f94033e3 	ldr	x3, [sp, #96]
    17d8:	350000a0 	cbnz	w0, 17ec <copy_param.constprop.1+0xb8>
/home/nk/optee/optee_os/lib/libutee/tee_api.c:61
    17dc:	91003f5a 	add	x26, x26, #0xf
/home/nk/optee/optee_os/lib/libutee/tee_api.c:60
    17e0:	38236aa4 	strb	w4, [x21, x3]
/home/nk/optee/optee_os/lib/libutee/tee_api.c:61
    17e4:	927cef5a 	and	x26, x26, #0xfffffffffffffff0
    17e8:	8b1a037b 	add	x27, x27, x26
/home/nk/optee/optee_os/lib/libutee/tee_api.c:41
    17ec:	910006b5 	add	x21, x21, #0x1
    17f0:	f10012bf 	cmp	x21, #0x4
    17f4:	54fffca1 	b.ne	1788 <copy_param.constprop.1+0x54>  // b.any
/home/nk/optee/optee_os/lib/libutee/tee_api.c:69
    17f8:	b400031b 	cbz	x27, 1858 <copy_param.constprop.1+0x124>
/home/nk/optee/optee_os/lib/libutee/tee_api.c:70
    17fc:	2a1503e1 	mov	w1, w21
    1800:	aa1b03e0 	mov	x0, x27
    1804:	94000492 	bl	2a4c <tee_map_zi>
    1808:	aa0003e3 	mov	x3, x0
/home/nk/optee/optee_os/lib/libutee/tee_api.c:71
    180c:	b4000780 	cbz	x0, 18fc <copy_param.constprop.1+0x1c8>
/home/nk/optee/optee_os/lib/libutee/tee_api.c:73
    1810:	f9000320 	str	x0, [x25]
/home/nk/optee/optee_os/lib/libutee/tee_api.c:74
    1814:	f900031b 	str	x27, [x24]
/home/nk/optee/optee_os/lib/libutee/tee_api.c:79
    1818:	d0000059 	adrp	x25, b000 <__text_end+0x15f0>
/home/nk/optee/optee_os/lib/libutee/tee_api.c:89
    181c:	9101e3fb 	add	x27, sp, #0x78
/home/nk/optee/optee_os/lib/libutee/tee_api.c:79
    1820:	91287339 	add	x25, x25, #0xa1c
/home/nk/optee/optee_os/lib/libutee/tee_api.c:77
    1824:	2a1603e0 	mov	w0, w22
/home/nk/optee/optee_os/lib/libutee/tee_api.c:78
    1828:	d2800015 	mov	x21, #0x0                   	// #0
/home/nk/optee/optee_os/lib/libutee/tee_api.c:77
    182c:	f8008660 	str	x0, [x19], #8
/home/nk/optee/optee_os/lib/libutee/tee_api.c:79
    1830:	531e76a0 	lsl	w0, w21, #2
    1834:	1ac026c0 	lsr	w0, w22, w0
    1838:	12000c00 	and	w0, w0, #0xf
    183c:	51000401 	sub	w1, w0, #0x1
    1840:	7100183f 	cmp	w1, #0x6
    1844:	54000588 	b.hi	18f4 <copy_param.constprop.1+0x1c0>  // b.pmore
    1848:	38614b21 	ldrb	w1, [x25, w1, uxtw]
    184c:	10000062 	adr	x2, 1858 <copy_param.constprop.1+0x124>
    1850:	8b218841 	add	x1, x2, w1, sxtb #2
    1854:	d61f0020 	br	x1
/home/nk/optee/optee_os/lib/libutee/tee_api.c:25
    1858:	d2800003 	mov	x3, #0x0                   	// #0
    185c:	17ffffef 	b	1818 <copy_param.constprop.1+0xe4>
/home/nk/optee/optee_os/lib/libutee/tee_api.c:82
    1860:	b9400280 	ldr	w0, [x20]
    1864:	f9000260 	str	x0, [x19]
/home/nk/optee/optee_os/lib/libutee/tee_api.c:83
    1868:	b9400680 	ldr	w0, [x20, #4]
    186c:	f9000660 	str	x0, [x19, #8]
/home/nk/optee/optee_os/lib/libutee/tee_api.c:78
    1870:	910006b5 	add	x21, x21, #0x1
    1874:	91004294 	add	x20, x20, #0x10
    1878:	91004273 	add	x19, x19, #0x10
    187c:	f10012bf 	cmp	x21, #0x4
    1880:	54fffd81 	b.ne	1830 <copy_param.constprop.1+0xfc>  // b.any
/home/nk/optee/optee_os/lib/libutee/tee_api.c:109
    1884:	52800000 	mov	w0, #0x0                   	// #0
/home/nk/optee/optee_os/lib/libutee/tee_api.c:110
    1888:	a94153f3 	ldp	x19, x20, [sp, #16]
    188c:	a9425bf5 	ldp	x21, x22, [sp, #32]
    1890:	a94363f7 	ldp	x23, x24, [sp, #48]
    1894:	a9446bf9 	ldp	x25, x26, [sp, #64]
    1898:	a94573fb 	ldp	x27, x28, [sp, #80]
    189c:	a8c87bfd 	ldp	x29, x30, [sp], #128
    18a0:	d65f03c0 	ret
/home/nk/optee/optee_os/lib/libutee/tee_api.c:89
    18a4:	387b6aa1 	ldrb	w1, [x21, x27]
/home/nk/optee/optee_os/lib/libutee/tee_api.c:88
    18a8:	b9400a9a 	ldr	w26, [x20, #8]
/home/nk/optee/optee_os/lib/libutee/tee_api.c:89
    18ac:	340001e1 	cbz	w1, 18e8 <copy_param.constprop.1+0x1b4>
/home/nk/optee/optee_os/lib/libutee/tee_api.c:92
    18b0:	91003f58 	add	x24, x26, #0xf
/home/nk/optee/optee_os/lib/libutee/tee_api.c:91
    18b4:	f8357ae3 	str	x3, [x23, x21, lsl #3]
/home/nk/optee/optee_os/lib/libutee/tee_api.c:92
    18b8:	927cef18 	and	x24, x24, #0xfffffffffffffff0
/home/nk/optee/optee_os/lib/libutee/tee_api.c:93
    18bc:	7100181f 	cmp	w0, #0x6
/home/nk/optee/optee_os/lib/libutee/tee_api.c:92
    18c0:	8b180078 	add	x24, x3, x24
/home/nk/optee/optee_os/lib/libutee/tee_api.c:93
    18c4:	540000c0 	b.eq	18dc <copy_param.constprop.1+0x1a8>  // b.none
/home/nk/optee/optee_os/lib/libutee/tee_api.c:95
    18c8:	f9400281 	ldr	x1, [x20]
    18cc:	aa0303e0 	mov	x0, x3
    18d0:	aa1a03e2 	mov	x2, x26
    18d4:	97fff9d3 	bl	20 <memcpy>
    18d8:	aa0003e3 	mov	x3, x0
/home/nk/optee/optee_os/lib/libutee/tee_api.c:100
    18dc:	a9006a63 	stp	x3, x26, [x19]
    18e0:	aa1803e3 	mov	x3, x24
    18e4:	17ffffe3 	b	1870 <copy_param.constprop.1+0x13c>
/home/nk/optee/optee_os/lib/libutee/tee_api.c:97
    18e8:	aa0303f8 	mov	x24, x3
    18ec:	f9400283 	ldr	x3, [x20]
    18f0:	17fffffb 	b	18dc <copy_param.constprop.1+0x1a8>
/home/nk/optee/optee_os/lib/libutee/tee_api.c:104
    18f4:	a9007e7f 	stp	xzr, xzr, [x19]
/home/nk/optee/optee_os/lib/libutee/tee_api.c:105
    18f8:	17ffffde 	b	1870 <copy_param.constprop.1+0x13c>
/home/nk/optee/optee_os/lib/libutee/tee_api.c:72
    18fc:	129ffe60 	mov	w0, #0xffff000c            	// #-65524
    1900:	17ffffe2 	b	1888 <copy_param.constprop.1+0x154>

0000000000001904 <TEE_InvokeTACommand>:
TEE_InvokeTACommand():
/home/nk/optee/optee_os/lib/libutee/tee_api.c:197
    1904:	a9b37bfd 	stp	x29, x30, [sp, #-208]!
    1908:	910003fd 	mov	x29, sp
    190c:	a90153f3 	stp	x19, x20, [sp, #16]
/home/nk/optee/optee_os/lib/libutee/tee_api.c:205
    1910:	910223f4 	add	x20, sp, #0x88
/home/nk/optee/optee_os/lib/libutee/tee_api.c:197
    1914:	a9025bf5 	stp	x21, x22, [sp, #32]
    1918:	aa0403f6 	mov	x22, x4
    191c:	aa0503f5 	mov	x21, x5
    1920:	a90363f7 	stp	x23, x24, [sp, #48]
    1924:	aa0003f8 	mov	x24, x0
/home/nk/optee/optee_os/lib/libutee/tee_api.c:205
    1928:	9101a3f7 	add	x23, sp, #0x68
/home/nk/optee/optee_os/lib/libutee/tee_api.c:199
    192c:	52800060 	mov	w0, #0x3                   	// #3
/home/nk/optee/optee_os/lib/libutee/tee_api.c:205
    1930:	aa1703e5 	mov	x5, x23
    1934:	910183e4 	add	x4, sp, #0x60
/home/nk/optee/optee_os/lib/libutee/tee_api.c:197
    1938:	a9046bf9 	stp	x25, x26, [sp, #64]
    193c:	2a0103f9 	mov	w25, w1
    1940:	2a0203fa 	mov	w26, w2
    1944:	2a0303e1 	mov	w1, w3
/home/nk/optee/optee_os/lib/libutee/tee_api.c:205
    1948:	aa1603e2 	mov	x2, x22
    194c:	910163e3 	add	x3, sp, #0x58
/home/nk/optee/optee_os/lib/libutee/tee_api.c:199
    1950:	b90057e0 	str	w0, [sp, #84]
/home/nk/optee/optee_os/lib/libutee/tee_api.c:205
    1954:	aa1403e0 	mov	x0, x20
/home/nk/optee/optee_os/lib/libutee/tee_api.c:202
    1958:	a905ffff 	stp	xzr, xzr, [sp, #88]
/home/nk/optee/optee_os/lib/libutee/tee_api.c:203
    195c:	a906ffff 	stp	xzr, xzr, [sp, #104]
    1960:	a907ffff 	stp	xzr, xzr, [sp, #120]
/home/nk/optee/optee_os/lib/libutee/tee_api.c:205
    1964:	97ffff74 	bl	1734 <copy_param.constprop.1>
    1968:	2a0003f3 	mov	w19, w0
/home/nk/optee/optee_os/lib/libutee/tee_api.c:206
    196c:	35000240 	cbnz	w0, 19b4 <TEE_InvokeTACommand+0xb0>
/home/nk/optee/optee_os/lib/libutee/tee_api.c:208
    1970:	910153e4 	add	x4, sp, #0x54
    1974:	aa1403e3 	mov	x3, x20
    1978:	2a1a03e2 	mov	w2, w26
    197c:	2a1903e1 	mov	w1, w25
    1980:	aa1803e0 	mov	x0, x24
    1984:	9400048a 	bl	2bac <_utee_invoke_ta_command>
/home/nk/optee/optee_os/lib/libutee/tee_api.c:211
    1988:	aa1403e2 	mov	x2, x20
/home/nk/optee/optee_os/lib/libutee/tee_api.c:208
    198c:	2a0003f3 	mov	w19, w0
/home/nk/optee/optee_os/lib/libutee/tee_api.c:211
    1990:	aa1703e1 	mov	x1, x23
    1994:	aa1603e0 	mov	x0, x22
    1998:	97ffff09 	bl	15bc <update_out_param>
/home/nk/optee/optee_os/lib/libutee/tee_api.c:212
    199c:	f9402fe0 	ldr	x0, [sp, #88]
    19a0:	b40000a0 	cbz	x0, 19b4 <TEE_InvokeTACommand+0xb0>
/home/nk/optee/optee_os/lib/libutee/tee_api.c:213
    19a4:	f94033e1 	ldr	x1, [sp, #96]
    19a8:	94000446 	bl	2ac0 <tee_unmap>
/home/nk/optee/optee_os/lib/libutee/tee_api.c:215
    19ac:	34000040 	cbz	w0, 19b4 <TEE_InvokeTACommand+0xb0>
/home/nk/optee/optee_os/lib/libutee/tee_api.c:216
    19b0:	94000403 	bl	29bc <TEE_Panic>
/home/nk/optee/optee_os/lib/libutee/tee_api.c:220
    19b4:	b94057e0 	ldr	w0, [sp, #84]
    19b8:	b4000055 	cbz	x21, 19c0 <TEE_InvokeTACommand+0xbc>
/home/nk/optee/optee_os/lib/libutee/tee_api.c:221
    19bc:	b90002a0 	str	w0, [x21]
/home/nk/optee/optee_os/lib/libutee/tee_api.c:223
    19c0:	7100101f 	cmp	w0, #0x4
    19c4:	54000140 	b.eq	19ec <TEE_InvokeTACommand+0xe8>  // b.none
/home/nk/optee/optee_os/lib/libutee/tee_api.c:226
    19c8:	7100027f 	cmp	w19, #0x0
    19cc:	129ffe60 	mov	w0, #0xffff000c            	// #-65524
    19d0:	7a401264 	ccmp	w19, w0, #0x4, ne  // ne = any
    19d4:	540000c0 	b.eq	19ec <TEE_InvokeTACommand+0xe8>  // b.none
/home/nk/optee/optee_os/lib/libutee/tee_api.c:227
    19d8:	1299fb60 	mov	w0, #0xffff3024            	// #-53212
    19dc:	6b00027f 	cmp	w19, w0
    19e0:	54000060 	b.eq	19ec <TEE_InvokeTACommand+0xe8>  // b.none
/home/nk/optee/optee_os/lib/libutee/tee_api.c:229
    19e4:	2a1303e0 	mov	w0, w19
    19e8:	940003f5 	bl	29bc <TEE_Panic>
/home/nk/optee/optee_os/lib/libutee/tee_api.c:232
    19ec:	2a1303e0 	mov	w0, w19
    19f0:	a94153f3 	ldp	x19, x20, [sp, #16]
    19f4:	a9425bf5 	ldp	x21, x22, [sp, #32]
    19f8:	a94363f7 	ldp	x23, x24, [sp, #48]
    19fc:	a9446bf9 	ldp	x25, x26, [sp, #64]
    1a00:	a8cd7bfd 	ldp	x29, x30, [sp], #208
    1a04:	d65f03c0 	ret

0000000000001a08 <TEE_OpenTASession>:
TEE_OpenTASession():
/home/nk/optee/optee_os/lib/libutee/tee_api.c:148
    1a08:	a9b37bfd 	stp	x29, x30, [sp, #-208]!
    1a0c:	910003fd 	mov	x29, sp
    1a10:	a90153f3 	stp	x19, x20, [sp, #16]
/home/nk/optee/optee_os/lib/libutee/tee_api.c:156
    1a14:	910223f4 	add	x20, sp, #0x88
/home/nk/optee/optee_os/lib/libutee/tee_api.c:148
    1a18:	a9025bf5 	stp	x21, x22, [sp, #32]
    1a1c:	aa0303f5 	mov	x21, x3
/home/nk/optee/optee_os/lib/libutee/tee_api.c:156
    1a20:	9101a3f6 	add	x22, sp, #0x68
    1a24:	910163e3 	add	x3, sp, #0x58
/home/nk/optee/optee_os/lib/libutee/tee_api.c:148
    1a28:	a90363f7 	stp	x23, x24, [sp, #48]
    1a2c:	aa0003f8 	mov	x24, x0
    1a30:	aa0403f7 	mov	x23, x4
/home/nk/optee/optee_os/lib/libutee/tee_api.c:156
    1a34:	aa1403e0 	mov	x0, x20
    1a38:	910183e4 	add	x4, sp, #0x60
/home/nk/optee/optee_os/lib/libutee/tee_api.c:148
    1a3c:	a9046bf9 	stp	x25, x26, [sp, #64]
    1a40:	2a0103f9 	mov	w25, w1
    1a44:	aa0503fa 	mov	x26, x5
    1a48:	2a0203e1 	mov	w1, w2
/home/nk/optee/optee_os/lib/libutee/tee_api.c:156
    1a4c:	aa1603e5 	mov	x5, x22
    1a50:	aa1503e2 	mov	x2, x21
/home/nk/optee/optee_os/lib/libutee/tee_api.c:151
    1a54:	b90057ff 	str	wzr, [sp, #84]
/home/nk/optee/optee_os/lib/libutee/tee_api.c:153
    1a58:	a905ffff 	stp	xzr, xzr, [sp, #88]
/home/nk/optee/optee_os/lib/libutee/tee_api.c:154
    1a5c:	a906ffff 	stp	xzr, xzr, [sp, #104]
    1a60:	a907ffff 	stp	xzr, xzr, [sp, #120]
/home/nk/optee/optee_os/lib/libutee/tee_api.c:156
    1a64:	97ffff34 	bl	1734 <copy_param.constprop.1>
/home/nk/optee/optee_os/lib/libutee/tee_api.c:157
    1a68:	350003a0 	cbnz	w0, 1adc <TEE_OpenTASession+0xd4>
/home/nk/optee/optee_os/lib/libutee/tee_api.c:159
    1a6c:	aa1a03e4 	mov	x4, x26
    1a70:	910153e3 	add	x3, sp, #0x54
    1a74:	aa1403e2 	mov	x2, x20
    1a78:	2a1903e1 	mov	w1, w25
    1a7c:	aa1803e0 	mov	x0, x24
    1a80:	94000445 	bl	2b94 <_utee_open_ta_session>
/home/nk/optee/optee_os/lib/libutee/tee_api.c:161
    1a84:	aa1403e2 	mov	x2, x20
/home/nk/optee/optee_os/lib/libutee/tee_api.c:159
    1a88:	2a0003f3 	mov	w19, w0
/home/nk/optee/optee_os/lib/libutee/tee_api.c:161
    1a8c:	aa1603e1 	mov	x1, x22
    1a90:	aa1503e0 	mov	x0, x21
    1a94:	97fffeca 	bl	15bc <update_out_param>
/home/nk/optee/optee_os/lib/libutee/tee_api.c:162
    1a98:	f9402fe0 	ldr	x0, [sp, #88]
    1a9c:	b40000a0 	cbz	x0, 1ab0 <TEE_OpenTASession+0xa8>
/home/nk/optee/optee_os/lib/libutee/tee_api.c:163
    1aa0:	f94033e1 	ldr	x1, [sp, #96]
    1aa4:	94000407 	bl	2ac0 <tee_unmap>
/home/nk/optee/optee_os/lib/libutee/tee_api.c:165
    1aa8:	34000040 	cbz	w0, 1ab0 <TEE_OpenTASession+0xa8>
/home/nk/optee/optee_os/lib/libutee/tee_api.c:166
    1aac:	940003c4 	bl	29bc <TEE_Panic>
/home/nk/optee/optee_os/lib/libutee/tee_api.c:175
    1ab0:	34000053 	cbz	w19, 1ab8 <TEE_OpenTASession+0xb0>
/home/nk/optee/optee_os/lib/libutee/tee_api.c:176
    1ab4:	b90057ff 	str	wzr, [sp, #84]
/home/nk/optee/optee_os/lib/libutee/tee_api.c:178
    1ab8:	b94057e0 	ldr	w0, [sp, #84]
/home/nk/optee/optee_os/lib/libutee/tee_api.c:180
    1abc:	a9425bf5 	ldp	x21, x22, [sp, #32]
    1ac0:	a9446bf9 	ldp	x25, x26, [sp, #64]
/home/nk/optee/optee_os/lib/libutee/tee_api.c:178
    1ac4:	f90002e0 	str	x0, [x23]
/home/nk/optee/optee_os/lib/libutee/tee_api.c:180
    1ac8:	2a1303e0 	mov	w0, w19
    1acc:	a94153f3 	ldp	x19, x20, [sp, #16]
    1ad0:	a94363f7 	ldp	x23, x24, [sp, #48]
    1ad4:	a8cd7bfd 	ldp	x29, x30, [sp], #208
    1ad8:	d65f03c0 	ret
    1adc:	2a0003f3 	mov	w19, w0
    1ae0:	17fffff5 	b	1ab4 <TEE_OpenTASession+0xac>

0000000000001ae4 <TEE_SetInstanceData>:
TEE_SetInstanceData():
/home/nk/optee/optee_os/lib/libutee/tee_api.c:293
    1ae4:	90000061 	adrp	x1, d000 <_DYNAMIC>
    1ae8:	f9022420 	str	x0, [x1, #1096]
/home/nk/optee/optee_os/lib/libutee/tee_api.c:294
    1aec:	d65f03c0 	ret

0000000000001af0 <TEE_GetInstanceData>:
TEE_GetInstanceData():
/home/nk/optee/optee_os/lib/libutee/tee_api.c:299
    1af0:	90000060 	adrp	x0, d000 <_DYNAMIC>
    1af4:	f9422400 	ldr	x0, [x0, #1096]
    1af8:	d65f03c0 	ret

0000000000001afc <TEE_MemMove>:
TEE_MemMove():
/home/nk/optee/optee_os/lib/libutee/tee_api.c:303
    1afc:	2a0203e2 	mov	w2, w2
    1b00:	14001f0a 	b	9728 <memmove>

0000000000001b04 <TEE_MemCompare>:
TEE_MemCompare():
/home/nk/optee/optee_os/lib/libutee/tee_api.c:308
    1b04:	2a0203e2 	mov	w2, w2
    1b08:	14001f90 	b	9948 <consttime_memcmp>

0000000000001b0c <TEE_MemFill>:
TEE_MemFill():
/home/nk/optee/optee_os/lib/libutee/tee_api.c:313
    1b0c:	2a0203e2 	mov	w2, w2
    1b10:	14001f1d 	b	9784 <memset>

0000000000001b14 <TEE_GetSystemTime>:
TEE_GetSystemTime():
/home/nk/optee/optee_os/lib/libutee/tee_api.c:319
    1b14:	a9bf7bfd 	stp	x29, x30, [sp, #-16]!
/home/nk/optee/optee_os/lib/libutee/tee_api.c:320
    1b18:	aa0003e1 	mov	x1, x0
    1b1c:	d2800000 	mov	x0, #0x0                   	// #0
/home/nk/optee/optee_os/lib/libutee/tee_api.c:319
    1b20:	910003fd 	mov	x29, sp
/home/nk/optee/optee_os/lib/libutee/tee_api.c:320
    1b24:	94000434 	bl	2bf4 <_utee_get_time>
/home/nk/optee/optee_os/lib/libutee/tee_api.c:322
    1b28:	34000060 	cbz	w0, 1b34 <TEE_GetSystemTime+0x20>
/home/nk/optee/optee_os/lib/libutee/tee_api.c:324
    1b2c:	a8c17bfd 	ldp	x29, x30, [sp], #16
/home/nk/optee/optee_os/lib/libutee/tee_api.c:323
    1b30:	140003a3 	b	29bc <TEE_Panic>
/home/nk/optee/optee_os/lib/libutee/tee_api.c:324
    1b34:	a8c17bfd 	ldp	x29, x30, [sp], #16
    1b38:	d65f03c0 	ret

0000000000001b3c <TEE_Wait>:
TEE_Wait():
/home/nk/optee/optee_os/lib/libutee/tee_api.c:327
    1b3c:	a9be7bfd 	stp	x29, x30, [sp, #-32]!
/home/nk/optee/optee_os/lib/libutee/tee_api.c:328
    1b40:	2a0003e0 	mov	w0, w0
/home/nk/optee/optee_os/lib/libutee/tee_api.c:327
    1b44:	910003fd 	mov	x29, sp
    1b48:	f9000bf3 	str	x19, [sp, #16]
/home/nk/optee/optee_os/lib/libutee/tee_api.c:328
    1b4c:	94000427 	bl	2be8 <_utee_wait>
/home/nk/optee/optee_os/lib/libutee/tee_api.c:330
    1b50:	7100001f 	cmp	w0, #0x0
    1b54:	129fffa1 	mov	w1, #0xffff0002            	// #-65534
/home/nk/optee/optee_os/lib/libutee/tee_api.c:328
    1b58:	2a0003f3 	mov	w19, w0
/home/nk/optee/optee_os/lib/libutee/tee_api.c:330
    1b5c:	7a411004 	ccmp	w0, w1, #0x4, ne  // ne = any
    1b60:	54000040 	b.eq	1b68 <TEE_Wait+0x2c>  // b.none
/home/nk/optee/optee_os/lib/libutee/tee_api.c:331
    1b64:	94000396 	bl	29bc <TEE_Panic>
/home/nk/optee/optee_os/lib/libutee/tee_api.c:334
    1b68:	2a1303e0 	mov	w0, w19
    1b6c:	f9400bf3 	ldr	x19, [sp, #16]
    1b70:	a8c27bfd 	ldp	x29, x30, [sp], #32
    1b74:	d65f03c0 	ret

0000000000001b78 <TEE_GetTAPersistentTime>:
TEE_GetTAPersistentTime():
/home/nk/optee/optee_os/lib/libutee/tee_api.c:337
    1b78:	a9be7bfd 	stp	x29, x30, [sp, #-32]!
/home/nk/optee/optee_os/lib/libutee/tee_api.c:340
    1b7c:	aa0003e1 	mov	x1, x0
/home/nk/optee/optee_os/lib/libutee/tee_api.c:337
    1b80:	910003fd 	mov	x29, sp
    1b84:	a90153f3 	stp	x19, x20, [sp, #16]
    1b88:	aa0003f4 	mov	x20, x0
/home/nk/optee/optee_os/lib/libutee/tee_api.c:340
    1b8c:	d2800020 	mov	x0, #0x1                   	// #1
    1b90:	94000419 	bl	2bf4 <_utee_get_time>
/home/nk/optee/optee_os/lib/libutee/tee_api.c:342
    1b94:	7100001f 	cmp	w0, #0x0
/home/nk/optee/optee_os/lib/libutee/tee_api.c:340
    1b98:	2a0003f3 	mov	w19, w0
/home/nk/optee/optee_os/lib/libutee/tee_api.c:342
    1b9c:	1a9f07e2 	cset	w2, ne  // ne = any
    1ba0:	1299fe00 	mov	w0, #0xffff300f            	// #-53233
    1ba4:	6b00027f 	cmp	w19, w0
    1ba8:	1a9f1041 	csel	w1, w2, wzr, ne  // ne = any
    1bac:	34000041 	cbz	w1, 1bb4 <TEE_GetTAPersistentTime+0x3c>
/home/nk/optee/optee_os/lib/libutee/tee_api.c:344
    1bb0:	29007e9f 	stp	wzr, wzr, [x20]
/home/nk/optee/optee_os/lib/libutee/tee_api.c:348
    1bb4:	11402e60 	add	w0, w19, #0xb, lsl #12
/home/nk/optee/optee_os/lib/libutee/tee_api.c:347
    1bb8:	7100005f 	cmp	w2, #0x0
    1bbc:	7a411800 	ccmp	w0, #0x1, #0x0, ne  // ne = any
    1bc0:	540000e9 	b.ls	1bdc <TEE_GetTAPersistentTime+0x64>  // b.plast
/home/nk/optee/optee_os/lib/libutee/tee_api.c:349
    1bc4:	340000c1 	cbz	w1, 1bdc <TEE_GetTAPersistentTime+0x64>
/home/nk/optee/optee_os/lib/libutee/tee_api.c:350
    1bc8:	129ffe60 	mov	w0, #0xffff000c            	// #-65524
    1bcc:	6b00027f 	cmp	w19, w0
    1bd0:	54000060 	b.eq	1bdc <TEE_GetTAPersistentTime+0x64>  // b.none
/home/nk/optee/optee_os/lib/libutee/tee_api.c:352
    1bd4:	2a1303e0 	mov	w0, w19
    1bd8:	94000379 	bl	29bc <TEE_Panic>
/home/nk/optee/optee_os/lib/libutee/tee_api.c:355
    1bdc:	2a1303e0 	mov	w0, w19
    1be0:	a94153f3 	ldp	x19, x20, [sp, #16]
    1be4:	a8c27bfd 	ldp	x29, x30, [sp], #32
    1be8:	d65f03c0 	ret

0000000000001bec <TEE_SetTAPersistentTime>:
TEE_SetTAPersistentTime():
/home/nk/optee/optee_os/lib/libutee/tee_api.c:358
    1bec:	a9be7bfd 	stp	x29, x30, [sp, #-32]!
    1bf0:	910003fd 	mov	x29, sp
    1bf4:	f9000bf3 	str	x19, [sp, #16]
/home/nk/optee/optee_os/lib/libutee/tee_api.c:361
    1bf8:	94000402 	bl	2c00 <_utee_set_ta_time>
/home/nk/optee/optee_os/lib/libutee/tee_api.c:363
    1bfc:	7100001f 	cmp	w0, #0x0
    1c00:	129ffe61 	mov	w1, #0xffff000c            	// #-65524
/home/nk/optee/optee_os/lib/libutee/tee_api.c:361
    1c04:	2a0003f3 	mov	w19, w0
/home/nk/optee/optee_os/lib/libutee/tee_api.c:363
    1c08:	7a411004 	ccmp	w0, w1, #0x4, ne  // ne = any
    1c0c:	540000a0 	b.eq	1c20 <TEE_SetTAPersistentTime+0x34>  // b.none
/home/nk/optee/optee_os/lib/libutee/tee_api.c:364
    1c10:	1299f7c1 	mov	w1, #0xffff3041            	// #-53183
    1c14:	6b01001f 	cmp	w0, w1
    1c18:	54000040 	b.eq	1c20 <TEE_SetTAPersistentTime+0x34>  // b.none
/home/nk/optee/optee_os/lib/libutee/tee_api.c:366
    1c1c:	94000368 	bl	29bc <TEE_Panic>
/home/nk/optee/optee_os/lib/libutee/tee_api.c:369
    1c20:	2a1303e0 	mov	w0, w19
    1c24:	f9400bf3 	ldr	x19, [sp, #16]
    1c28:	a8c27bfd 	ldp	x29, x30, [sp], #32
    1c2c:	d65f03c0 	ret

0000000000001c30 <TEE_GetREETime>:
TEE_GetREETime():
/home/nk/optee/optee_os/lib/libutee/tee_api.c:372
    1c30:	a9bf7bfd 	stp	x29, x30, [sp, #-16]!
/home/nk/optee/optee_os/lib/libutee/tee_api.c:373
    1c34:	aa0003e1 	mov	x1, x0
    1c38:	d2800040 	mov	x0, #0x2                   	// #2
/home/nk/optee/optee_os/lib/libutee/tee_api.c:372
    1c3c:	910003fd 	mov	x29, sp
/home/nk/optee/optee_os/lib/libutee/tee_api.c:373
    1c40:	940003ed 	bl	2bf4 <_utee_get_time>
/home/nk/optee/optee_os/lib/libutee/tee_api.c:375
    1c44:	34000060 	cbz	w0, 1c50 <TEE_GetREETime+0x20>
/home/nk/optee/optee_os/lib/libutee/tee_api.c:377
    1c48:	a8c17bfd 	ldp	x29, x30, [sp], #16
/home/nk/optee/optee_os/lib/libutee/tee_api.c:376
    1c4c:	1400035c 	b	29bc <TEE_Panic>
/home/nk/optee/optee_os/lib/libutee/tee_api.c:377
    1c50:	a8c17bfd 	ldp	x29, x30, [sp], #16
    1c54:	d65f03c0 	ret

0000000000001c58 <TEE_Malloc>:
TEE_Malloc():
/home/nk/optee/optee_os/lib/libutee/tee_api.c:381
    1c58:	35000081 	cbnz	w1, 1c68 <TEE_Malloc+0x10>
/home/nk/optee/optee_os/lib/libutee/tee_api.c:382
    1c5c:	2a0003e1 	mov	w1, w0
    1c60:	d2800020 	mov	x0, #0x1                   	// #1
    1c64:	14001d83 	b	9270 <calloc>
/home/nk/optee/optee_os/lib/libutee/tee_api.c:383
    1c68:	52b00002 	mov	w2, #0x80000000            	// #-2147483648
    1c6c:	6b02003f 	cmp	w1, w2
    1c70:	54000061 	b.ne	1c7c <TEE_Malloc+0x24>  // b.any
/home/nk/optee/optee_os/lib/libutee/tee_api.c:384
    1c74:	2a0003e0 	mov	w0, w0
    1c78:	14001d6a 	b	9220 <malloc>
/home/nk/optee/optee_os/lib/libutee/tee_api.c:380
    1c7c:	a9bf7bfd 	stp	x29, x30, [sp, #-16]!
    1c80:	2a0103e5 	mov	w5, w1
/home/nk/optee/optee_os/lib/libutee/tee_api.c:386
    1c84:	52800023 	mov	w3, #0x1                   	// #1
/home/nk/optee/optee_os/lib/libutee/tee_api.c:380
    1c88:	910003fd 	mov	x29, sp
/home/nk/optee/optee_os/lib/libutee/tee_api.c:386
    1c8c:	52800022 	mov	w2, #0x1                   	// #1
    1c90:	52803041 	mov	w1, #0x182                 	// #386
    1c94:	d0000044 	adrp	x4, b000 <__text_end+0x15f0>
    1c98:	d0000040 	adrp	x0, b000 <__text_end+0x15f0>
    1c9c:	913f9c84 	add	x4, x4, #0xfe7
    1ca0:	91288c00 	add	x0, x0, #0xa23
    1ca4:	97fffa7b 	bl	690 <trace_printf>
/home/nk/optee/optee_os/lib/libutee/tee_api.c:389
    1ca8:	d2800000 	mov	x0, #0x0                   	// #0
    1cac:	a8c17bfd 	ldp	x29, x30, [sp], #16
    1cb0:	d65f03c0 	ret

0000000000001cb4 <TEE_Realloc>:
TEE_Realloc():
/home/nk/optee/optee_os/lib/libutee/tee_api.c:393
    1cb4:	2a0103e1 	mov	w1, w1
    1cb8:	14001d87 	b	92d4 <realloc>

0000000000001cbc <TEE_Free>:
TEE_Free():
/home/nk/optee/optee_os/lib/libutee/tee_api.c:398
    1cbc:	14001d9a 	b	9324 <free>

0000000000001cc0 <TEE_CacheClean>:
TEE_CacheClean():
/home/nk/optee/optee_os/lib/libutee/tee_api.c:404
    1cc0:	d2800002 	mov	x2, #0x0                   	// #0
    1cc4:	1400044a 	b	2dec <_utee_cache_operation>

0000000000001cc8 <TEE_CacheFlush>:
TEE_CacheFlush():
/home/nk/optee/optee_os/lib/libutee/tee_api.c:408
    1cc8:	d2800022 	mov	x2, #0x1                   	// #1
    1ccc:	14000448 	b	2dec <_utee_cache_operation>

0000000000001cd0 <TEE_CacheInvalidate>:
TEE_CacheInvalidate():
/home/nk/optee/optee_os/lib/libutee/tee_api.c:413
    1cd0:	d2800042 	mov	x2, #0x2                   	// #2
    1cd4:	14000446 	b	2dec <_utee_cache_operation>

0000000000001cd8 <__utee_from_attr>:
__utee_from_attr():
/home/nk/optee/optee_os/lib/libutee/tee_api_objects.c:22
    1cd8:	2a0203e2 	mov	w2, w2
    1cdc:	d2800003 	mov	x3, #0x0                   	// #0
/home/nk/optee/optee_os/lib/libutee/tee_api_objects.c:22 (discriminator 1)
    1ce0:	eb03005f 	cmp	x2, x3
    1ce4:	54000048 	b.hi	1cec <__utee_from_attr+0x14>  // b.pmore
/home/nk/optee/optee_os/lib/libutee/tee_api_objects.c:32
    1ce8:	d65f03c0 	ret
/home/nk/optee/optee_os/lib/libutee/tee_api_objects.c:23
    1cec:	b9400024 	ldr	w4, [x1]
    1cf0:	b9001004 	str	w4, [x0, #16]
/home/nk/optee/optee_os/lib/libutee/tee_api_objects.c:24
    1cf4:	36e80124 	tbz	w4, #29, 1d18 <__utee_from_attr+0x40>
/home/nk/optee/optee_os/lib/libutee/tee_api_objects.c:25
    1cf8:	b9400824 	ldr	w4, [x1, #8]
    1cfc:	f9000004 	str	x4, [x0]
/home/nk/optee/optee_os/lib/libutee/tee_api_objects.c:26
    1d00:	b9400c24 	ldr	w4, [x1, #12]
/home/nk/optee/optee_os/lib/libutee/tee_api_objects.c:22
    1d04:	91000463 	add	x3, x3, #0x1
    1d08:	91006021 	add	x1, x1, #0x18
    1d0c:	91006000 	add	x0, x0, #0x18
/home/nk/optee/optee_os/lib/libutee/tee_api_objects.c:29
    1d10:	f81f0004 	stur	x4, [x0, #-16]
    1d14:	17fffff3 	b	1ce0 <__utee_from_attr+0x8>
/home/nk/optee/optee_os/lib/libutee/tee_api_objects.c:28
    1d18:	f9400424 	ldr	x4, [x1, #8]
    1d1c:	f9000004 	str	x4, [x0]
/home/nk/optee/optee_os/lib/libutee/tee_api_objects.c:29
    1d20:	b9401024 	ldr	w4, [x1, #16]
    1d24:	17fffff8 	b	1d04 <__utee_from_attr+0x2c>

0000000000001d28 <TEE_GetObjectInfo>:
TEE_GetObjectInfo():
/home/nk/optee/optee_os/lib/libutee/tee_api_objects.c:42
    1d28:	a9be7bfd 	stp	x29, x30, [sp, #-32]!
    1d2c:	910003fd 	mov	x29, sp
    1d30:	f9000bf3 	str	x19, [sp, #16]
    1d34:	aa0103f3 	mov	x19, x1
/home/nk/optee/optee_os/lib/libutee/tee_api_objects.c:45
    1d38:	940003d0 	bl	2c78 <_utee_cryp_obj_get_info>
/home/nk/optee/optee_os/lib/libutee/tee_api_objects.c:47
    1d3c:	34000040 	cbz	w0, 1d44 <TEE_GetObjectInfo+0x1c>
/home/nk/optee/optee_os/lib/libutee/tee_api_objects.c:48
    1d40:	9400031f 	bl	29bc <TEE_Panic>
/home/nk/optee/optee_os/lib/libutee/tee_api_objects.c:50
    1d44:	b9400261 	ldr	w1, [x19]
    1d48:	528017c0 	mov	w0, #0xbe                  	// #190
    1d4c:	72b40000 	movk	w0, #0xa000, lsl #16
    1d50:	6b00003f 	cmp	w1, w0
    1d54:	54000081 	b.ne	1d64 <TEE_GetObjectInfo+0x3c>  // b.any
/home/nk/optee/optee_os/lib/libutee/tee_api_objects.c:52
    1d58:	2900fe7f 	stp	wzr, wzr, [x19, #4]
/home/nk/optee/optee_os/lib/libutee/tee_api_objects.c:54
    1d5c:	2901fe7f 	stp	wzr, wzr, [x19, #12]
/home/nk/optee/optee_os/lib/libutee/tee_api_objects.c:56
    1d60:	2902fe7f 	stp	wzr, wzr, [x19, #20]
/home/nk/optee/optee_os/lib/libutee/tee_api_objects.c:58
    1d64:	f9400bf3 	ldr	x19, [sp, #16]
    1d68:	a8c27bfd 	ldp	x29, x30, [sp], #32
    1d6c:	d65f03c0 	ret

0000000000001d70 <TEE_GetObjectInfo1>:
TEE_GetObjectInfo1():
/home/nk/optee/optee_os/lib/libutee/tee_api_objects.c:61
    1d70:	a9be7bfd 	stp	x29, x30, [sp, #-32]!
    1d74:	910003fd 	mov	x29, sp
    1d78:	f9000bf3 	str	x19, [sp, #16]
/home/nk/optee/optee_os/lib/libutee/tee_api_objects.c:64
    1d7c:	940003bf 	bl	2c78 <_utee_cryp_obj_get_info>
/home/nk/optee/optee_os/lib/libutee/tee_api_objects.c:66
    1d80:	52800021 	mov	w1, #0x1                   	// #1
/home/nk/optee/optee_os/lib/libutee/tee_api_objects.c:67
    1d84:	121e7802 	and	w2, w0, #0xfffffffd
/home/nk/optee/optee_os/lib/libutee/tee_api_objects.c:66
    1d88:	7100001f 	cmp	w0, #0x0
    1d8c:	72be0201 	movk	w1, #0xf010, lsl #16
/home/nk/optee/optee_os/lib/libutee/tee_api_objects.c:64
    1d90:	2a0003f3 	mov	w19, w0
/home/nk/optee/optee_os/lib/libutee/tee_api_objects.c:66
    1d94:	7a411044 	ccmp	w2, w1, #0x4, ne  // ne = any
    1d98:	54000040 	b.eq	1da0 <TEE_GetObjectInfo1+0x30>  // b.none
/home/nk/optee/optee_os/lib/libutee/tee_api_objects.c:69
    1d9c:	94000308 	bl	29bc <TEE_Panic>
/home/nk/optee/optee_os/lib/libutee/tee_api_objects.c:72
    1da0:	2a1303e0 	mov	w0, w19
    1da4:	f9400bf3 	ldr	x19, [sp, #16]
    1da8:	a8c27bfd 	ldp	x29, x30, [sp], #32
    1dac:	d65f03c0 	ret

0000000000001db0 <TEE_RestrictObjectUsage1>:
TEE_RestrictObjectUsage1():
/home/nk/optee/optee_os/lib/libutee/tee_api_objects.c:96
    1db0:	a9be7bfd 	stp	x29, x30, [sp, #-32]!
/home/nk/optee/optee_os/lib/libutee/tee_api_objects.c:99
    1db4:	2a0103e1 	mov	w1, w1
/home/nk/optee/optee_os/lib/libutee/tee_api_objects.c:96
    1db8:	910003fd 	mov	x29, sp
    1dbc:	f9000bf3 	str	x19, [sp, #16]
/home/nk/optee/optee_os/lib/libutee/tee_api_objects.c:99
    1dc0:	940003b1 	bl	2c84 <_utee_cryp_obj_restrict_usage>
/home/nk/optee/optee_os/lib/libutee/tee_api_objects.c:102
    1dc4:	52800021 	mov	w1, #0x1                   	// #1
/home/nk/optee/optee_os/lib/libutee/tee_api_objects.c:103
    1dc8:	121e7802 	and	w2, w0, #0xfffffffd
/home/nk/optee/optee_os/lib/libutee/tee_api_objects.c:102
    1dcc:	7100001f 	cmp	w0, #0x0
    1dd0:	72be0201 	movk	w1, #0xf010, lsl #16
/home/nk/optee/optee_os/lib/libutee/tee_api_objects.c:99
    1dd4:	2a0003f3 	mov	w19, w0
/home/nk/optee/optee_os/lib/libutee/tee_api_objects.c:102
    1dd8:	7a411044 	ccmp	w2, w1, #0x4, ne  // ne = any
    1ddc:	54000040 	b.eq	1de4 <TEE_RestrictObjectUsage1+0x34>  // b.none
/home/nk/optee/optee_os/lib/libutee/tee_api_objects.c:105
    1de0:	940002f7 	bl	29bc <TEE_Panic>
/home/nk/optee/optee_os/lib/libutee/tee_api_objects.c:108
    1de4:	2a1303e0 	mov	w0, w19
    1de8:	f9400bf3 	ldr	x19, [sp, #16]
    1dec:	a8c27bfd 	ldp	x29, x30, [sp], #32
    1df0:	d65f03c0 	ret

0000000000001df4 <TEE_RestrictObjectUsage>:
TEE_RestrictObjectUsage():
/home/nk/optee/optee_os/lib/libutee/tee_api_objects.c:81
    1df4:	a9bc7bfd 	stp	x29, x30, [sp, #-64]!
    1df8:	910003fd 	mov	x29, sp
    1dfc:	a90153f3 	stp	x19, x20, [sp, #16]
    1e00:	aa0003f3 	mov	x19, x0
    1e04:	2a0103f4 	mov	w20, w1
/home/nk/optee/optee_os/lib/libutee/tee_api_objects.c:85
    1e08:	910083e1 	add	x1, sp, #0x20
    1e0c:	9400039b 	bl	2c78 <_utee_cryp_obj_get_info>
/home/nk/optee/optee_os/lib/libutee/tee_api_objects.c:86
    1e10:	b94023e1 	ldr	w1, [sp, #32]
    1e14:	528017c0 	mov	w0, #0xbe                  	// #190
    1e18:	72b40000 	movk	w0, #0xa000, lsl #16
    1e1c:	6b00003f 	cmp	w1, w0
    1e20:	540000c0 	b.eq	1e38 <TEE_RestrictObjectUsage+0x44>  // b.none
/home/nk/optee/optee_os/lib/libutee/tee_api_objects.c:89
    1e24:	2a1403e1 	mov	w1, w20
    1e28:	aa1303e0 	mov	x0, x19
    1e2c:	97ffffe1 	bl	1db0 <TEE_RestrictObjectUsage1>
/home/nk/optee/optee_os/lib/libutee/tee_api_objects.c:91
    1e30:	34000040 	cbz	w0, 1e38 <TEE_RestrictObjectUsage+0x44>
/home/nk/optee/optee_os/lib/libutee/tee_api_objects.c:92
    1e34:	940002e2 	bl	29bc <TEE_Panic>
/home/nk/optee/optee_os/lib/libutee/tee_api_objects.c:93
    1e38:	a94153f3 	ldp	x19, x20, [sp, #16]
    1e3c:	a8c47bfd 	ldp	x29, x30, [sp], #64
    1e40:	d65f03c0 	ret

0000000000001e44 <TEE_GetObjectBufferAttribute>:
TEE_GetObjectBufferAttribute():
/home/nk/optee/optee_os/lib/libutee/tee_api_objects.c:113
    1e44:	a9b97bfd 	stp	x29, x30, [sp, #-112]!
    1e48:	910003fd 	mov	x29, sp
    1e4c:	a90153f3 	stp	x19, x20, [sp, #16]
    1e50:	aa0303f4 	mov	x20, x3
    1e54:	a9025bf5 	stp	x21, x22, [sp, #32]
    1e58:	aa0003f6 	mov	x22, x0
    1e5c:	2a0103f5 	mov	w21, w1
/home/nk/optee/optee_os/lib/libutee/tee_api_objects.c:118
    1e60:	910143e1 	add	x1, sp, #0x50
/home/nk/optee/optee_os/lib/libutee/tee_api_objects.c:113
    1e64:	f9001fe2 	str	x2, [sp, #56]
/home/nk/optee/optee_os/lib/libutee/tee_api_objects.c:118
    1e68:	94000384 	bl	2c78 <_utee_cryp_obj_get_info>
    1e6c:	2a0003f3 	mov	w19, w0
/home/nk/optee/optee_os/lib/libutee/tee_api_objects.c:119
    1e70:	35000180 	cbnz	w0, 1ea0 <TEE_GetObjectBufferAttribute+0x5c>
/home/nk/optee/optee_os/lib/libutee/tee_api_objects.c:123
    1e74:	37e803b5 	tbnz	w21, #29, 1ee8 <TEE_GetObjectBufferAttribute+0xa4>
/home/nk/optee/optee_os/lib/libutee/tee_api_objects.c:129
    1e78:	f9401fe2 	ldr	x2, [sp, #56]
    1e7c:	910123e3 	add	x3, sp, #0x48
/home/nk/optee/optee_os/lib/libutee/tee_api_objects.c:128
    1e80:	b9400280 	ldr	w0, [x20]
/home/nk/optee/optee_os/lib/libutee/tee_api_objects.c:129
    1e84:	2a1503e1 	mov	w1, w21
/home/nk/optee/optee_os/lib/libutee/tee_api_objects.c:128
    1e88:	f90027e0 	str	x0, [sp, #72]
/home/nk/optee/optee_os/lib/libutee/tee_api_objects.c:129
    1e8c:	aa1603e0 	mov	x0, x22
    1e90:	94000380 	bl	2c90 <_utee_cryp_obj_get_attr>
    1e94:	2a0003f3 	mov	w19, w0
/home/nk/optee/optee_os/lib/libutee/tee_api_objects.c:131
    1e98:	f94027e0 	ldr	x0, [sp, #72]
    1e9c:	b9000280 	str	w0, [x20]
/home/nk/optee/optee_os/lib/libutee/tee_api_objects.c:134
    1ea0:	7100027f 	cmp	w19, #0x0
    1ea4:	129ffee0 	mov	w0, #0xffff0008            	// #-65528
    1ea8:	7a401264 	ccmp	w19, w0, #0x4, ne  // ne = any
    1eac:	54000140 	b.eq	1ed4 <TEE_GetObjectBufferAttribute+0x90>  // b.none
/home/nk/optee/optee_os/lib/libutee/tee_api_objects.c:137
    1eb0:	121e7a61 	and	w1, w19, #0xfffffffd
/home/nk/optee/optee_os/lib/libutee/tee_api_objects.c:136
    1eb4:	52800020 	mov	w0, #0x1                   	// #1
    1eb8:	72be0200 	movk	w0, #0xf010, lsl #16
    1ebc:	6b00003f 	cmp	w1, w0
    1ec0:	129ffde0 	mov	w0, #0xffff0010            	// #-65520
    1ec4:	7a401264 	ccmp	w19, w0, #0x4, ne  // ne = any
    1ec8:	54000060 	b.eq	1ed4 <TEE_GetObjectBufferAttribute+0x90>  // b.none
/home/nk/optee/optee_os/lib/libutee/tee_api_objects.c:139
    1ecc:	2a1303e0 	mov	w0, w19
    1ed0:	940002bb 	bl	29bc <TEE_Panic>
/home/nk/optee/optee_os/lib/libutee/tee_api_objects.c:142
    1ed4:	2a1303e0 	mov	w0, w19
    1ed8:	a94153f3 	ldp	x19, x20, [sp, #16]
    1edc:	a9425bf5 	ldp	x21, x22, [sp, #32]
    1ee0:	a8c77bfd 	ldp	x29, x30, [sp], #112
    1ee4:	d65f03c0 	ret
/home/nk/optee/optee_os/lib/libutee/tee_api_objects.c:124
    1ee8:	129fff33 	mov	w19, #0xffff0006            	// #-65530
    1eec:	17ffffed 	b	1ea0 <TEE_GetObjectBufferAttribute+0x5c>

0000000000001ef0 <TEE_GetObjectValueAttribute>:
TEE_GetObjectValueAttribute():
/home/nk/optee/optee_os/lib/libutee/tee_api_objects.c:147
    1ef0:	a9b97bfd 	stp	x29, x30, [sp, #-112]!
    1ef4:	910003fd 	mov	x29, sp
    1ef8:	a9025bf5 	stp	x21, x22, [sp, #32]
    1efc:	2a0103f6 	mov	w22, w1
/home/nk/optee/optee_os/lib/libutee/tee_api_objects.c:151
    1f00:	d2800101 	mov	x1, #0x8                   	// #8
/home/nk/optee/optee_os/lib/libutee/tee_api_objects.c:147
    1f04:	aa0203f5 	mov	x21, x2
    1f08:	a90153f3 	stp	x19, x20, [sp, #16]
    1f0c:	aa0303f4 	mov	x20, x3
    1f10:	f9001bf7 	str	x23, [sp, #48]
    1f14:	aa0003f7 	mov	x23, x0
/home/nk/optee/optee_os/lib/libutee/tee_api_objects.c:151
    1f18:	f90027e1 	str	x1, [sp, #72]
/home/nk/optee/optee_os/lib/libutee/tee_api_objects.c:153
    1f1c:	910143e1 	add	x1, sp, #0x50
    1f20:	94000356 	bl	2c78 <_utee_cryp_obj_get_info>
    1f24:	2a0003f3 	mov	w19, w0
/home/nk/optee/optee_os/lib/libutee/tee_api_objects.c:154
    1f28:	35000100 	cbnz	w0, 1f48 <TEE_GetObjectValueAttribute+0x58>
/home/nk/optee/optee_os/lib/libutee/tee_api_objects.c:158
    1f2c:	36e80496 	tbz	w22, #29, 1fbc <TEE_GetObjectValueAttribute+0xcc>
/home/nk/optee/optee_os/lib/libutee/tee_api_objects.c:163
    1f30:	910123e3 	add	x3, sp, #0x48
    1f34:	910103e2 	add	x2, sp, #0x40
    1f38:	2a1603e1 	mov	w1, w22
    1f3c:	aa1703e0 	mov	x0, x23
    1f40:	94000354 	bl	2c90 <_utee_cryp_obj_get_attr>
    1f44:	2a0003f3 	mov	w19, w0
/home/nk/optee/optee_os/lib/libutee/tee_api_objects.c:167
    1f48:	7100027f 	cmp	w19, #0x0
    1f4c:	129ffee0 	mov	w0, #0xffff0008            	// #-65528
    1f50:	7a401264 	ccmp	w19, w0, #0x4, ne  // ne = any
    1f54:	54000100 	b.eq	1f74 <TEE_GetObjectValueAttribute+0x84>  // b.none
/home/nk/optee/optee_os/lib/libutee/tee_api_objects.c:169
    1f58:	121e7a61 	and	w1, w19, #0xfffffffd
    1f5c:	52800020 	mov	w0, #0x1                   	// #1
    1f60:	72be0200 	movk	w0, #0xf010, lsl #16
    1f64:	6b00003f 	cmp	w1, w0
    1f68:	54000060 	b.eq	1f74 <TEE_GetObjectValueAttribute+0x84>  // b.none
/home/nk/optee/optee_os/lib/libutee/tee_api_objects.c:171
    1f6c:	2a1303e0 	mov	w0, w19
    1f70:	94000293 	bl	29bc <TEE_Panic>
/home/nk/optee/optee_os/lib/libutee/tee_api_objects.c:173
    1f74:	f94027e0 	ldr	x0, [sp, #72]
    1f78:	f100201f 	cmp	x0, #0x8
    1f7c:	54000060 	b.eq	1f88 <TEE_GetObjectValueAttribute+0x98>  // b.none
/home/nk/optee/optee_os/lib/libutee/tee_api_objects.c:174
    1f80:	52800000 	mov	w0, #0x0                   	// #0
    1f84:	9400028e 	bl	29bc <TEE_Panic>
/home/nk/optee/optee_os/lib/libutee/tee_api_objects.c:176
    1f88:	350000f3 	cbnz	w19, 1fa4 <TEE_GetObjectValueAttribute+0xb4>
/home/nk/optee/optee_os/lib/libutee/tee_api_objects.c:177
    1f8c:	b4000075 	cbz	x21, 1f98 <TEE_GetObjectValueAttribute+0xa8>
/home/nk/optee/optee_os/lib/libutee/tee_api_objects.c:178
    1f90:	b94043e0 	ldr	w0, [sp, #64]
    1f94:	b90002a0 	str	w0, [x21]
/home/nk/optee/optee_os/lib/libutee/tee_api_objects.c:179
    1f98:	b4000074 	cbz	x20, 1fa4 <TEE_GetObjectValueAttribute+0xb4>
/home/nk/optee/optee_os/lib/libutee/tee_api_objects.c:180
    1f9c:	b94047e0 	ldr	w0, [sp, #68]
    1fa0:	b9000280 	str	w0, [x20]
/home/nk/optee/optee_os/lib/libutee/tee_api_objects.c:184
    1fa4:	2a1303e0 	mov	w0, w19
    1fa8:	a94153f3 	ldp	x19, x20, [sp, #16]
    1fac:	a9425bf5 	ldp	x21, x22, [sp, #32]
    1fb0:	f9401bf7 	ldr	x23, [sp, #48]
    1fb4:	a8c77bfd 	ldp	x29, x30, [sp], #112
    1fb8:	d65f03c0 	ret
/home/nk/optee/optee_os/lib/libutee/tee_api_objects.c:159
    1fbc:	129fff33 	mov	w19, #0xffff0006            	// #-65530
    1fc0:	17ffffe2 	b	1f48 <TEE_GetObjectValueAttribute+0x58>

0000000000001fc4 <TEE_CloseObject>:
TEE_CloseObject():
/home/nk/optee/optee_os/lib/libutee/tee_api_objects.c:190
    1fc4:	b4000120 	cbz	x0, 1fe8 <TEE_CloseObject+0x24>
/home/nk/optee/optee_os/lib/libutee/tee_api_objects.c:187
    1fc8:	a9bf7bfd 	stp	x29, x30, [sp, #-16]!
    1fcc:	910003fd 	mov	x29, sp
/home/nk/optee/optee_os/lib/libutee/tee_api_objects.c:193
    1fd0:	94000336 	bl	2ca8 <_utee_cryp_obj_close>
/home/nk/optee/optee_os/lib/libutee/tee_api_objects.c:194
    1fd4:	34000060 	cbz	w0, 1fe0 <TEE_CloseObject+0x1c>
/home/nk/optee/optee_os/lib/libutee/tee_api_objects.c:196
    1fd8:	a8c17bfd 	ldp	x29, x30, [sp], #16
/home/nk/optee/optee_os/lib/libutee/tee_api_objects.c:195
    1fdc:	14000278 	b	29bc <TEE_Panic>
/home/nk/optee/optee_os/lib/libutee/tee_api_objects.c:196
    1fe0:	a8c17bfd 	ldp	x29, x30, [sp], #16
    1fe4:	d65f03c0 	ret
    1fe8:	d65f03c0 	ret

0000000000001fec <TEE_AllocateTransientObject>:
TEE_AllocateTransientObject():
/home/nk/optee/optee_os/lib/libutee/tee_api_objects.c:203
    1fec:	a9bd7bfd 	stp	x29, x30, [sp, #-48]!
/home/nk/optee/optee_os/lib/libutee/tee_api_objects.c:207
    1ff0:	2a0103e1 	mov	w1, w1
    1ff4:	2a0003e0 	mov	w0, w0
/home/nk/optee/optee_os/lib/libutee/tee_api_objects.c:203
    1ff8:	910003fd 	mov	x29, sp
    1ffc:	a90153f3 	stp	x19, x20, [sp, #16]
    2000:	aa0203f4 	mov	x20, x2
/home/nk/optee/optee_os/lib/libutee/tee_api_objects.c:207
    2004:	9100b3e2 	add	x2, sp, #0x2c
    2008:	94000325 	bl	2c9c <_utee_cryp_obj_alloc>
/home/nk/optee/optee_os/lib/libutee/tee_api_objects.c:209
    200c:	7100001f 	cmp	w0, #0x0
    2010:	129ffe61 	mov	w1, #0xffff000c            	// #-65524
/home/nk/optee/optee_os/lib/libutee/tee_api_objects.c:207
    2014:	2a0003f3 	mov	w19, w0
/home/nk/optee/optee_os/lib/libutee/tee_api_objects.c:209
    2018:	7a411004 	ccmp	w0, w1, #0x4, ne  // ne = any
    201c:	54000120 	b.eq	2040 <TEE_AllocateTransientObject+0x54>  // b.none
/home/nk/optee/optee_os/lib/libutee/tee_api_objects.c:210
    2020:	129ffea1 	mov	w1, #0xffff000a            	// #-65526
    2024:	6b01001f 	cmp	w0, w1
    2028:	54000040 	b.eq	2030 <TEE_AllocateTransientObject+0x44>  // b.none
/home/nk/optee/optee_os/lib/libutee/tee_api_objects.c:212
    202c:	94000264 	bl	29bc <TEE_Panic>
/home/nk/optee/optee_os/lib/libutee/tee_api_objects.c:218
    2030:	2a1303e0 	mov	w0, w19
    2034:	a94153f3 	ldp	x19, x20, [sp, #16]
    2038:	a8c37bfd 	ldp	x29, x30, [sp], #48
    203c:	d65f03c0 	ret
/home/nk/optee/optee_os/lib/libutee/tee_api_objects.c:214
    2040:	35ffff80 	cbnz	w0, 2030 <TEE_AllocateTransientObject+0x44>
/home/nk/optee/optee_os/lib/libutee/tee_api_objects.c:215
    2044:	b9402fe0 	ldr	w0, [sp, #44]
    2048:	f9000280 	str	x0, [x20]
/home/nk/optee/optee_os/lib/libutee/tee_api_objects.c:217
    204c:	17fffff9 	b	2030 <TEE_AllocateTransientObject+0x44>

0000000000002050 <TEE_FreeTransientObject>:
TEE_FreeTransientObject():
/home/nk/optee/optee_os/lib/libutee/tee_api_objects.c:225
    2050:	b4000280 	cbz	x0, 20a0 <TEE_FreeTransientObject+0x50>
/home/nk/optee/optee_os/lib/libutee/tee_api_objects.c:221
    2054:	a9bc7bfd 	stp	x29, x30, [sp, #-64]!
    2058:	910003fd 	mov	x29, sp
/home/nk/optee/optee_os/lib/libutee/tee_api_objects.c:228
    205c:	910083e1 	add	x1, sp, #0x20
/home/nk/optee/optee_os/lib/libutee/tee_api_objects.c:221
    2060:	f9000bf3 	str	x19, [sp, #16]
    2064:	aa0003f3 	mov	x19, x0
/home/nk/optee/optee_os/lib/libutee/tee_api_objects.c:228
    2068:	94000304 	bl	2c78 <_utee_cryp_obj_get_info>
/home/nk/optee/optee_os/lib/libutee/tee_api_objects.c:229
    206c:	34000040 	cbz	w0, 2074 <TEE_FreeTransientObject+0x24>
/home/nk/optee/optee_os/lib/libutee/tee_api_objects.c:230
    2070:	94000253 	bl	29bc <TEE_Panic>
/home/nk/optee/optee_os/lib/libutee/tee_api_objects.c:232
    2074:	b9403be0 	ldr	w0, [sp, #56]
    2078:	36800060 	tbz	w0, #16, 2084 <TEE_FreeTransientObject+0x34>
/home/nk/optee/optee_os/lib/libutee/tee_api_objects.c:233
    207c:	52800000 	mov	w0, #0x0                   	// #0
    2080:	9400024f 	bl	29bc <TEE_Panic>
/home/nk/optee/optee_os/lib/libutee/tee_api_objects.c:235
    2084:	aa1303e0 	mov	x0, x19
    2088:	94000308 	bl	2ca8 <_utee_cryp_obj_close>
/home/nk/optee/optee_os/lib/libutee/tee_api_objects.c:236
    208c:	34000040 	cbz	w0, 2094 <TEE_FreeTransientObject+0x44>
/home/nk/optee/optee_os/lib/libutee/tee_api_objects.c:237
    2090:	9400024b 	bl	29bc <TEE_Panic>
/home/nk/optee/optee_os/lib/libutee/tee_api_objects.c:238
    2094:	f9400bf3 	ldr	x19, [sp, #16]
    2098:	a8c47bfd 	ldp	x29, x30, [sp], #64
    209c:	d65f03c0 	ret
    20a0:	d65f03c0 	ret

00000000000020a4 <TEE_ResetTransientObject>:
TEE_ResetTransientObject():
/home/nk/optee/optee_os/lib/libutee/tee_api_objects.c:245
    20a4:	b4000280 	cbz	x0, 20f4 <TEE_ResetTransientObject+0x50>
/home/nk/optee/optee_os/lib/libutee/tee_api_objects.c:241
    20a8:	a9bc7bfd 	stp	x29, x30, [sp, #-64]!
    20ac:	910003fd 	mov	x29, sp
/home/nk/optee/optee_os/lib/libutee/tee_api_objects.c:248
    20b0:	910083e1 	add	x1, sp, #0x20
/home/nk/optee/optee_os/lib/libutee/tee_api_objects.c:241
    20b4:	f9000bf3 	str	x19, [sp, #16]
    20b8:	aa0003f3 	mov	x19, x0
/home/nk/optee/optee_os/lib/libutee/tee_api_objects.c:248
    20bc:	940002ef 	bl	2c78 <_utee_cryp_obj_get_info>
/home/nk/optee/optee_os/lib/libutee/tee_api_objects.c:249
    20c0:	34000040 	cbz	w0, 20c8 <TEE_ResetTransientObject+0x24>
/home/nk/optee/optee_os/lib/libutee/tee_api_objects.c:250
    20c4:	9400023e 	bl	29bc <TEE_Panic>
/home/nk/optee/optee_os/lib/libutee/tee_api_objects.c:252
    20c8:	b9403be0 	ldr	w0, [sp, #56]
    20cc:	36800060 	tbz	w0, #16, 20d8 <TEE_ResetTransientObject+0x34>
/home/nk/optee/optee_os/lib/libutee/tee_api_objects.c:253
    20d0:	52800000 	mov	w0, #0x0                   	// #0
    20d4:	9400023a 	bl	29bc <TEE_Panic>
/home/nk/optee/optee_os/lib/libutee/tee_api_objects.c:255
    20d8:	aa1303e0 	mov	x0, x19
    20dc:	940002f6 	bl	2cb4 <_utee_cryp_obj_reset>
/home/nk/optee/optee_os/lib/libutee/tee_api_objects.c:256
    20e0:	34000040 	cbz	w0, 20e8 <TEE_ResetTransientObject+0x44>
/home/nk/optee/optee_os/lib/libutee/tee_api_objects.c:257
    20e4:	94000236 	bl	29bc <TEE_Panic>
/home/nk/optee/optee_os/lib/libutee/tee_api_objects.c:258
    20e8:	f9400bf3 	ldr	x19, [sp, #16]
    20ec:	a8c47bfd 	ldp	x29, x30, [sp], #64
    20f0:	d65f03c0 	ret
    20f4:	d65f03c0 	ret

00000000000020f8 <TEE_PopulateTransientObject>:
TEE_PopulateTransientObject():
/home/nk/optee/optee_os/lib/libutee/tee_api_objects.c:263
    20f8:	a9ba7bfd 	stp	x29, x30, [sp, #-96]!
    20fc:	910003fd 	mov	x29, sp
    2100:	a9025bf5 	stp	x21, x22, [sp, #32]
    2104:	2a0203f6 	mov	w22, w2
    2108:	aa0003f5 	mov	x21, x0
    210c:	f9001bf7 	str	x23, [sp, #48]
    2110:	aa0103f7 	mov	x23, x1
/home/nk/optee/optee_os/lib/libutee/tee_api_objects.c:266
    2114:	52800301 	mov	w1, #0x18                  	// #24
/home/nk/optee/optee_os/lib/libutee/tee_api_objects.c:263
    2118:	a90153f3 	stp	x19, x20, [sp, #16]
    211c:	aa1603f3 	mov	x19, x22
/home/nk/optee/optee_os/lib/libutee/tee_api_objects.c:266
    2120:	9ba17ec1 	umull	x1, w22, w1
    2124:	91003c21 	add	x1, x1, #0xf
    2128:	927c8421 	and	x1, x1, #0x3ffffffff0
    212c:	cb2163ff 	sub	sp, sp, x1
/home/nk/optee/optee_os/lib/libutee/tee_api_objects.c:268
    2130:	910103a1 	add	x1, x29, #0x40
/home/nk/optee/optee_os/lib/libutee/tee_api_objects.c:266
    2134:	910003f4 	mov	x20, sp
/home/nk/optee/optee_os/lib/libutee/tee_api_objects.c:268
    2138:	940002d0 	bl	2c78 <_utee_cryp_obj_get_info>
/home/nk/optee/optee_os/lib/libutee/tee_api_objects.c:269
    213c:	34000040 	cbz	w0, 2144 <TEE_PopulateTransientObject+0x4c>
/home/nk/optee/optee_os/lib/libutee/tee_api_objects.c:270
    2140:	9400021f 	bl	29bc <TEE_Panic>
/home/nk/optee/optee_os/lib/libutee/tee_api_objects.c:273
    2144:	b9405ba0 	ldr	w0, [x29, #88]
    2148:	36800060 	tbz	w0, #16, 2154 <TEE_PopulateTransientObject+0x5c>
/home/nk/optee/optee_os/lib/libutee/tee_api_objects.c:274
    214c:	52800000 	mov	w0, #0x0                   	// #0
    2150:	9400021b 	bl	29bc <TEE_Panic>
/home/nk/optee/optee_os/lib/libutee/tee_api_objects.c:277
    2154:	b9405ba0 	ldr	w0, [x29, #88]
    2158:	36880060 	tbz	w0, #17, 2164 <TEE_PopulateTransientObject+0x6c>
/home/nk/optee/optee_os/lib/libutee/tee_api_objects.c:278
    215c:	52800000 	mov	w0, #0x0                   	// #0
    2160:	94000217 	bl	29bc <TEE_Panic>
/home/nk/optee/optee_os/lib/libutee/tee_api_objects.c:280
    2164:	2a1303e2 	mov	w2, w19
    2168:	aa1703e1 	mov	x1, x23
    216c:	aa1403e0 	mov	x0, x20
    2170:	97fffeda 	bl	1cd8 <__utee_from_attr>
/home/nk/optee/optee_os/lib/libutee/tee_api_objects.c:281
    2174:	aa1403e1 	mov	x1, x20
    2178:	aa1603e2 	mov	x2, x22
    217c:	aa1503e0 	mov	x0, x21
    2180:	940002d0 	bl	2cc0 <_utee_cryp_obj_populate>
/home/nk/optee/optee_os/lib/libutee/tee_api_objects.c:282
    2184:	7100001f 	cmp	w0, #0x0
    2188:	129fff21 	mov	w1, #0xffff0006            	// #-65530
/home/nk/optee/optee_os/lib/libutee/tee_api_objects.c:281
    218c:	2a0003f3 	mov	w19, w0
/home/nk/optee/optee_os/lib/libutee/tee_api_objects.c:282
    2190:	7a411004 	ccmp	w0, w1, #0x4, ne  // ne = any
    2194:	54000040 	b.eq	219c <TEE_PopulateTransientObject+0xa4>  // b.none
/home/nk/optee/optee_os/lib/libutee/tee_api_objects.c:283
    2198:	94000209 	bl	29bc <TEE_Panic>
/home/nk/optee/optee_os/lib/libutee/tee_api_objects.c:285
    219c:	910003bf 	mov	sp, x29
    21a0:	2a1303e0 	mov	w0, w19
    21a4:	a94153f3 	ldp	x19, x20, [sp, #16]
    21a8:	a9425bf5 	ldp	x21, x22, [sp, #32]
    21ac:	f9401bf7 	ldr	x23, [sp, #48]
    21b0:	a8c67bfd 	ldp	x29, x30, [sp], #96
    21b4:	d65f03c0 	ret

00000000000021b8 <TEE_InitRefAttribute>:
TEE_InitRefAttribute():
/home/nk/optee/optee_os/lib/libutee/tee_api_objects.c:289
    21b8:	a9bd7bfd 	stp	x29, x30, [sp, #-48]!
    21bc:	910003fd 	mov	x29, sp
    21c0:	a90153f3 	stp	x19, x20, [sp, #16]
    21c4:	aa0003f3 	mov	x19, x0
    21c8:	2a0103f4 	mov	w20, w1
    21cc:	a9025bf5 	stp	x21, x22, [sp, #32]
    21d0:	aa0203f6 	mov	x22, x2
    21d4:	2a0303f5 	mov	w21, w3
/home/nk/optee/optee_os/lib/libutee/tee_api_objects.c:290
    21d8:	b5000060 	cbnz	x0, 21e4 <TEE_InitRefAttribute+0x2c>
/home/nk/optee/optee_os/lib/libutee/tee_api_objects.c:291
    21dc:	52800000 	mov	w0, #0x0                   	// #0
    21e0:	940001f7 	bl	29bc <TEE_Panic>
/home/nk/optee/optee_os/lib/libutee/tee_api_objects.c:292
    21e4:	36e80074 	tbz	w20, #29, 21f0 <TEE_InitRefAttribute+0x38>
/home/nk/optee/optee_os/lib/libutee/tee_api_objects.c:293
    21e8:	52800000 	mov	w0, #0x0                   	// #0
    21ec:	940001f4 	bl	29bc <TEE_Panic>
/home/nk/optee/optee_os/lib/libutee/tee_api_objects.c:294
    21f0:	b9000274 	str	w20, [x19]
/home/nk/optee/optee_os/lib/libutee/tee_api_objects.c:295
    21f4:	f9000676 	str	x22, [x19, #8]
/home/nk/optee/optee_os/lib/libutee/tee_api_objects.c:296
    21f8:	b9001275 	str	w21, [x19, #16]
/home/nk/optee/optee_os/lib/libutee/tee_api_objects.c:297
    21fc:	a94153f3 	ldp	x19, x20, [sp, #16]
    2200:	a9425bf5 	ldp	x21, x22, [sp, #32]
    2204:	a8c37bfd 	ldp	x29, x30, [sp], #48
    2208:	d65f03c0 	ret

000000000000220c <TEE_InitValueAttribute>:
TEE_InitValueAttribute():
/home/nk/optee/optee_os/lib/libutee/tee_api_objects.c:301
    220c:	a9bd7bfd 	stp	x29, x30, [sp, #-48]!
    2210:	910003fd 	mov	x29, sp
    2214:	a90153f3 	stp	x19, x20, [sp, #16]
    2218:	aa0003f3 	mov	x19, x0
    221c:	2a0103f4 	mov	w20, w1
    2220:	a9025bf5 	stp	x21, x22, [sp, #32]
    2224:	2a0203f6 	mov	w22, w2
    2228:	2a0303f5 	mov	w21, w3
/home/nk/optee/optee_os/lib/libutee/tee_api_objects.c:302
    222c:	b5000060 	cbnz	x0, 2238 <TEE_InitValueAttribute+0x2c>
/home/nk/optee/optee_os/lib/libutee/tee_api_objects.c:303
    2230:	52800000 	mov	w0, #0x0                   	// #0
    2234:	940001e2 	bl	29bc <TEE_Panic>
/home/nk/optee/optee_os/lib/libutee/tee_api_objects.c:304
    2238:	37e80074 	tbnz	w20, #29, 2244 <TEE_InitValueAttribute+0x38>
/home/nk/optee/optee_os/lib/libutee/tee_api_objects.c:305
    223c:	52800000 	mov	w0, #0x0                   	// #0
    2240:	940001df 	bl	29bc <TEE_Panic>
/home/nk/optee/optee_os/lib/libutee/tee_api_objects.c:306
    2244:	b9000274 	str	w20, [x19]
/home/nk/optee/optee_os/lib/libutee/tee_api_objects.c:308
    2248:	29015676 	stp	w22, w21, [x19, #8]
/home/nk/optee/optee_os/lib/libutee/tee_api_objects.c:309
    224c:	a94153f3 	ldp	x19, x20, [sp, #16]
    2250:	a9425bf5 	ldp	x21, x22, [sp, #32]
    2254:	a8c37bfd 	ldp	x29, x30, [sp], #48
    2258:	d65f03c0 	ret

000000000000225c <TEE_CopyObjectAttributes1>:
TEE_CopyObjectAttributes1():
/home/nk/optee/optee_os/lib/libutee/tee_api_objects.c:334
    225c:	a9b97bfd 	stp	x29, x30, [sp, #-112]!
    2260:	910003fd 	mov	x29, sp
    2264:	a90153f3 	stp	x19, x20, [sp, #16]
    2268:	aa0103f4 	mov	x20, x1
/home/nk/optee/optee_os/lib/libutee/tee_api_objects.c:339
    226c:	9100c3e1 	add	x1, sp, #0x30
/home/nk/optee/optee_os/lib/libutee/tee_api_objects.c:334
    2270:	f90013f5 	str	x21, [sp, #32]
    2274:	aa0003f5 	mov	x21, x0
/home/nk/optee/optee_os/lib/libutee/tee_api_objects.c:339
    2278:	94000280 	bl	2c78 <_utee_cryp_obj_get_info>
    227c:	2a0003f3 	mov	w19, w0
/home/nk/optee/optee_os/lib/libutee/tee_api_objects.c:340
    2280:	350002a0 	cbnz	w0, 22d4 <TEE_CopyObjectAttributes1+0x78>
/home/nk/optee/optee_os/lib/libutee/tee_api_objects.c:343
    2284:	910143e1 	add	x1, sp, #0x50
    2288:	aa1403e0 	mov	x0, x20
    228c:	9400027b 	bl	2c78 <_utee_cryp_obj_get_info>
    2290:	2a0003f3 	mov	w19, w0
/home/nk/optee/optee_os/lib/libutee/tee_api_objects.c:344
    2294:	35000200 	cbnz	w0, 22d4 <TEE_CopyObjectAttributes1+0x78>
/home/nk/optee/optee_os/lib/libutee/tee_api_objects.c:347
    2298:	b9406be1 	ldr	w1, [sp, #104]
    229c:	37880041 	tbnz	w1, #17, 22a4 <TEE_CopyObjectAttributes1+0x48>
/home/nk/optee/optee_os/lib/libutee/tee_api_objects.c:348
    22a0:	940001c7 	bl	29bc <TEE_Panic>
/home/nk/optee/optee_os/lib/libutee/tee_api_objects.c:350
    22a4:	b9404be0 	ldr	w0, [sp, #72]
    22a8:	36800060 	tbz	w0, #16, 22b4 <TEE_CopyObjectAttributes1+0x58>
/home/nk/optee/optee_os/lib/libutee/tee_api_objects.c:351
    22ac:	52800000 	mov	w0, #0x0                   	// #0
    22b0:	940001c3 	bl	29bc <TEE_Panic>
/home/nk/optee/optee_os/lib/libutee/tee_api_objects.c:353
    22b4:	b9404be0 	ldr	w0, [sp, #72]
    22b8:	36880060 	tbz	w0, #17, 22c4 <TEE_CopyObjectAttributes1+0x68>
/home/nk/optee/optee_os/lib/libutee/tee_api_objects.c:354
    22bc:	52800000 	mov	w0, #0x0                   	// #0
    22c0:	940001bf 	bl	29bc <TEE_Panic>
/home/nk/optee/optee_os/lib/libutee/tee_api_objects.c:356
    22c4:	aa1403e1 	mov	x1, x20
    22c8:	aa1503e0 	mov	x0, x21
    22cc:	94000280 	bl	2ccc <_utee_cryp_obj_copy>
    22d0:	2a0003f3 	mov	w19, w0
/home/nk/optee/optee_os/lib/libutee/tee_api_objects.c:361
    22d4:	121e7a60 	and	w0, w19, #0xfffffffd
/home/nk/optee/optee_os/lib/libutee/tee_api_objects.c:360
    22d8:	7100027f 	cmp	w19, #0x0
    22dc:	52800021 	mov	w1, #0x1                   	// #1
    22e0:	72be0201 	movk	w1, #0xf010, lsl #16
    22e4:	7a411004 	ccmp	w0, w1, #0x4, ne  // ne = any
    22e8:	54000060 	b.eq	22f4 <TEE_CopyObjectAttributes1+0x98>  // b.none
/home/nk/optee/optee_os/lib/libutee/tee_api_objects.c:363
    22ec:	2a1303e0 	mov	w0, w19
    22f0:	940001b3 	bl	29bc <TEE_Panic>
/home/nk/optee/optee_os/lib/libutee/tee_api_objects.c:366
    22f4:	2a1303e0 	mov	w0, w19
    22f8:	a94153f3 	ldp	x19, x20, [sp, #16]
    22fc:	f94013f5 	ldr	x21, [sp, #32]
    2300:	a8c77bfd 	ldp	x29, x30, [sp], #112
    2304:	d65f03c0 	ret

0000000000002308 <TEE_CopyObjectAttributes>:
TEE_CopyObjectAttributes():
/home/nk/optee/optee_os/lib/libutee/tee_api_objects.c:319
    2308:	a9bc7bfd 	stp	x29, x30, [sp, #-64]!
    230c:	910003fd 	mov	x29, sp
    2310:	a90153f3 	stp	x19, x20, [sp, #16]
    2314:	aa0103f3 	mov	x19, x1
    2318:	aa0003f4 	mov	x20, x0
/home/nk/optee/optee_os/lib/libutee/tee_api_objects.c:323
    231c:	910083e1 	add	x1, sp, #0x20
    2320:	aa1303e0 	mov	x0, x19
    2324:	94000255 	bl	2c78 <_utee_cryp_obj_get_info>
/home/nk/optee/optee_os/lib/libutee/tee_api_objects.c:324
    2328:	b94023e1 	ldr	w1, [sp, #32]
    232c:	528017c0 	mov	w0, #0xbe                  	// #190
    2330:	72b40000 	movk	w0, #0xa000, lsl #16
    2334:	6b00003f 	cmp	w1, w0
    2338:	540000c0 	b.eq	2350 <TEE_CopyObjectAttributes+0x48>  // b.none
/home/nk/optee/optee_os/lib/libutee/tee_api_objects.c:327
    233c:	aa1303e1 	mov	x1, x19
    2340:	aa1403e0 	mov	x0, x20
    2344:	97ffffc6 	bl	225c <TEE_CopyObjectAttributes1>
/home/nk/optee/optee_os/lib/libutee/tee_api_objects.c:328
    2348:	34000040 	cbz	w0, 2350 <TEE_CopyObjectAttributes+0x48>
/home/nk/optee/optee_os/lib/libutee/tee_api_objects.c:329
    234c:	9400019c 	bl	29bc <TEE_Panic>
/home/nk/optee/optee_os/lib/libutee/tee_api_objects.c:330
    2350:	a94153f3 	ldp	x19, x20, [sp, #16]
    2354:	a8c47bfd 	ldp	x29, x30, [sp], #64
    2358:	d65f03c0 	ret

000000000000235c <TEE_GenerateKey>:
TEE_GenerateKey():
/home/nk/optee/optee_os/lib/libutee/tee_api_objects.c:370
    235c:	a9bd7bfd 	stp	x29, x30, [sp, #-48]!
    2360:	910003fd 	mov	x29, sp
    2364:	a9025bf5 	stp	x21, x22, [sp, #32]
    2368:	aa0003f5 	mov	x21, x0
/home/nk/optee/optee_os/lib/libutee/tee_api_objects.c:372
    236c:	52800300 	mov	w0, #0x18                  	// #24
/home/nk/optee/optee_os/lib/libutee/tee_api_objects.c:370
    2370:	a90153f3 	stp	x19, x20, [sp, #16]
    2374:	2a0103f6 	mov	w22, w1
/home/nk/optee/optee_os/lib/libutee/tee_api_objects.c:372
    2378:	9ba07c60 	umull	x0, w3, w0
/home/nk/optee/optee_os/lib/libutee/tee_api_objects.c:370
    237c:	2a0303f3 	mov	w19, w3
    2380:	aa0203e1 	mov	x1, x2
/home/nk/optee/optee_os/lib/libutee/tee_api_objects.c:372
    2384:	91003c00 	add	x0, x0, #0xf
/home/nk/optee/optee_os/lib/libutee/tee_api_objects.c:374
    2388:	2a0303e2 	mov	w2, w3
/home/nk/optee/optee_os/lib/libutee/tee_api_objects.c:372
    238c:	927c8400 	and	x0, x0, #0x3ffffffff0
    2390:	cb2063ff 	sub	sp, sp, x0
    2394:	910003f4 	mov	x20, sp
/home/nk/optee/optee_os/lib/libutee/tee_api_objects.c:374
    2398:	aa1403e0 	mov	x0, x20
    239c:	97fffe4f 	bl	1cd8 <__utee_from_attr>
/home/nk/optee/optee_os/lib/libutee/tee_api_objects.c:375
    23a0:	2a1303e3 	mov	w3, w19
    23a4:	2a1603e1 	mov	w1, w22
    23a8:	aa1403e2 	mov	x2, x20
    23ac:	aa1503e0 	mov	x0, x21
    23b0:	9400028c 	bl	2de0 <_utee_cryp_obj_generate_key>
/home/nk/optee/optee_os/lib/libutee/tee_api_objects.c:378
    23b4:	7100001f 	cmp	w0, #0x0
    23b8:	129fff21 	mov	w1, #0xffff0006            	// #-65530
/home/nk/optee/optee_os/lib/libutee/tee_api_objects.c:375
    23bc:	2a0003f3 	mov	w19, w0
/home/nk/optee/optee_os/lib/libutee/tee_api_objects.c:378
    23c0:	7a411004 	ccmp	w0, w1, #0x4, ne  // ne = any
    23c4:	54000040 	b.eq	23cc <TEE_GenerateKey+0x70>  // b.none
/home/nk/optee/optee_os/lib/libutee/tee_api_objects.c:379
    23c8:	9400017d 	bl	29bc <TEE_Panic>
/home/nk/optee/optee_os/lib/libutee/tee_api_objects.c:382
    23cc:	910003bf 	mov	sp, x29
    23d0:	2a1303e0 	mov	w0, w19
    23d4:	a94153f3 	ldp	x19, x20, [sp, #16]
    23d8:	a9425bf5 	ldp	x21, x22, [sp, #32]
    23dc:	a8c37bfd 	ldp	x29, x30, [sp], #48
    23e0:	d65f03c0 	ret

00000000000023e4 <TEE_OpenPersistentObject>:
TEE_OpenPersistentObject():
/home/nk/optee/optee_os/lib/libutee/tee_api_objects.c:389
    23e4:	a9bd7bfd 	stp	x29, x30, [sp, #-48]!
    23e8:	910003fd 	mov	x29, sp
    23ec:	a90153f3 	stp	x19, x20, [sp, #16]
    23f0:	aa0403f4 	mov	x20, x4
/home/nk/optee/optee_os/lib/libutee/tee_api_objects.c:393
    23f4:	b40003c1 	cbz	x1, 246c <TEE_OpenPersistentObject+0x88>
/home/nk/optee/optee_os/lib/libutee/tee_api_objects.c:398
    23f8:	7101005f 	cmp	w2, #0x40
    23fc:	540003c8 	b.hi	2474 <TEE_OpenPersistentObject+0x90>  // b.pmore
/home/nk/optee/optee_os/lib/libutee/tee_api_objects.c:403
    2400:	9100b3e4 	add	x4, sp, #0x2c
    2404:	2a0303e3 	mov	w3, w3
    2408:	2a0203e2 	mov	w2, w2
    240c:	2a0003e0 	mov	w0, w0
    2410:	9400024d 	bl	2d44 <_utee_storage_obj_open>
    2414:	2a0003f3 	mov	w19, w0
/home/nk/optee/optee_os/lib/libutee/tee_api_objects.c:405
    2418:	35000060 	cbnz	w0, 2424 <TEE_OpenPersistentObject+0x40>
/home/nk/optee/optee_os/lib/libutee/tee_api_objects.c:406
    241c:	b9402fe0 	ldr	w0, [sp, #44]
    2420:	f9000280 	str	x0, [x20]
/home/nk/optee/optee_os/lib/libutee/tee_api_objects.c:409
    2424:	7100027f 	cmp	w19, #0x0
    2428:	129ffee0 	mov	w0, #0xffff0008            	// #-65528
    242c:	7a401264 	ccmp	w19, w0, #0x4, ne  // ne = any
    2430:	54000260 	b.eq	247c <TEE_OpenPersistentObject+0x98>  // b.none
/home/nk/optee/optee_os/lib/libutee/tee_api_objects.c:411
    2434:	129fff80 	mov	w0, #0xffff0003            	// #-65533
    2438:	6b00027f 	cmp	w19, w0
    243c:	129ffe60 	mov	w0, #0xffff000c            	// #-65524
    2440:	7a401264 	ccmp	w19, w0, #0x4, ne  // ne = any
    2444:	54000100 	b.eq	2464 <TEE_OpenPersistentObject+0x80>  // b.none
/home/nk/optee/optee_os/lib/libutee/tee_api_objects.c:413
    2448:	121e7a61 	and	w1, w19, #0xfffffffd
    244c:	52800020 	mov	w0, #0x1                   	// #1
    2450:	72be0200 	movk	w0, #0xf010, lsl #16
    2454:	6b00003f 	cmp	w1, w0
    2458:	54000060 	b.eq	2464 <TEE_OpenPersistentObject+0x80>  // b.none
/home/nk/optee/optee_os/lib/libutee/tee_api_objects.c:415
    245c:	2a1303e0 	mov	w0, w19
    2460:	94000157 	bl	29bc <TEE_Panic>
/home/nk/optee/optee_os/lib/libutee/tee_api_objects.c:418
    2464:	f900029f 	str	xzr, [x20]
/home/nk/optee/optee_os/lib/libutee/tee_api_objects.c:420
    2468:	14000006 	b	2480 <TEE_OpenPersistentObject+0x9c>
/home/nk/optee/optee_os/lib/libutee/tee_api_objects.c:394
    246c:	129ffef3 	mov	w19, #0xffff0008            	// #-65528
    2470:	17ffffed 	b	2424 <TEE_OpenPersistentObject+0x40>
/home/nk/optee/optee_os/lib/libutee/tee_api_objects.c:399
    2474:	129fff33 	mov	w19, #0xffff0006            	// #-65530
    2478:	17ffffeb 	b	2424 <TEE_OpenPersistentObject+0x40>
/home/nk/optee/optee_os/lib/libutee/tee_api_objects.c:417
    247c:	35ffff53 	cbnz	w19, 2464 <TEE_OpenPersistentObject+0x80>
/home/nk/optee/optee_os/lib/libutee/tee_api_objects.c:421
    2480:	2a1303e0 	mov	w0, w19
    2484:	a94153f3 	ldp	x19, x20, [sp, #16]
    2488:	a8c37bfd 	ldp	x29, x30, [sp], #48
    248c:	d65f03c0 	ret

0000000000002490 <TEE_CreatePersistentObject>:
TEE_CreatePersistentObject():
/home/nk/optee/optee_os/lib/libutee/tee_api_objects.c:429
    2490:	a9bd7bfd 	stp	x29, x30, [sp, #-48]!
    2494:	910003fd 	mov	x29, sp
    2498:	a90153f3 	stp	x19, x20, [sp, #16]
    249c:	aa0703f4 	mov	x20, x7
/home/nk/optee/optee_os/lib/libutee/tee_api_objects.c:433
    24a0:	b4000421 	cbz	x1, 2524 <TEE_CreatePersistentObject+0x94>
/home/nk/optee/optee_os/lib/libutee/tee_api_objects.c:438
    24a4:	7101005f 	cmp	w2, #0x40
    24a8:	54000428 	b.hi	252c <TEE_CreatePersistentObject+0x9c>  // b.pmore
/home/nk/optee/optee_os/lib/libutee/tee_api_objects.c:443
    24ac:	9100b3e7 	add	x7, sp, #0x2c
    24b0:	2a0603e6 	mov	w6, w6
    24b4:	2a0303e3 	mov	w3, w3
    24b8:	2a0203e2 	mov	w2, w2
    24bc:	2a0003e0 	mov	w0, w0
    24c0:	94000224 	bl	2d50 <_utee_storage_obj_create>
    24c4:	2a0003f3 	mov	w19, w0
/home/nk/optee/optee_os/lib/libutee/tee_api_objects.c:447
    24c8:	35000060 	cbnz	w0, 24d4 <TEE_CreatePersistentObject+0x44>
/home/nk/optee/optee_os/lib/libutee/tee_api_objects.c:448
    24cc:	b9402fe0 	ldr	w0, [sp, #44]
    24d0:	f9000280 	str	x0, [x20]
/home/nk/optee/optee_os/lib/libutee/tee_api_objects.c:451
    24d4:	7100027f 	cmp	w19, #0x0
    24d8:	129ffee0 	mov	w0, #0xffff0008            	// #-65528
    24dc:	7a401264 	ccmp	w19, w0, #0x4, ne  // ne = any
    24e0:	540002a0 	b.eq	2534 <TEE_CreatePersistentObject+0xa4>  // b.none
/home/nk/optee/optee_os/lib/libutee/tee_api_objects.c:453
    24e4:	129fff80 	mov	w0, #0xffff0003            	// #-65533
    24e8:	6b00027f 	cmp	w19, w0
    24ec:	129ffe60 	mov	w0, #0xffff000c            	// #-65524
    24f0:	7a401264 	ccmp	w19, w0, #0x4, ne  // ne = any
    24f4:	54000140 	b.eq	251c <TEE_CreatePersistentObject+0x8c>  // b.none
/home/nk/optee/optee_os/lib/libutee/tee_api_objects.c:456
    24f8:	121e7a61 	and	w1, w19, #0xfffffffd
/home/nk/optee/optee_os/lib/libutee/tee_api_objects.c:455
    24fc:	52800020 	mov	w0, #0x1                   	// #1
    2500:	72be0200 	movk	w0, #0xf010, lsl #16
    2504:	6b00003f 	cmp	w1, w0
    2508:	1299f7c0 	mov	w0, #0xffff3041            	// #-53183
    250c:	7a401264 	ccmp	w19, w0, #0x4, ne  // ne = any
    2510:	54000060 	b.eq	251c <TEE_CreatePersistentObject+0x8c>  // b.none
/home/nk/optee/optee_os/lib/libutee/tee_api_objects.c:458
    2514:	2a1303e0 	mov	w0, w19
    2518:	94000129 	bl	29bc <TEE_Panic>
/home/nk/optee/optee_os/lib/libutee/tee_api_objects.c:461
    251c:	f900029f 	str	xzr, [x20]
    2520:	14000006 	b	2538 <TEE_CreatePersistentObject+0xa8>
/home/nk/optee/optee_os/lib/libutee/tee_api_objects.c:434
    2524:	129ffef3 	mov	w19, #0xffff0008            	// #-65528
    2528:	17ffffeb 	b	24d4 <TEE_CreatePersistentObject+0x44>
/home/nk/optee/optee_os/lib/libutee/tee_api_objects.c:439
    252c:	129fff33 	mov	w19, #0xffff0006            	// #-65530
    2530:	17ffffe9 	b	24d4 <TEE_CreatePersistentObject+0x44>
/home/nk/optee/optee_os/lib/libutee/tee_api_objects.c:460
    2534:	35ffff53 	cbnz	w19, 251c <TEE_CreatePersistentObject+0x8c>
/home/nk/optee/optee_os/lib/libutee/tee_api_objects.c:464
    2538:	2a1303e0 	mov	w0, w19
    253c:	a94153f3 	ldp	x19, x20, [sp, #16]
    2540:	a8c37bfd 	ldp	x29, x30, [sp], #48
    2544:	d65f03c0 	ret

0000000000002548 <TEE_CloseAndDeletePersistentObject1>:
TEE_CloseAndDeletePersistentObject1():
/home/nk/optee/optee_os/lib/libutee/tee_api_objects.c:486
    2548:	a9be7bfd 	stp	x29, x30, [sp, #-32]!
    254c:	910003fd 	mov	x29, sp
    2550:	a90153f3 	stp	x19, x20, [sp, #16]
    2554:	52800074 	mov	w20, #0x3                   	// #3
    2558:	72be0214 	movk	w20, #0xf010, lsl #16
/home/nk/optee/optee_os/lib/libutee/tee_api_objects.c:489
    255c:	b4000160 	cbz	x0, 2588 <TEE_CloseAndDeletePersistentObject1+0x40>
/home/nk/optee/optee_os/lib/libutee/tee_api_objects.c:492
    2560:	940001ff 	bl	2d5c <_utee_storage_obj_del>
/home/nk/optee/optee_os/lib/libutee/tee_api_objects.c:494
    2564:	7100001f 	cmp	w0, #0x0
/home/nk/optee/optee_os/lib/libutee/tee_api_objects.c:492
    2568:	2a0003f3 	mov	w19, w0
/home/nk/optee/optee_os/lib/libutee/tee_api_objects.c:494
    256c:	7a541004 	ccmp	w0, w20, #0x4, ne  // ne = any
    2570:	54000040 	b.eq	2578 <TEE_CloseAndDeletePersistentObject1+0x30>  // b.none
/home/nk/optee/optee_os/lib/libutee/tee_api_objects.c:495
    2574:	94000112 	bl	29bc <TEE_Panic>
/home/nk/optee/optee_os/lib/libutee/tee_api_objects.c:498
    2578:	2a1303e0 	mov	w0, w19
    257c:	a94153f3 	ldp	x19, x20, [sp, #16]
    2580:	a8c27bfd 	ldp	x29, x30, [sp], #32
    2584:	d65f03c0 	ret
/home/nk/optee/optee_os/lib/libutee/tee_api_objects.c:490
    2588:	2a1403f3 	mov	w19, w20
    258c:	17fffffb 	b	2578 <TEE_CloseAndDeletePersistentObject1+0x30>

0000000000002590 <TEE_CloseAndDeletePersistentObject>:
TEE_CloseAndDeletePersistentObject():
/home/nk/optee/optee_os/lib/libutee/tee_api_objects.c:476
    2590:	b4000140 	cbz	x0, 25b8 <TEE_CloseAndDeletePersistentObject+0x28>
/home/nk/optee/optee_os/lib/libutee/tee_api_objects.c:473
    2594:	a9bf7bfd 	stp	x29, x30, [sp, #-16]!
    2598:	910003fd 	mov	x29, sp
/home/nk/optee/optee_os/lib/libutee/tee_api_objects.c:479
    259c:	97ffffeb 	bl	2548 <TEE_CloseAndDeletePersistentObject1>
/home/nk/optee/optee_os/lib/libutee/tee_api_objects.c:481
    25a0:	34000080 	cbz	w0, 25b0 <TEE_CloseAndDeletePersistentObject+0x20>
/home/nk/optee/optee_os/lib/libutee/tee_api_objects.c:483
    25a4:	a8c17bfd 	ldp	x29, x30, [sp], #16
/home/nk/optee/optee_os/lib/libutee/tee_api_objects.c:482
    25a8:	52800000 	mov	w0, #0x0                   	// #0
    25ac:	14000104 	b	29bc <TEE_Panic>
/home/nk/optee/optee_os/lib/libutee/tee_api_objects.c:483
    25b0:	a8c17bfd 	ldp	x29, x30, [sp], #16
    25b4:	d65f03c0 	ret
    25b8:	d65f03c0 	ret

00000000000025bc <TEE_RenamePersistentObject>:
TEE_RenamePersistentObject():
/home/nk/optee/optee_os/lib/libutee/tee_api_objects.c:504
    25bc:	a9be7bfd 	stp	x29, x30, [sp, #-32]!
    25c0:	910003fd 	mov	x29, sp
    25c4:	f9000bf3 	str	x19, [sp, #16]
/home/nk/optee/optee_os/lib/libutee/tee_api_objects.c:507
    25c8:	b40002c0 	cbz	x0, 2620 <TEE_RenamePersistentObject+0x64>
/home/nk/optee/optee_os/lib/libutee/tee_api_objects.c:512
    25cc:	b40002e1 	cbz	x1, 2628 <TEE_RenamePersistentObject+0x6c>
/home/nk/optee/optee_os/lib/libutee/tee_api_objects.c:517
    25d0:	7101005f 	cmp	w2, #0x40
    25d4:	540002a8 	b.hi	2628 <TEE_RenamePersistentObject+0x6c>  // b.pmore
/home/nk/optee/optee_os/lib/libutee/tee_api_objects.c:522
    25d8:	2a0203e2 	mov	w2, w2
    25dc:	940001e3 	bl	2d68 <_utee_storage_obj_rename>
    25e0:	2a0003f3 	mov	w19, w0
/home/nk/optee/optee_os/lib/libutee/tee_api_objects.c:526
    25e4:	7100027f 	cmp	w19, #0x0
    25e8:	129fff80 	mov	w0, #0xffff0003            	// #-65533
    25ec:	7a401264 	ccmp	w19, w0, #0x4, ne  // ne = any
    25f0:	54000100 	b.eq	2610 <TEE_RenamePersistentObject+0x54>  // b.none
/home/nk/optee/optee_os/lib/libutee/tee_api_objects.c:528
    25f4:	121e7a61 	and	w1, w19, #0xfffffffd
    25f8:	52800020 	mov	w0, #0x1                   	// #1
    25fc:	72be0200 	movk	w0, #0xf010, lsl #16
    2600:	6b00003f 	cmp	w1, w0
    2604:	54000060 	b.eq	2610 <TEE_RenamePersistentObject+0x54>  // b.none
/home/nk/optee/optee_os/lib/libutee/tee_api_objects.c:530
    2608:	2a1303e0 	mov	w0, w19
    260c:	940000ec 	bl	29bc <TEE_Panic>
/home/nk/optee/optee_os/lib/libutee/tee_api_objects.c:533
    2610:	2a1303e0 	mov	w0, w19
    2614:	f9400bf3 	ldr	x19, [sp, #16]
    2618:	a8c27bfd 	ldp	x29, x30, [sp], #32
    261c:	d65f03c0 	ret
/home/nk/optee/optee_os/lib/libutee/tee_api_objects.c:508
    2620:	129ffef3 	mov	w19, #0xffff0008            	// #-65528
    2624:	17fffff0 	b	25e4 <TEE_RenamePersistentObject+0x28>
/home/nk/optee/optee_os/lib/libutee/tee_api_objects.c:513
    2628:	129fff33 	mov	w19, #0xffff0006            	// #-65530
    262c:	17ffffee 	b	25e4 <TEE_RenamePersistentObject+0x28>

0000000000002630 <TEE_AllocatePersistentObjectEnumerator>:
TEE_AllocatePersistentObjectEnumerator():
/home/nk/optee/optee_os/lib/libutee/tee_api_objects.c:537
    2630:	a9bd7bfd 	stp	x29, x30, [sp, #-48]!
    2634:	910003fd 	mov	x29, sp
    2638:	a90153f3 	stp	x19, x20, [sp, #16]
/home/nk/optee/optee_os/lib/libutee/tee_api_objects.c:541
    263c:	b4000260 	cbz	x0, 2688 <TEE_AllocatePersistentObjectEnumerator+0x58>
    2640:	aa0003f4 	mov	x20, x0
/home/nk/optee/optee_os/lib/libutee/tee_api_objects.c:544
    2644:	9100b3e0 	add	x0, sp, #0x2c
    2648:	940001cb 	bl	2d74 <_utee_storage_alloc_enum>
    264c:	2a0003f3 	mov	w19, w0
/home/nk/optee/optee_os/lib/libutee/tee_api_objects.c:546
    2650:	34000040 	cbz	w0, 2658 <TEE_AllocatePersistentObjectEnumerator+0x28>
/home/nk/optee/optee_os/lib/libutee/tee_api_objects.c:547
    2654:	b9002fff 	str	wzr, [sp, #44]
/home/nk/optee/optee_os/lib/libutee/tee_api_objects.c:549
    2658:	b9402fe0 	ldr	w0, [sp, #44]
/home/nk/optee/optee_os/lib/libutee/tee_api_objects.c:551
    265c:	7100027f 	cmp	w19, #0x0
/home/nk/optee/optee_os/lib/libutee/tee_api_objects.c:549
    2660:	f9000280 	str	x0, [x20]
/home/nk/optee/optee_os/lib/libutee/tee_api_objects.c:551
    2664:	129fff80 	mov	w0, #0xffff0003            	// #-65533
    2668:	7a401264 	ccmp	w19, w0, #0x4, ne  // ne = any
    266c:	54000060 	b.eq	2678 <TEE_AllocatePersistentObjectEnumerator+0x48>  // b.none
/home/nk/optee/optee_os/lib/libutee/tee_api_objects.c:553
    2670:	2a1303e0 	mov	w0, w19
    2674:	940000d2 	bl	29bc <TEE_Panic>
/home/nk/optee/optee_os/lib/libutee/tee_api_objects.c:556
    2678:	2a1303e0 	mov	w0, w19
    267c:	a94153f3 	ldp	x19, x20, [sp, #16]
    2680:	a8c37bfd 	ldp	x29, x30, [sp], #48
    2684:	d65f03c0 	ret
/home/nk/optee/optee_os/lib/libutee/tee_api_objects.c:542
    2688:	129fff33 	mov	w19, #0xffff0006            	// #-65530
    268c:	17fffffb 	b	2678 <TEE_AllocatePersistentObjectEnumerator+0x48>

0000000000002690 <TEE_FreePersistentObjectEnumerator>:
TEE_FreePersistentObjectEnumerator():
/home/nk/optee/optee_os/lib/libutee/tee_api_objects.c:562
    2690:	b4000120 	cbz	x0, 26b4 <TEE_FreePersistentObjectEnumerator+0x24>
/home/nk/optee/optee_os/lib/libutee/tee_api_objects.c:559
    2694:	a9bf7bfd 	stp	x29, x30, [sp, #-16]!
    2698:	910003fd 	mov	x29, sp
/home/nk/optee/optee_os/lib/libutee/tee_api_objects.c:565
    269c:	940001b9 	bl	2d80 <_utee_storage_free_enum>
/home/nk/optee/optee_os/lib/libutee/tee_api_objects.c:567
    26a0:	34000060 	cbz	w0, 26ac <TEE_FreePersistentObjectEnumerator+0x1c>
/home/nk/optee/optee_os/lib/libutee/tee_api_objects.c:569
    26a4:	a8c17bfd 	ldp	x29, x30, [sp], #16
/home/nk/optee/optee_os/lib/libutee/tee_api_objects.c:568
    26a8:	140000c5 	b	29bc <TEE_Panic>
/home/nk/optee/optee_os/lib/libutee/tee_api_objects.c:569
    26ac:	a8c17bfd 	ldp	x29, x30, [sp], #16
    26b0:	d65f03c0 	ret
    26b4:	d65f03c0 	ret

00000000000026b8 <TEE_ResetPersistentObjectEnumerator>:
TEE_ResetPersistentObjectEnumerator():
/home/nk/optee/optee_os/lib/libutee/tee_api_objects.c:575
    26b8:	b4000120 	cbz	x0, 26dc <TEE_ResetPersistentObjectEnumerator+0x24>
/home/nk/optee/optee_os/lib/libutee/tee_api_objects.c:572
    26bc:	a9bf7bfd 	stp	x29, x30, [sp, #-16]!
    26c0:	910003fd 	mov	x29, sp
/home/nk/optee/optee_os/lib/libutee/tee_api_objects.c:578
    26c4:	940001b2 	bl	2d8c <_utee_storage_reset_enum>
/home/nk/optee/optee_os/lib/libutee/tee_api_objects.c:580
    26c8:	34000060 	cbz	w0, 26d4 <TEE_ResetPersistentObjectEnumerator+0x1c>
/home/nk/optee/optee_os/lib/libutee/tee_api_objects.c:582
    26cc:	a8c17bfd 	ldp	x29, x30, [sp], #16
/home/nk/optee/optee_os/lib/libutee/tee_api_objects.c:581
    26d0:	140000bb 	b	29bc <TEE_Panic>
/home/nk/optee/optee_os/lib/libutee/tee_api_objects.c:582
    26d4:	a8c17bfd 	ldp	x29, x30, [sp], #16
    26d8:	d65f03c0 	ret
    26dc:	d65f03c0 	ret

00000000000026e0 <TEE_StartPersistentObjectEnumerator>:
TEE_StartPersistentObjectEnumerator():
/home/nk/optee/optee_os/lib/libutee/tee_api_objects.c:587
    26e0:	a9be7bfd 	stp	x29, x30, [sp, #-32]!
/home/nk/optee/optee_os/lib/libutee/tee_api_objects.c:590
    26e4:	2a0103e1 	mov	w1, w1
/home/nk/optee/optee_os/lib/libutee/tee_api_objects.c:587
    26e8:	910003fd 	mov	x29, sp
    26ec:	f9000bf3 	str	x19, [sp, #16]
/home/nk/optee/optee_os/lib/libutee/tee_api_objects.c:590
    26f0:	940001aa 	bl	2d98 <_utee_storage_start_enum>
/home/nk/optee/optee_os/lib/libutee/tee_api_objects.c:593
    26f4:	7100001f 	cmp	w0, #0x0
    26f8:	129ffee1 	mov	w1, #0xffff0008            	// #-65528
/home/nk/optee/optee_os/lib/libutee/tee_api_objects.c:590
    26fc:	2a0003f3 	mov	w19, w0
/home/nk/optee/optee_os/lib/libutee/tee_api_objects.c:593
    2700:	7a411004 	ccmp	w0, w1, #0x4, ne  // ne = any
    2704:	540000e0 	b.eq	2720 <TEE_StartPersistentObjectEnumerator+0x40>  // b.none
/home/nk/optee/optee_os/lib/libutee/tee_api_objects.c:595
    2708:	121e7802 	and	w2, w0, #0xfffffffd
    270c:	52800021 	mov	w1, #0x1                   	// #1
    2710:	72be0201 	movk	w1, #0xf010, lsl #16
    2714:	6b01005f 	cmp	w2, w1
    2718:	54000040 	b.eq	2720 <TEE_StartPersistentObjectEnumerator+0x40>  // b.none
/home/nk/optee/optee_os/lib/libutee/tee_api_objects.c:597
    271c:	940000a8 	bl	29bc <TEE_Panic>
/home/nk/optee/optee_os/lib/libutee/tee_api_objects.c:600
    2720:	2a1303e0 	mov	w0, w19
    2724:	f9400bf3 	ldr	x19, [sp, #16]
    2728:	a8c27bfd 	ldp	x29, x30, [sp], #32
    272c:	d65f03c0 	ret

0000000000002730 <TEE_GetNextPersistentObject>:
TEE_GetNextPersistentObject():
/home/nk/optee/optee_os/lib/libutee/tee_api_objects.c:605
    2730:	a9bb7bfd 	stp	x29, x30, [sp, #-80]!
    2734:	910003fd 	mov	x29, sp
    2738:	a90153f3 	stp	x19, x20, [sp, #16]
/home/nk/optee/optee_os/lib/libutee/tee_api_objects.c:611
    273c:	b4000362 	cbz	x2, 27a8 <TEE_GetNextPersistentObject+0x78>
    2740:	aa0303f4 	mov	x20, x3
/home/nk/optee/optee_os/lib/libutee/tee_api_objects.c:616
    2744:	b4000323 	cbz	x3, 27a8 <TEE_GetNextPersistentObject+0x78>
/home/nk/optee/optee_os/lib/libutee/tee_api_objects.c:621
    2748:	b5000041 	cbnz	x1, 2750 <TEE_GetNextPersistentObject+0x20>
/home/nk/optee/optee_os/lib/libutee/tee_api_objects.c:624
    274c:	9100c3e1 	add	x1, sp, #0x30
/home/nk/optee/optee_os/lib/libutee/tee_api_objects.c:625
    2750:	b9400283 	ldr	w3, [x20]
    2754:	f90017e3 	str	x3, [sp, #40]
/home/nk/optee/optee_os/lib/libutee/tee_api_objects.c:626
    2758:	9100a3e3 	add	x3, sp, #0x28
    275c:	94000192 	bl	2da4 <_utee_storage_next_enum>
    2760:	2a0003f3 	mov	w19, w0
/home/nk/optee/optee_os/lib/libutee/tee_api_objects.c:628
    2764:	f94017e0 	ldr	x0, [sp, #40]
    2768:	b9000280 	str	w0, [x20]
/home/nk/optee/optee_os/lib/libutee/tee_api_objects.c:631
    276c:	7100027f 	cmp	w19, #0x0
    2770:	129ffee0 	mov	w0, #0xffff0008            	// #-65528
    2774:	7a401264 	ccmp	w19, w0, #0x4, ne  // ne = any
    2778:	54000100 	b.eq	2798 <TEE_GetNextPersistentObject+0x68>  // b.none
/home/nk/optee/optee_os/lib/libutee/tee_api_objects.c:633
    277c:	121e7a61 	and	w1, w19, #0xfffffffd
    2780:	52800020 	mov	w0, #0x1                   	// #1
    2784:	72be0200 	movk	w0, #0xf010, lsl #16
    2788:	6b00003f 	cmp	w1, w0
    278c:	54000060 	b.eq	2798 <TEE_GetNextPersistentObject+0x68>  // b.none
/home/nk/optee/optee_os/lib/libutee/tee_api_objects.c:635
    2790:	2a1303e0 	mov	w0, w19
    2794:	9400008a 	bl	29bc <TEE_Panic>
/home/nk/optee/optee_os/lib/libutee/tee_api_objects.c:638
    2798:	2a1303e0 	mov	w0, w19
    279c:	a94153f3 	ldp	x19, x20, [sp, #16]
    27a0:	a8c57bfd 	ldp	x29, x30, [sp], #80
    27a4:	d65f03c0 	ret
/home/nk/optee/optee_os/lib/libutee/tee_api_objects.c:612
    27a8:	129fff33 	mov	w19, #0xffff0006            	// #-65530
    27ac:	17fffff0 	b	276c <TEE_GetNextPersistentObject+0x3c>

00000000000027b0 <TEE_ReadObjectData>:
TEE_ReadObjectData():
/home/nk/optee/optee_os/lib/libutee/tee_api_objects.c:644
    27b0:	a9bd7bfd 	stp	x29, x30, [sp, #-48]!
    27b4:	910003fd 	mov	x29, sp
    27b8:	a90153f3 	stp	x19, x20, [sp, #16]
/home/nk/optee/optee_os/lib/libutee/tee_api_objects.c:648
    27bc:	b40002c0 	cbz	x0, 2814 <TEE_ReadObjectData+0x64>
    27c0:	aa0303f4 	mov	x20, x3
/home/nk/optee/optee_os/lib/libutee/tee_api_objects.c:653
    27c4:	b9400063 	ldr	w3, [x3]
/home/nk/optee/optee_os/lib/libutee/tee_api_objects.c:654
    27c8:	2a0203e2 	mov	w2, w2
/home/nk/optee/optee_os/lib/libutee/tee_api_objects.c:653
    27cc:	f90017e3 	str	x3, [sp, #40]
/home/nk/optee/optee_os/lib/libutee/tee_api_objects.c:654
    27d0:	9100a3e3 	add	x3, sp, #0x28
    27d4:	94000177 	bl	2db0 <_utee_storage_obj_read>
    27d8:	2a0003f3 	mov	w19, w0
/home/nk/optee/optee_os/lib/libutee/tee_api_objects.c:656
    27dc:	f94017e0 	ldr	x0, [sp, #40]
    27e0:	b9000280 	str	w0, [x20]
/home/nk/optee/optee_os/lib/libutee/tee_api_objects.c:660
    27e4:	121e7a60 	and	w0, w19, #0xfffffffd
/home/nk/optee/optee_os/lib/libutee/tee_api_objects.c:659
    27e8:	7100027f 	cmp	w19, #0x0
    27ec:	52800021 	mov	w1, #0x1                   	// #1
    27f0:	72be0201 	movk	w1, #0xf010, lsl #16
    27f4:	7a411004 	ccmp	w0, w1, #0x4, ne  // ne = any
    27f8:	54000060 	b.eq	2804 <TEE_ReadObjectData+0x54>  // b.none
/home/nk/optee/optee_os/lib/libutee/tee_api_objects.c:662
    27fc:	2a1303e0 	mov	w0, w19
    2800:	9400006f 	bl	29bc <TEE_Panic>
/home/nk/optee/optee_os/lib/libutee/tee_api_objects.c:665
    2804:	2a1303e0 	mov	w0, w19
    2808:	a94153f3 	ldp	x19, x20, [sp, #16]
    280c:	a8c37bfd 	ldp	x29, x30, [sp], #48
    2810:	d65f03c0 	ret
/home/nk/optee/optee_os/lib/libutee/tee_api_objects.c:649
    2814:	129fff33 	mov	w19, #0xffff0006            	// #-65530
    2818:	17fffff3 	b	27e4 <TEE_ReadObjectData+0x34>

000000000000281c <TEE_WriteObjectData>:
TEE_WriteObjectData():
/home/nk/optee/optee_os/lib/libutee/tee_api_objects.c:669
    281c:	a9be7bfd 	stp	x29, x30, [sp, #-32]!
    2820:	910003fd 	mov	x29, sp
    2824:	f9000bf3 	str	x19, [sp, #16]
/home/nk/optee/optee_os/lib/libutee/tee_api_objects.c:672
    2828:	b40002a0 	cbz	x0, 287c <TEE_WriteObjectData+0x60>
/home/nk/optee/optee_os/lib/libutee/tee_api_objects.c:682
    282c:	2a0203e2 	mov	w2, w2
    2830:	94000163 	bl	2dbc <_utee_storage_obj_write>
    2834:	2a0003f3 	mov	w19, w0
/home/nk/optee/optee_os/lib/libutee/tee_api_objects.c:685
    2838:	7100027f 	cmp	w19, #0x0
    283c:	1299f7c0 	mov	w0, #0xffff3041            	// #-53183
    2840:	7a401264 	ccmp	w19, w0, #0x4, ne  // ne = any
    2844:	54000140 	b.eq	286c <TEE_WriteObjectData+0x50>  // b.none
/home/nk/optee/optee_os/lib/libutee/tee_api_objects.c:688
    2848:	121e7a61 	and	w1, w19, #0xfffffffd
/home/nk/optee/optee_os/lib/libutee/tee_api_objects.c:687
    284c:	52800020 	mov	w0, #0x1                   	// #1
    2850:	72be0200 	movk	w0, #0xf010, lsl #16
    2854:	6b00003f 	cmp	w1, w0
    2858:	1299fe00 	mov	w0, #0xffff300f            	// #-53233
    285c:	7a401264 	ccmp	w19, w0, #0x4, ne  // ne = any
    2860:	54000060 	b.eq	286c <TEE_WriteObjectData+0x50>  // b.none
/home/nk/optee/optee_os/lib/libutee/tee_api_objects.c:690
    2864:	2a1303e0 	mov	w0, w19
    2868:	94000055 	bl	29bc <TEE_Panic>
/home/nk/optee/optee_os/lib/libutee/tee_api_objects.c:693
    286c:	2a1303e0 	mov	w0, w19
    2870:	f9400bf3 	ldr	x19, [sp, #16]
    2874:	a8c27bfd 	ldp	x29, x30, [sp], #32
    2878:	d65f03c0 	ret
/home/nk/optee/optee_os/lib/libutee/tee_api_objects.c:673
    287c:	129fff33 	mov	w19, #0xffff0006            	// #-65530
    2880:	17ffffee 	b	2838 <TEE_WriteObjectData+0x1c>

0000000000002884 <TEE_TruncateObjectData>:
TEE_TruncateObjectData():
/home/nk/optee/optee_os/lib/libutee/tee_api_objects.c:696
    2884:	a9be7bfd 	stp	x29, x30, [sp, #-32]!
    2888:	910003fd 	mov	x29, sp
    288c:	f9000bf3 	str	x19, [sp, #16]
/home/nk/optee/optee_os/lib/libutee/tee_api_objects.c:699
    2890:	b4000260 	cbz	x0, 28dc <TEE_TruncateObjectData+0x58>
/home/nk/optee/optee_os/lib/libutee/tee_api_objects.c:704
    2894:	2a0103e1 	mov	w1, w1
    2898:	9400014c 	bl	2dc8 <_utee_storage_obj_trunc>
    289c:	2a0003f3 	mov	w19, w0
/home/nk/optee/optee_os/lib/libutee/tee_api_objects.c:707
    28a0:	7100027f 	cmp	w19, #0x0
    28a4:	1299f7c0 	mov	w0, #0xffff3041            	// #-53183
    28a8:	7a401264 	ccmp	w19, w0, #0x4, ne  // ne = any
    28ac:	54000100 	b.eq	28cc <TEE_TruncateObjectData+0x48>  // b.none
/home/nk/optee/optee_os/lib/libutee/tee_api_objects.c:709
    28b0:	121e7a61 	and	w1, w19, #0xfffffffd
    28b4:	52800020 	mov	w0, #0x1                   	// #1
    28b8:	72be0200 	movk	w0, #0xf010, lsl #16
    28bc:	6b00003f 	cmp	w1, w0
    28c0:	54000060 	b.eq	28cc <TEE_TruncateObjectData+0x48>  // b.none
/home/nk/optee/optee_os/lib/libutee/tee_api_objects.c:711
    28c4:	2a1303e0 	mov	w0, w19
    28c8:	9400003d 	bl	29bc <TEE_Panic>
/home/nk/optee/optee_os/lib/libutee/tee_api_objects.c:714
    28cc:	2a1303e0 	mov	w0, w19
    28d0:	f9400bf3 	ldr	x19, [sp, #16]
    28d4:	a8c27bfd 	ldp	x29, x30, [sp], #32
    28d8:	d65f03c0 	ret
/home/nk/optee/optee_os/lib/libutee/tee_api_objects.c:700
    28dc:	129fff33 	mov	w19, #0xffff0006            	// #-65530
    28e0:	17fffff0 	b	28a0 <TEE_TruncateObjectData+0x1c>

00000000000028e4 <TEE_SeekObjectData>:
TEE_SeekObjectData():
/home/nk/optee/optee_os/lib/libutee/tee_api_objects.c:718
    28e4:	a9bb7bfd 	stp	x29, x30, [sp, #-80]!
    28e8:	910003fd 	mov	x29, sp
    28ec:	a90153f3 	stp	x19, x20, [sp, #16]
    28f0:	a9025bf5 	stp	x21, x22, [sp, #32]
/home/nk/optee/optee_os/lib/libutee/tee_api_objects.c:722
    28f4:	b40005c0 	cbz	x0, 29ac <TEE_SeekObjectData+0xc8>
    28f8:	aa0003f6 	mov	x22, x0
    28fc:	2a0103f4 	mov	w20, w1
    2900:	2a0203f5 	mov	w21, w2
/home/nk/optee/optee_os/lib/libutee/tee_api_objects.c:727
    2904:	9100c3e1 	add	x1, sp, #0x30
    2908:	940000dc 	bl	2c78 <_utee_cryp_obj_get_info>
    290c:	2a0003f3 	mov	w19, w0
/home/nk/optee/optee_os/lib/libutee/tee_api_objects.c:728
    2910:	350000e0 	cbnz	w0, 292c <TEE_SeekObjectData+0x48>
/home/nk/optee/optee_os/lib/libutee/tee_api_objects.c:731
    2914:	710006bf 	cmp	w21, #0x1
    2918:	540002a0 	b.eq	296c <TEE_SeekObjectData+0x88>  // b.none
    291c:	34000355 	cbz	w21, 2984 <TEE_SeekObjectData+0xa0>
    2920:	71000abf 	cmp	w21, #0x2
    2924:	540003c0 	b.eq	299c <TEE_SeekObjectData+0xb8>  // b.none
/home/nk/optee/optee_os/lib/libutee/tee_api_objects.c:757
    2928:	129ffef3 	mov	w19, #0xffff0008            	// #-65528
/home/nk/optee/optee_os/lib/libutee/tee_api_objects.c:764
    292c:	7100027f 	cmp	w19, #0x0
    2930:	1299fe00 	mov	w0, #0xffff300f            	// #-53233
    2934:	7a401264 	ccmp	w19, w0, #0x4, ne  // ne = any
    2938:	54000100 	b.eq	2958 <TEE_SeekObjectData+0x74>  // b.none
/home/nk/optee/optee_os/lib/libutee/tee_api_objects.c:766
    293c:	121e7a61 	and	w1, w19, #0xfffffffd
    2940:	52800020 	mov	w0, #0x1                   	// #1
    2944:	72be0200 	movk	w0, #0xf010, lsl #16
    2948:	6b00003f 	cmp	w1, w0
    294c:	54000060 	b.eq	2958 <TEE_SeekObjectData+0x74>  // b.none
/home/nk/optee/optee_os/lib/libutee/tee_api_objects.c:768
    2950:	2a1303e0 	mov	w0, w19
    2954:	9400001a 	bl	29bc <TEE_Panic>
/home/nk/optee/optee_os/lib/libutee/tee_api_objects.c:771
    2958:	2a1303e0 	mov	w0, w19
    295c:	a94153f3 	ldp	x19, x20, [sp, #16]
    2960:	a9425bf5 	ldp	x21, x22, [sp, #32]
    2964:	a8c57bfd 	ldp	x29, x30, [sp], #80
    2968:	d65f03c0 	ret
/home/nk/optee/optee_os/lib/libutee/tee_api_objects.c:739
    296c:	7100029f 	cmp	w20, #0x0
    2970:	540000ad 	b.le	2984 <TEE_SeekObjectData+0xa0>
/home/nk/optee/optee_os/lib/libutee/tee_api_objects.c:742 (discriminator 1)
    2974:	b94047e0 	ldr	w0, [sp, #68]
/home/nk/optee/optee_os/lib/libutee/tee_api_objects.c:751 (discriminator 1)
    2978:	0b000281 	add	w1, w20, w0
/home/nk/optee/optee_os/lib/libutee/tee_api_objects.c:749 (discriminator 1)
    297c:	6b01001f 	cmp	w0, w1
    2980:	540001a8 	b.hi	29b4 <TEE_SeekObjectData+0xd0>  // b.pmore
/home/nk/optee/optee_os/lib/libutee/tee_api_objects.c:761
    2984:	2a1503e2 	mov	w2, w21
    2988:	2a1403e1 	mov	w1, w20
    298c:	aa1603e0 	mov	x0, x22
    2990:	94000111 	bl	2dd4 <_utee_storage_obj_seek>
    2994:	2a0003f3 	mov	w19, w0
    2998:	17ffffe5 	b	292c <TEE_SeekObjectData+0x48>
/home/nk/optee/optee_os/lib/libutee/tee_api_objects.c:749
    299c:	7100029f 	cmp	w20, #0x0
    29a0:	54ffff2d 	b.le	2984 <TEE_SeekObjectData+0xa0>
/home/nk/optee/optee_os/lib/libutee/tee_api_objects.c:751 (discriminator 1)
    29a4:	b94043e0 	ldr	w0, [sp, #64]
    29a8:	17fffff4 	b	2978 <TEE_SeekObjectData+0x94>
/home/nk/optee/optee_os/lib/libutee/tee_api_objects.c:723
    29ac:	129fff33 	mov	w19, #0xffff0006            	// #-65530
    29b0:	17ffffdf 	b	292c <TEE_SeekObjectData+0x48>
/home/nk/optee/optee_os/lib/libutee/tee_api_objects.c:744
    29b4:	1299fe13 	mov	w19, #0xffff300f            	// #-53233
    29b8:	17ffffdd 	b	292c <TEE_SeekObjectData+0x48>

00000000000029bc <TEE_Panic>:
TEE_Panic():
/home/nk/optee/optee_os/lib/libutee/tee_api_panic.c:12
    29bc:	2a0003e0 	mov	w0, w0
    29c0:	14000063 	b	2b4c <_utee_panic>

00000000000029c4 <invoke_system_pta>:
invoke_system_pta():
/home/nk/optee/optee_os/lib/libutee/tee_system_pta.c:15
    29c4:	a9bd7bfd 	stp	x29, x30, [sp, #-48]!
    29c8:	910003fd 	mov	x29, sp
    29cc:	a90153f3 	stp	x19, x20, [sp, #16]
    29d0:	2a0003f4 	mov	w20, w0
/home/nk/optee/optee_os/lib/libutee/tee_system_pta.c:19
    29d4:	f0000040 	adrp	x0, d000 <_DYNAMIC>
/home/nk/optee/optee_os/lib/libutee/tee_system_pta.c:15
    29d8:	a9025bf5 	stp	x21, x22, [sp, #32]
    29dc:	2a0103f5 	mov	w21, w1
    29e0:	aa0203f6 	mov	x22, x2
/home/nk/optee/optee_os/lib/libutee/tee_system_pta.c:19
    29e4:	f9422801 	ldr	x1, [x0, #1104]
    29e8:	aa0003f3 	mov	x19, x0
    29ec:	b4000161 	cbz	x1, 2a18 <invoke_system_pta+0x54>
/home/nk/optee/optee_os/lib/libutee/tee_system_pta.c:27
    29f0:	aa1603e4 	mov	x4, x22
    29f4:	2a1503e3 	mov	w3, w21
    29f8:	2a1403e2 	mov	w2, w20
    29fc:	d2800005 	mov	x5, #0x0                   	// #0
    2a00:	f9422a60 	ldr	x0, [x19, #1104]
    2a04:	12800001 	mov	w1, #0xffffffff            	// #-1
/home/nk/optee/optee_os/lib/libutee/tee_system_pta.c:29
    2a08:	a94153f3 	ldp	x19, x20, [sp, #16]
    2a0c:	a9425bf5 	ldp	x21, x22, [sp, #32]
    2a10:	a8c37bfd 	ldp	x29, x30, [sp], #48
/home/nk/optee/optee_os/lib/libutee/tee_system_pta.c:27
    2a14:	17fffbbc 	b	1904 <TEE_InvokeTACommand>
    2a18:	91114004 	add	x4, x0, #0x450
/home/nk/optee/optee_os/lib/libutee/tee_system_pta.c:20
    2a1c:	d2800005 	mov	x5, #0x0                   	// #0
    2a20:	b0000040 	adrp	x0, b000 <__text_end+0x15f0>
    2a24:	d2800003 	mov	x3, #0x0                   	// #0
    2a28:	52800002 	mov	w2, #0x0                   	// #0
    2a2c:	12800001 	mov	w1, #0xffffffff            	// #-1
    2a30:	9128c000 	add	x0, x0, #0xa30
    2a34:	97fffbf5 	bl	1a08 <TEE_OpenTASession>
/home/nk/optee/optee_os/lib/libutee/tee_system_pta.c:23
    2a38:	34fffdc0 	cbz	w0, 29f0 <invoke_system_pta+0x2c>
/home/nk/optee/optee_os/lib/libutee/tee_system_pta.c:29
    2a3c:	a94153f3 	ldp	x19, x20, [sp, #16]
    2a40:	a9425bf5 	ldp	x21, x22, [sp, #32]
    2a44:	a8c37bfd 	ldp	x29, x30, [sp], #48
    2a48:	d65f03c0 	ret

0000000000002a4c <tee_map_zi>:
tee_map_zi():
/home/nk/optee/optee_os/lib/libutee/tee_system_pta.c:32
    2a4c:	a9ba7bfd 	stp	x29, x30, [sp, #-96]!
/home/nk/optee/optee_os/lib/libutee/tee_system_pta.c:37
    2a50:	d2800782 	mov	x2, #0x3c                  	// #60
/home/nk/optee/optee_os/lib/libutee/tee_system_pta.c:32
    2a54:	910003fd 	mov	x29, sp
    2a58:	a90153f3 	stp	x19, x20, [sp, #16]
    2a5c:	aa0003f4 	mov	x20, x0
    2a60:	2a0103f3 	mov	w19, w1
/home/nk/optee/optee_os/lib/libutee/tee_system_pta.c:37
    2a64:	910093e0 	add	x0, sp, #0x24
    2a68:	52800001 	mov	w1, #0x0                   	// #0
    2a6c:	94001b46 	bl	9784 <memset>
/home/nk/optee/optee_os/lib/libutee/tee_system_pta.c:40
    2a70:	b90023f4 	str	w20, [sp, #32]
/home/nk/optee/optee_os/lib/libutee/tee_system_pta.c:41
    2a74:	f2607e9f 	tst	x20, #0xffffffff00000000
    2a78:	54000060 	b.eq	2a84 <tee_map_zi+0x38>  // b.none
/home/nk/optee/optee_os/lib/libutee/tee_system_pta.c:50
    2a7c:	d2800000 	mov	x0, #0x0                   	// #0
    2a80:	1400000d 	b	2ab4 <tee_map_zi+0x68>
/home/nk/optee/optee_os/lib/libutee/tee_system_pta.c:43
    2a84:	340000b3 	cbz	w19, 2a98 <tee_map_zi+0x4c>
    2a88:	7100127f 	cmp	w19, #0x4
    2a8c:	54ffff81 	b.ne	2a7c <tee_map_zi+0x30>  // b.any
/home/nk/optee/optee_os/lib/libutee/tee_system_pta.c:47
    2a90:	52800020 	mov	w0, #0x1                   	// #1
    2a94:	b90027e0 	str	w0, [sp, #36]
/home/nk/optee/optee_os/lib/libutee/tee_system_pta.c:53
    2a98:	910083e2 	add	x2, sp, #0x20
    2a9c:	52802621 	mov	w1, #0x131                 	// #305
    2aa0:	52800040 	mov	w0, #0x2                   	// #2
    2aa4:	97ffffc8 	bl	29c4 <invoke_system_pta>
/home/nk/optee/optee_os/lib/libutee/tee_system_pta.c:54
    2aa8:	35fffea0 	cbnz	w0, 2a7c <tee_map_zi+0x30>
reg_pair_to_64():
/home/nk/optee/optee_os/lib/libutils/ext/include/util.h:154
    2aac:	294607e0 	ldp	w0, w1, [sp, #48]
    2ab0:	aa008020 	orr	x0, x1, x0, lsl #32
tee_map_zi():
/home/nk/optee/optee_os/lib/libutee/tee_system_pta.c:59
    2ab4:	a94153f3 	ldp	x19, x20, [sp, #16]
    2ab8:	a8c67bfd 	ldp	x29, x30, [sp], #96
    2abc:	d65f03c0 	ret

0000000000002ac0 <tee_unmap>:
tee_unmap():
/home/nk/optee/optee_os/lib/libutee/tee_system_pta.c:62
    2ac0:	a9b97bfd 	stp	x29, x30, [sp, #-112]!
/home/nk/optee/optee_os/lib/libutee/tee_system_pta.c:68
    2ac4:	d2800782 	mov	x2, #0x3c                  	// #60
/home/nk/optee/optee_os/lib/libutee/tee_system_pta.c:62
    2ac8:	910003fd 	mov	x29, sp
    2acc:	a90153f3 	stp	x19, x20, [sp, #16]
    2ad0:	aa0003f3 	mov	x19, x0
/home/nk/optee/optee_os/lib/libutee/tee_system_pta.c:68
    2ad4:	9100d3e0 	add	x0, sp, #0x34
/home/nk/optee/optee_os/lib/libutee/tee_system_pta.c:62
    2ad8:	f90013f5 	str	x21, [sp, #32]
    2adc:	aa0103f5 	mov	x21, x1
/home/nk/optee/optee_os/lib/libutee/tee_system_pta.c:68
    2ae0:	52800001 	mov	w1, #0x0                   	// #0
    2ae4:	94001b28 	bl	9784 <memset>
reg_pair_from_64():
/home/nk/optee/optee_os/lib/libutils/ext/include/util.h:160
    2ae8:	d360fe60 	lsr	x0, x19, #32
tee_unmap():
/home/nk/optee/optee_os/lib/libutee/tee_system_pta.c:73
    2aec:	9100c3e2 	add	x2, sp, #0x30
    2af0:	52800221 	mov	w1, #0x11                  	// #17
/home/nk/optee/optee_os/lib/libutee/tee_system_pta.c:70
    2af4:	b90033f5 	str	w21, [sp, #48]
reg_pair_from_64():
/home/nk/optee/optee_os/lib/libutils/ext/include/util.h:161
    2af8:	29084fe0 	stp	w0, w19, [sp, #64]
tee_unmap():
/home/nk/optee/optee_os/lib/libutee/tee_system_pta.c:73
    2afc:	52800060 	mov	w0, #0x3                   	// #3
    2b00:	97ffffb1 	bl	29c4 <invoke_system_pta>
    2b04:	2a0003f4 	mov	w20, w0
/home/nk/optee/optee_os/lib/libutee/tee_system_pta.c:74
    2b08:	34000180 	cbz	w0, 2b38 <tee_unmap+0x78>
/home/nk/optee/optee_os/lib/libutee/tee_system_pta.c:75
    2b0c:	b0000040 	adrp	x0, b000 <__text_end+0x15f0>
    2b10:	9128c000 	add	x0, x0, #0xa30
    2b14:	b0000044 	adrp	x4, b000 <__text_end+0x15f0>
    2b18:	aa1503e6 	mov	x6, x21
    2b1c:	aa1303e5 	mov	x5, x19
    2b20:	913fe084 	add	x4, x4, #0xff8
    2b24:	52800023 	mov	w3, #0x1                   	// #1
    2b28:	52800022 	mov	w2, #0x1                   	// #1
    2b2c:	52800961 	mov	w1, #0x4b                  	// #75
    2b30:	91004000 	add	x0, x0, #0x10
    2b34:	97fff6d7 	bl	690 <trace_printf>
/home/nk/optee/optee_os/lib/libutee/tee_system_pta.c:78
    2b38:	2a1403e0 	mov	w0, w20
    2b3c:	a94153f3 	ldp	x19, x20, [sp, #16]
    2b40:	f94013f5 	ldr	x21, [sp, #32]
    2b44:	a8c77bfd 	ldp	x29, x30, [sp], #112
    2b48:	d65f03c0 	ret

0000000000002b4c <_utee_panic>:
_utee_panic():
/home/nk/optee/optee_os/lib/libutee/arch/arm/utee_syscalls_a64.S:41
    2b4c:	a9bf7bfd 	stp	x29, x30, [sp, #-16]!
/home/nk/optee/optee_os/lib/libutee/arch/arm/utee_syscalls_a64.S:42
    2b50:	910003e1 	mov	x1, sp
/home/nk/optee/optee_os/lib/libutee/arch/arm/utee_syscalls_a64.S:43
    2b54:	94000007 	bl	2b70 <__utee_panic>

0000000000002b58 <_utee_return>:
_utee_return():
/home/nk/optee/optee_os/lib/libutee/arch/arm/utee_syscalls_asm.S:8
    2b58:	d2800008 	mov	x8, #0x0                   	// #0
    2b5c:	d4000001 	svc	#0x0
    2b60:	d65f03c0 	ret

0000000000002b64 <_utee_log>:
_utee_log():
/home/nk/optee/optee_os/lib/libutee/arch/arm/utee_syscalls_asm.S:10
    2b64:	d2800028 	mov	x8, #0x1                   	// #1
    2b68:	d4000001 	svc	#0x0
    2b6c:	d65f03c0 	ret

0000000000002b70 <__utee_panic>:
__utee_panic():
/home/nk/optee/optee_os/lib/libutee/arch/arm/utee_syscalls_asm.S:12
    2b70:	d2800048 	mov	x8, #0x2                   	// #2
    2b74:	d4000001 	svc	#0x0
    2b78:	d65f03c0 	ret

0000000000002b7c <_utee_get_property>:
_utee_get_property():
/home/nk/optee/optee_os/lib/libutee/arch/arm/utee_syscalls_asm.S:14
    2b7c:	d2800068 	mov	x8, #0x3                   	// #3
    2b80:	d4000001 	svc	#0x0
    2b84:	d65f03c0 	ret

0000000000002b88 <_utee_get_property_name_to_index>:
_utee_get_property_name_to_index():
/home/nk/optee/optee_os/lib/libutee/arch/arm/utee_syscalls_asm.S:16
    2b88:	d2800088 	mov	x8, #0x4                   	// #4
    2b8c:	d4000001 	svc	#0x0
    2b90:	d65f03c0 	ret

0000000000002b94 <_utee_open_ta_session>:
_utee_open_ta_session():
/home/nk/optee/optee_os/lib/libutee/arch/arm/utee_syscalls_asm.S:19
    2b94:	d28000a8 	mov	x8, #0x5                   	// #5
    2b98:	d4000001 	svc	#0x0
    2b9c:	d65f03c0 	ret

0000000000002ba0 <_utee_close_ta_session>:
_utee_close_ta_session():
/home/nk/optee/optee_os/lib/libutee/arch/arm/utee_syscalls_asm.S:21
    2ba0:	d28000c8 	mov	x8, #0x6                   	// #6
    2ba4:	d4000001 	svc	#0x0
    2ba8:	d65f03c0 	ret

0000000000002bac <_utee_invoke_ta_command>:
_utee_invoke_ta_command():
/home/nk/optee/optee_os/lib/libutee/arch/arm/utee_syscalls_asm.S:23
    2bac:	d28000e8 	mov	x8, #0x7                   	// #7
    2bb0:	d4000001 	svc	#0x0
    2bb4:	d65f03c0 	ret

0000000000002bb8 <_utee_get_cancellation_flag>:
_utee_get_cancellation_flag():
/home/nk/optee/optee_os/lib/libutee/arch/arm/utee_syscalls_asm.S:25
    2bb8:	d2800128 	mov	x8, #0x9                   	// #9
    2bbc:	d4000001 	svc	#0x0
    2bc0:	d65f03c0 	ret

0000000000002bc4 <_utee_check_access_rights>:
_utee_check_access_rights():
/home/nk/optee/optee_os/lib/libutee/arch/arm/utee_syscalls_asm.S:28
    2bc4:	d2800108 	mov	x8, #0x8                   	// #8
    2bc8:	d4000001 	svc	#0x0
    2bcc:	d65f03c0 	ret

0000000000002bd0 <_utee_unmask_cancellation>:
_utee_unmask_cancellation():
/home/nk/optee/optee_os/lib/libutee/arch/arm/utee_syscalls_asm.S:30
    2bd0:	d2800148 	mov	x8, #0xa                   	// #10
    2bd4:	d4000001 	svc	#0x0
    2bd8:	d65f03c0 	ret

0000000000002bdc <_utee_mask_cancellation>:
_utee_mask_cancellation():
/home/nk/optee/optee_os/lib/libutee/arch/arm/utee_syscalls_asm.S:32
    2bdc:	d2800168 	mov	x8, #0xb                   	// #11
    2be0:	d4000001 	svc	#0x0
    2be4:	d65f03c0 	ret

0000000000002be8 <_utee_wait>:
_utee_wait():
/home/nk/optee/optee_os/lib/libutee/arch/arm/utee_syscalls_asm.S:34
    2be8:	d2800188 	mov	x8, #0xc                   	// #12
    2bec:	d4000001 	svc	#0x0
    2bf0:	d65f03c0 	ret

0000000000002bf4 <_utee_get_time>:
_utee_get_time():
/home/nk/optee/optee_os/lib/libutee/arch/arm/utee_syscalls_asm.S:36
    2bf4:	d28001a8 	mov	x8, #0xd                   	// #13
    2bf8:	d4000001 	svc	#0x0
    2bfc:	d65f03c0 	ret

0000000000002c00 <_utee_set_ta_time>:
_utee_set_ta_time():
/home/nk/optee/optee_os/lib/libutee/arch/arm/utee_syscalls_asm.S:38
    2c00:	d28001c8 	mov	x8, #0xe                   	// #14
    2c04:	d4000001 	svc	#0x0
    2c08:	d65f03c0 	ret

0000000000002c0c <_utee_cryp_state_alloc>:
_utee_cryp_state_alloc():
/home/nk/optee/optee_os/lib/libutee/arch/arm/utee_syscalls_asm.S:40
    2c0c:	d28001e8 	mov	x8, #0xf                   	// #15
    2c10:	d4000001 	svc	#0x0
    2c14:	d65f03c0 	ret

0000000000002c18 <_utee_cryp_state_copy>:
_utee_cryp_state_copy():
/home/nk/optee/optee_os/lib/libutee/arch/arm/utee_syscalls_asm.S:42
    2c18:	d2800208 	mov	x8, #0x10                  	// #16
    2c1c:	d4000001 	svc	#0x0
    2c20:	d65f03c0 	ret

0000000000002c24 <_utee_cryp_state_free>:
_utee_cryp_state_free():
/home/nk/optee/optee_os/lib/libutee/arch/arm/utee_syscalls_asm.S:44
    2c24:	d2800228 	mov	x8, #0x11                  	// #17
    2c28:	d4000001 	svc	#0x0
    2c2c:	d65f03c0 	ret

0000000000002c30 <_utee_hash_init>:
_utee_hash_init():
/home/nk/optee/optee_os/lib/libutee/arch/arm/utee_syscalls_asm.S:46
    2c30:	d2800248 	mov	x8, #0x12                  	// #18
    2c34:	d4000001 	svc	#0x0
    2c38:	d65f03c0 	ret

0000000000002c3c <_utee_hash_update>:
_utee_hash_update():
/home/nk/optee/optee_os/lib/libutee/arch/arm/utee_syscalls_asm.S:48
    2c3c:	d2800268 	mov	x8, #0x13                  	// #19
    2c40:	d4000001 	svc	#0x0
    2c44:	d65f03c0 	ret

0000000000002c48 <_utee_hash_final>:
_utee_hash_final():
/home/nk/optee/optee_os/lib/libutee/arch/arm/utee_syscalls_asm.S:50
    2c48:	d2800288 	mov	x8, #0x14                  	// #20
    2c4c:	d4000001 	svc	#0x0
    2c50:	d65f03c0 	ret

0000000000002c54 <_utee_cipher_init>:
_utee_cipher_init():
/home/nk/optee/optee_os/lib/libutee/arch/arm/utee_syscalls_asm.S:52
    2c54:	d28002a8 	mov	x8, #0x15                  	// #21
    2c58:	d4000001 	svc	#0x0
    2c5c:	d65f03c0 	ret

0000000000002c60 <_utee_cipher_update>:
_utee_cipher_update():
/home/nk/optee/optee_os/lib/libutee/arch/arm/utee_syscalls_asm.S:54
    2c60:	d28002c8 	mov	x8, #0x16                  	// #22
    2c64:	d4000001 	svc	#0x0
    2c68:	d65f03c0 	ret

0000000000002c6c <_utee_cipher_final>:
_utee_cipher_final():
/home/nk/optee/optee_os/lib/libutee/arch/arm/utee_syscalls_asm.S:56
    2c6c:	d28002e8 	mov	x8, #0x17                  	// #23
    2c70:	d4000001 	svc	#0x0
    2c74:	d65f03c0 	ret

0000000000002c78 <_utee_cryp_obj_get_info>:
_utee_cryp_obj_get_info():
/home/nk/optee/optee_os/lib/libutee/arch/arm/utee_syscalls_asm.S:58
    2c78:	d2800308 	mov	x8, #0x18                  	// #24
    2c7c:	d4000001 	svc	#0x0
    2c80:	d65f03c0 	ret

0000000000002c84 <_utee_cryp_obj_restrict_usage>:
_utee_cryp_obj_restrict_usage():
/home/nk/optee/optee_os/lib/libutee/arch/arm/utee_syscalls_asm.S:60
    2c84:	d2800328 	mov	x8, #0x19                  	// #25
    2c88:	d4000001 	svc	#0x0
    2c8c:	d65f03c0 	ret

0000000000002c90 <_utee_cryp_obj_get_attr>:
_utee_cryp_obj_get_attr():
/home/nk/optee/optee_os/lib/libutee/arch/arm/utee_syscalls_asm.S:63
    2c90:	d2800348 	mov	x8, #0x1a                  	// #26
    2c94:	d4000001 	svc	#0x0
    2c98:	d65f03c0 	ret

0000000000002c9c <_utee_cryp_obj_alloc>:
_utee_cryp_obj_alloc():
/home/nk/optee/optee_os/lib/libutee/arch/arm/utee_syscalls_asm.S:65
    2c9c:	d2800368 	mov	x8, #0x1b                  	// #27
    2ca0:	d4000001 	svc	#0x0
    2ca4:	d65f03c0 	ret

0000000000002ca8 <_utee_cryp_obj_close>:
_utee_cryp_obj_close():
/home/nk/optee/optee_os/lib/libutee/arch/arm/utee_syscalls_asm.S:67
    2ca8:	d2800388 	mov	x8, #0x1c                  	// #28
    2cac:	d4000001 	svc	#0x0
    2cb0:	d65f03c0 	ret

0000000000002cb4 <_utee_cryp_obj_reset>:
_utee_cryp_obj_reset():
/home/nk/optee/optee_os/lib/libutee/arch/arm/utee_syscalls_asm.S:69
    2cb4:	d28003a8 	mov	x8, #0x1d                  	// #29
    2cb8:	d4000001 	svc	#0x0
    2cbc:	d65f03c0 	ret

0000000000002cc0 <_utee_cryp_obj_populate>:
_utee_cryp_obj_populate():
/home/nk/optee/optee_os/lib/libutee/arch/arm/utee_syscalls_asm.S:71
    2cc0:	d28003c8 	mov	x8, #0x1e                  	// #30
    2cc4:	d4000001 	svc	#0x0
    2cc8:	d65f03c0 	ret

0000000000002ccc <_utee_cryp_obj_copy>:
_utee_cryp_obj_copy():
/home/nk/optee/optee_os/lib/libutee/arch/arm/utee_syscalls_asm.S:73
    2ccc:	d28003e8 	mov	x8, #0x1f                  	// #31
    2cd0:	d4000001 	svc	#0x0
    2cd4:	d65f03c0 	ret

0000000000002cd8 <_utee_cryp_derive_key>:
_utee_cryp_derive_key():
/home/nk/optee/optee_os/lib/libutee/arch/arm/utee_syscalls_asm.S:75
    2cd8:	d2800408 	mov	x8, #0x20                  	// #32
    2cdc:	d4000001 	svc	#0x0
    2ce0:	d65f03c0 	ret

0000000000002ce4 <_utee_cryp_random_number_generate>:
_utee_cryp_random_number_generate():
/home/nk/optee/optee_os/lib/libutee/arch/arm/utee_syscalls_asm.S:77
    2ce4:	d2800428 	mov	x8, #0x21                  	// #33
    2ce8:	d4000001 	svc	#0x0
    2cec:	d65f03c0 	ret

0000000000002cf0 <_utee_authenc_init>:
_utee_authenc_init():
/home/nk/optee/optee_os/lib/libutee/arch/arm/utee_syscalls_asm.S:80
    2cf0:	d2800448 	mov	x8, #0x22                  	// #34
    2cf4:	d4000001 	svc	#0x0
    2cf8:	d65f03c0 	ret

0000000000002cfc <_utee_authenc_update_aad>:
_utee_authenc_update_aad():
/home/nk/optee/optee_os/lib/libutee/arch/arm/utee_syscalls_asm.S:82
    2cfc:	d2800468 	mov	x8, #0x23                  	// #35
    2d00:	d4000001 	svc	#0x0
    2d04:	d65f03c0 	ret

0000000000002d08 <_utee_authenc_update_payload>:
_utee_authenc_update_payload():
/home/nk/optee/optee_os/lib/libutee/arch/arm/utee_syscalls_asm.S:84
    2d08:	d2800488 	mov	x8, #0x24                  	// #36
    2d0c:	d4000001 	svc	#0x0
    2d10:	d65f03c0 	ret

0000000000002d14 <_utee_authenc_enc_final>:
_utee_authenc_enc_final():
/home/nk/optee/optee_os/lib/libutee/arch/arm/utee_syscalls_asm.S:87
    2d14:	d28004a8 	mov	x8, #0x25                  	// #37
    2d18:	d4000001 	svc	#0x0
    2d1c:	d65f03c0 	ret

0000000000002d20 <_utee_authenc_dec_final>:
_utee_authenc_dec_final():
/home/nk/optee/optee_os/lib/libutee/arch/arm/utee_syscalls_asm.S:89
    2d20:	d28004c8 	mov	x8, #0x26                  	// #38
    2d24:	d4000001 	svc	#0x0
    2d28:	d65f03c0 	ret

0000000000002d2c <_utee_asymm_operate>:
_utee_asymm_operate():
/home/nk/optee/optee_os/lib/libutee/arch/arm/utee_syscalls_asm.S:91
    2d2c:	d28004e8 	mov	x8, #0x27                  	// #39
    2d30:	d4000001 	svc	#0x0
    2d34:	d65f03c0 	ret

0000000000002d38 <_utee_asymm_verify>:
_utee_asymm_verify():
/home/nk/optee/optee_os/lib/libutee/arch/arm/utee_syscalls_asm.S:93
    2d38:	d2800508 	mov	x8, #0x28                  	// #40
    2d3c:	d4000001 	svc	#0x0
    2d40:	d65f03c0 	ret

0000000000002d44 <_utee_storage_obj_open>:
_utee_storage_obj_open():
/home/nk/optee/optee_os/lib/libutee/arch/arm/utee_syscalls_asm.S:95
    2d44:	d2800528 	mov	x8, #0x29                  	// #41
    2d48:	d4000001 	svc	#0x0
    2d4c:	d65f03c0 	ret

0000000000002d50 <_utee_storage_obj_create>:
_utee_storage_obj_create():
/home/nk/optee/optee_os/lib/libutee/arch/arm/utee_syscalls_asm.S:97
    2d50:	d2800548 	mov	x8, #0x2a                  	// #42
    2d54:	d4000001 	svc	#0x0
    2d58:	d65f03c0 	ret

0000000000002d5c <_utee_storage_obj_del>:
_utee_storage_obj_del():
/home/nk/optee/optee_os/lib/libutee/arch/arm/utee_syscalls_asm.S:99
    2d5c:	d2800568 	mov	x8, #0x2b                  	// #43
    2d60:	d4000001 	svc	#0x0
    2d64:	d65f03c0 	ret

0000000000002d68 <_utee_storage_obj_rename>:
_utee_storage_obj_rename():
/home/nk/optee/optee_os/lib/libutee/arch/arm/utee_syscalls_asm.S:101
    2d68:	d2800588 	mov	x8, #0x2c                  	// #44
    2d6c:	d4000001 	svc	#0x0
    2d70:	d65f03c0 	ret

0000000000002d74 <_utee_storage_alloc_enum>:
_utee_storage_alloc_enum():
/home/nk/optee/optee_os/lib/libutee/arch/arm/utee_syscalls_asm.S:103
    2d74:	d28005a8 	mov	x8, #0x2d                  	// #45
    2d78:	d4000001 	svc	#0x0
    2d7c:	d65f03c0 	ret

0000000000002d80 <_utee_storage_free_enum>:
_utee_storage_free_enum():
/home/nk/optee/optee_os/lib/libutee/arch/arm/utee_syscalls_asm.S:105
    2d80:	d28005c8 	mov	x8, #0x2e                  	// #46
    2d84:	d4000001 	svc	#0x0
    2d88:	d65f03c0 	ret

0000000000002d8c <_utee_storage_reset_enum>:
_utee_storage_reset_enum():
/home/nk/optee/optee_os/lib/libutee/arch/arm/utee_syscalls_asm.S:107
    2d8c:	d28005e8 	mov	x8, #0x2f                  	// #47
    2d90:	d4000001 	svc	#0x0
    2d94:	d65f03c0 	ret

0000000000002d98 <_utee_storage_start_enum>:
_utee_storage_start_enum():
/home/nk/optee/optee_os/lib/libutee/arch/arm/utee_syscalls_asm.S:109
    2d98:	d2800608 	mov	x8, #0x30                  	// #48
    2d9c:	d4000001 	svc	#0x0
    2da0:	d65f03c0 	ret

0000000000002da4 <_utee_storage_next_enum>:
_utee_storage_next_enum():
/home/nk/optee/optee_os/lib/libutee/arch/arm/utee_syscalls_asm.S:111
    2da4:	d2800628 	mov	x8, #0x31                  	// #49
    2da8:	d4000001 	svc	#0x0
    2dac:	d65f03c0 	ret

0000000000002db0 <_utee_storage_obj_read>:
_utee_storage_obj_read():
/home/nk/optee/optee_os/lib/libutee/arch/arm/utee_syscalls_asm.S:113
    2db0:	d2800648 	mov	x8, #0x32                  	// #50
    2db4:	d4000001 	svc	#0x0
    2db8:	d65f03c0 	ret

0000000000002dbc <_utee_storage_obj_write>:
_utee_storage_obj_write():
/home/nk/optee/optee_os/lib/libutee/arch/arm/utee_syscalls_asm.S:115
    2dbc:	d2800668 	mov	x8, #0x33                  	// #51
    2dc0:	d4000001 	svc	#0x0
    2dc4:	d65f03c0 	ret

0000000000002dc8 <_utee_storage_obj_trunc>:
_utee_storage_obj_trunc():
/home/nk/optee/optee_os/lib/libutee/arch/arm/utee_syscalls_asm.S:117
    2dc8:	d2800688 	mov	x8, #0x34                  	// #52
    2dcc:	d4000001 	svc	#0x0
    2dd0:	d65f03c0 	ret

0000000000002dd4 <_utee_storage_obj_seek>:
_utee_storage_obj_seek():
/home/nk/optee/optee_os/lib/libutee/arch/arm/utee_syscalls_asm.S:119
    2dd4:	d28006a8 	mov	x8, #0x35                  	// #53
    2dd8:	d4000001 	svc	#0x0
    2ddc:	d65f03c0 	ret

0000000000002de0 <_utee_cryp_obj_generate_key>:
_utee_cryp_obj_generate_key():
/home/nk/optee/optee_os/lib/libutee/arch/arm/utee_syscalls_asm.S:121
    2de0:	d28006c8 	mov	x8, #0x36                  	// #54
    2de4:	d4000001 	svc	#0x0
    2de8:	d65f03c0 	ret

0000000000002dec <_utee_cache_operation>:
_utee_cache_operation():
/home/nk/optee/optee_os/lib/libutee/arch/arm/utee_syscalls_asm.S:124
    2dec:	d28008c8 	mov	x8, #0x46                  	// #70
    2df0:	d4000001 	svc	#0x0
    2df4:	d65f03c0 	ret

0000000000002df8 <ta_header_get_session>:
ta_header_get_session():
/home/nk/optee/optee_os/lib/libutee/arch/arm/user_ta_entry.c:102
    2df8:	2a0003e1 	mov	w1, w0
/home/nk/optee/optee_os/lib/libutee/arch/arm/user_ta_entry.c:105
    2dfc:	f0000040 	adrp	x0, d000 <_DYNAMIC>
    2e00:	f941d400 	ldr	x0, [x0, #936]
/home/nk/optee/optee_os/lib/libutee/arch/arm/user_ta_entry.c:105 (discriminator 1)
    2e04:	b5000040 	cbnz	x0, 2e0c <ta_header_get_session+0x14>
/home/nk/optee/optee_os/lib/libutee/arch/arm/user_ta_entry.c:110
    2e08:	d65f03c0 	ret
/home/nk/optee/optee_os/lib/libutee/arch/arm/user_ta_entry.c:106
    2e0c:	b9400002 	ldr	w2, [x0]
    2e10:	6b01005f 	cmp	w2, w1
    2e14:	54ffffa0 	b.eq	2e08 <ta_header_get_session+0x10>  // b.none
/home/nk/optee/optee_os/lib/libutee/arch/arm/user_ta_entry.c:105 (discriminator 2)
    2e18:	f9400800 	ldr	x0, [x0, #16]
    2e1c:	17fffffa 	b	2e04 <ta_header_get_session+0xc>

0000000000002e20 <to_utee_params>:
to_utee_params():
/home/nk/optee/optee_os/lib/libutee/arch/arm/user_ta_entry.c:166
    2e20:	b0000045 	adrp	x5, b000 <__text_end+0x15f0>
    2e24:	912930a5 	add	x5, x5, #0xa4c
/home/nk/optee/optee_os/lib/libutee/arch/arm/user_ta_entry.c:164
    2e28:	2a0103e3 	mov	w3, w1
    2e2c:	52800004 	mov	w4, #0x0                   	// #0
    2e30:	f8008403 	str	x3, [x0], #8
/home/nk/optee/optee_os/lib/libutee/arch/arm/user_ta_entry.c:166
    2e34:	1ac42423 	lsr	w3, w1, w4
    2e38:	12000c63 	and	w3, w3, #0xf
    2e3c:	51000463 	sub	w3, w3, #0x1
    2e40:	7100187f 	cmp	w3, #0x6
    2e44:	54000268 	b.hi	2e90 <to_utee_params+0x70>  // b.pmore
    2e48:	386348a3 	ldrb	w3, [x5, w3, uxtw]
    2e4c:	10000066 	adr	x6, 2e58 <to_utee_params+0x38>
    2e50:	8b2388c3 	add	x3, x6, w3, sxtb #2
    2e54:	d61f0060 	br	x3
/home/nk/optee/optee_os/lib/libutee/arch/arm/user_ta_entry.c:170
    2e58:	b9400043 	ldr	w3, [x2]
    2e5c:	f9000003 	str	x3, [x0]
/home/nk/optee/optee_os/lib/libutee/arch/arm/user_ta_entry.c:171
    2e60:	b9400443 	ldr	w3, [x2, #4]
/home/nk/optee/optee_os/lib/libutee/arch/arm/user_ta_entry.c:177
    2e64:	f9000403 	str	x3, [x0, #8]
/home/nk/optee/optee_os/lib/libutee/arch/arm/user_ta_entry.c:178
    2e68:	11001084 	add	w4, w4, #0x4
    2e6c:	91004042 	add	x2, x2, #0x10
    2e70:	91004000 	add	x0, x0, #0x10
/home/nk/optee/optee_os/lib/libutee/arch/arm/user_ta_entry.c:165 (discriminator 2)
    2e74:	7100409f 	cmp	w4, #0x10
    2e78:	54fffde1 	b.ne	2e34 <to_utee_params+0x14>  // b.any
/home/nk/optee/optee_os/lib/libutee/arch/arm/user_ta_entry.c:185
    2e7c:	d65f03c0 	ret
/home/nk/optee/optee_os/lib/libutee/arch/arm/user_ta_entry.c:176
    2e80:	f9400043 	ldr	x3, [x2]
    2e84:	f9000003 	str	x3, [x0]
/home/nk/optee/optee_os/lib/libutee/arch/arm/user_ta_entry.c:177
    2e88:	b9400843 	ldr	w3, [x2, #8]
    2e8c:	17fffff6 	b	2e64 <to_utee_params+0x44>
/home/nk/optee/optee_os/lib/libutee/arch/arm/user_ta_entry.c:181
    2e90:	a9007c1f 	stp	xzr, xzr, [x0]
/home/nk/optee/optee_os/lib/libutee/arch/arm/user_ta_entry.c:182
    2e94:	17fffff5 	b	2e68 <to_utee_params+0x48>

0000000000002e98 <from_utee_params>:
from_utee_params():
/home/nk/optee/optee_os/lib/libutee/arch/arm/user_ta_entry.c:192
    2e98:	f8408446 	ldr	x6, [x2], #8
/home/nk/optee/optee_os/lib/libutee/arch/arm/user_ta_entry.c:198
    2e9c:	b0000045 	adrp	x5, b000 <__text_end+0x15f0>
    2ea0:	912950a5 	add	x5, x5, #0xa54
/home/nk/optee/optee_os/lib/libutee/arch/arm/user_ta_entry.c:192
    2ea4:	52800004 	mov	w4, #0x0                   	// #0
    2ea8:	2a0603e9 	mov	w9, w6
/home/nk/optee/optee_os/lib/libutee/arch/arm/user_ta_entry.c:198
    2eac:	1ac42523 	lsr	w3, w9, w4
    2eb0:	12000c63 	and	w3, w3, #0xf
    2eb4:	51000463 	sub	w3, w3, #0x1
    2eb8:	7100187f 	cmp	w3, #0x6
/home/nk/optee/optee_os/lib/libutee/arch/arm/user_ta_entry.c:196
    2ebc:	a9401c48 	ldp	x8, x7, [x2]
/home/nk/optee/optee_os/lib/libutee/arch/arm/user_ta_entry.c:198
    2ec0:	540000c8 	b.hi	2ed8 <from_utee_params+0x40>  // b.pmore
    2ec4:	386348a3 	ldrb	w3, [x5, w3, uxtw]
    2ec8:	1000006a 	adr	x10, 2ed4 <from_utee_params+0x3c>
    2ecc:	8b238943 	add	x3, x10, w3, sxtb #2
    2ed0:	d61f0060 	br	x3
/home/nk/optee/optee_os/lib/libutee/arch/arm/user_ta_entry.c:203
    2ed4:	29001c08 	stp	w8, w7, [x0]
/home/nk/optee/optee_os/lib/libutee/arch/arm/user_ta_entry.c:204
    2ed8:	11001084 	add	w4, w4, #0x4
    2edc:	91004042 	add	x2, x2, #0x10
    2ee0:	91004000 	add	x0, x0, #0x10
/home/nk/optee/optee_os/lib/libutee/arch/arm/user_ta_entry.c:194 (discriminator 2)
    2ee4:	7100409f 	cmp	w4, #0x10
    2ee8:	54fffe21 	b.ne	2eac <from_utee_params+0x14>  // b.any
/home/nk/optee/optee_os/lib/libutee/arch/arm/user_ta_entry.c:217
    2eec:	b9000026 	str	w6, [x1]
/home/nk/optee/optee_os/lib/libutee/arch/arm/user_ta_entry.c:218
    2ef0:	d65f03c0 	ret
/home/nk/optee/optee_os/lib/libutee/arch/arm/user_ta_entry.c:208
    2ef4:	f9000008 	str	x8, [x0]
/home/nk/optee/optee_os/lib/libutee/arch/arm/user_ta_entry.c:209
    2ef8:	b9000807 	str	w7, [x0, #8]
/home/nk/optee/optee_os/lib/libutee/arch/arm/user_ta_entry.c:210
    2efc:	17fffff7 	b	2ed8 <from_utee_params+0x40>

0000000000002f00 <ta_header_save_params.part.0>:
ta_header_save_params():
/home/nk/optee/optee_os/lib/libutee/arch/arm/user_ta_entry.c:98
    2f00:	f0000040 	adrp	x0, d000 <_DYNAMIC>
    2f04:	d2800802 	mov	x2, #0x40                  	// #64
    2f08:	52800001 	mov	w1, #0x0                   	// #0
    2f0c:	f940c000 	ldr	x0, [x0, #384]
    2f10:	14001a1d 	b	9784 <memset>

0000000000002f14 <__utee_call_elf_init_fn>:
__utee_call_elf_init_fn():
/home/nk/optee/optee_os/lib/libutee/arch/arm/user_ta_entry.c:39
    2f14:	a9ba7bfd 	stp	x29, x30, [sp, #-96]!
/home/nk/optee/optee_os/lib/libutee/arch/arm/user_ta_entry.c:40
    2f18:	f0000041 	adrp	x1, d000 <_DYNAMIC>
/home/nk/optee/optee_os/lib/libutee/arch/arm/user_ta_entry.c:39
    2f1c:	910003fd 	mov	x29, sp
/home/nk/optee/optee_os/lib/libutee/arch/arm/user_ta_entry.c:40
    2f20:	f940b421 	ldr	x1, [x1, #360]
/home/nk/optee/optee_os/lib/libutee/arch/arm/user_ta_entry.c:39
    2f24:	a90153f3 	stp	x19, x20, [sp, #16]
    2f28:	52800314 	mov	w20, #0x18                  	// #24
    2f2c:	a9025bf5 	stp	x21, x22, [sp, #32]
/home/nk/optee/optee_os/lib/libutee/arch/arm/user_ta_entry.c:46
    2f30:	aa0103f5 	mov	x21, x1
/home/nk/optee/optee_os/lib/libutee/arch/arm/user_ta_entry.c:40
    2f34:	79400820 	ldrh	w0, [x1, #4]
/home/nk/optee/optee_os/lib/libutee/arch/arm/user_ta_entry.c:39
    2f38:	a9046bf9 	stp	x25, x26, [sp, #64]
/home/nk/optee/optee_os/lib/libutee/arch/arm/user_ta_entry.c:44
    2f3c:	d2800033 	mov	x19, #0x1                   	// #1
/home/nk/optee/optee_os/lib/libutee/arch/arm/user_ta_entry.c:40
    2f40:	92403c1a 	and	x26, x0, #0xffff
/home/nk/optee/optee_os/lib/libutee/arch/arm/user_ta_entry.c:39
    2f44:	a90363f7 	stp	x23, x24, [sp, #48]
    2f48:	9bb47c14 	umull	x20, w0, w20
    2f4c:	f9002bfb 	str	x27, [sp, #80]
/home/nk/optee/optee_os/lib/libutee/arch/arm/user_ta_entry.c:46
    2f50:	928002fb 	mov	x27, #0xffffffffffffffe8    	// #-24
/home/nk/optee/optee_os/lib/libutee/arch/arm/user_ta_entry.c:44 (discriminator 1)
    2f54:	eb1a027f 	cmp	x19, x26
    2f58:	54000109 	b.ls	2f78 <__utee_call_elf_init_fn+0x64>  // b.plast
/home/nk/optee/optee_os/lib/libutee/arch/arm/user_ta_entry.c:54
    2f5c:	a94153f3 	ldp	x19, x20, [sp, #16]
    2f60:	a9425bf5 	ldp	x21, x22, [sp, #32]
    2f64:	a94363f7 	ldp	x23, x24, [sp, #48]
    2f68:	a9446bf9 	ldp	x25, x26, [sp, #64]
    2f6c:	f9402bfb 	ldr	x27, [sp, #80]
    2f70:	a8c67bfd 	ldp	x29, x30, [sp], #96
    2f74:	d65f03c0 	ret
/home/nk/optee/optee_os/lib/libutee/arch/arm/user_ta_entry.c:46
    2f78:	9b1b5276 	madd	x22, x19, x27, x20
    2f7c:	f94006b7 	ldr	x23, [x21, #8]
    2f80:	8b1602f9 	add	x25, x23, x22
/home/nk/optee/optee_os/lib/libutee/arch/arm/user_ta_entry.c:48
    2f84:	b8766ae0 	ldr	w0, [x23, x22]
    2f88:	360801c0 	tbz	w0, #1, 2fc0 <__utee_call_elf_init_fn+0xac>
/home/nk/optee/optee_os/lib/libutee/arch/arm/user_ta_entry.c:52
    2f8c:	b8766ae0 	ldr	w0, [x23, x22]
/home/nk/optee/optee_os/lib/libutee/arch/arm/user_ta_entry.c:44
    2f90:	91000673 	add	x19, x19, #0x1
/home/nk/optee/optee_os/lib/libutee/arch/arm/user_ta_entry.c:52
    2f94:	321f0000 	orr	w0, w0, #0x2
    2f98:	b8366ae0 	str	w0, [x23, x22]
    2f9c:	17ffffee 	b	2f54 <__utee_call_elf_init_fn+0x40>
/home/nk/optee/optee_os/lib/libutee/arch/arm/user_ta_entry.c:50 (discriminator 3)
    2fa0:	f9400720 	ldr	x0, [x25, #8]
    2fa4:	f8787800 	ldr	x0, [x0, x24, lsl #3]
/home/nk/optee/optee_os/lib/libutee/arch/arm/user_ta_entry.c:49 (discriminator 3)
    2fa8:	91000718 	add	x24, x24, #0x1
/home/nk/optee/optee_os/lib/libutee/arch/arm/user_ta_entry.c:50 (discriminator 3)
    2fac:	d63f0000 	blr	x0
/home/nk/optee/optee_os/lib/libutee/arch/arm/user_ta_entry.c:49 (discriminator 1)
    2fb0:	79400b20 	ldrh	w0, [x25, #4]
    2fb4:	eb18001f 	cmp	x0, x24
    2fb8:	54ffff48 	b.hi	2fa0 <__utee_call_elf_init_fn+0x8c>  // b.pmore
    2fbc:	17fffff4 	b	2f8c <__utee_call_elf_init_fn+0x78>
/home/nk/optee/optee_os/lib/libutee/arch/arm/user_ta_entry.c:49
    2fc0:	d2800018 	mov	x24, #0x0                   	// #0
    2fc4:	17fffffb 	b	2fb0 <__utee_call_elf_init_fn+0x9c>

0000000000002fc8 <__utee_call_elf_fini_fn>:
__utee_call_elf_fini_fn():
/home/nk/optee/optee_os/lib/libutee/arch/arm/user_ta_entry.c:57
    2fc8:	a9bb7bfd 	stp	x29, x30, [sp, #-80]!
/home/nk/optee/optee_os/lib/libutee/arch/arm/user_ta_entry.c:58
    2fcc:	f0000040 	adrp	x0, d000 <_DYNAMIC>
/home/nk/optee/optee_os/lib/libutee/arch/arm/user_ta_entry.c:57
    2fd0:	910003fd 	mov	x29, sp
/home/nk/optee/optee_os/lib/libutee/arch/arm/user_ta_entry.c:58
    2fd4:	f940b400 	ldr	x0, [x0, #360]
/home/nk/optee/optee_os/lib/libutee/arch/arm/user_ta_entry.c:57
    2fd8:	a9046bf9 	stp	x25, x26, [sp, #64]
/home/nk/optee/optee_os/lib/libutee/arch/arm/user_ta_entry.c:63
    2fdc:	d280031a 	mov	x26, #0x18                  	// #24
/home/nk/optee/optee_os/lib/libutee/arch/arm/user_ta_entry.c:57
    2fe0:	a90153f3 	stp	x19, x20, [sp, #16]
/home/nk/optee/optee_os/lib/libutee/arch/arm/user_ta_entry.c:63
    2fe4:	aa0003f4 	mov	x20, x0
/home/nk/optee/optee_os/lib/libutee/arch/arm/user_ta_entry.c:58
    2fe8:	79400819 	ldrh	w25, [x0, #4]
/home/nk/optee/optee_os/lib/libutee/arch/arm/user_ta_entry.c:62
    2fec:	d2800013 	mov	x19, #0x0                   	// #0
/home/nk/optee/optee_os/lib/libutee/arch/arm/user_ta_entry.c:57
    2ff0:	a9025bf5 	stp	x21, x22, [sp, #32]
    2ff4:	a90363f7 	stp	x23, x24, [sp, #48]
/home/nk/optee/optee_os/lib/libutee/arch/arm/user_ta_entry.c:62 (discriminator 1)
    2ff8:	eb19027f 	cmp	x19, x25
    2ffc:	540000e3 	b.cc	3018 <__utee_call_elf_fini_fn+0x50>  // b.lo, b.ul, b.last
/home/nk/optee/optee_os/lib/libutee/arch/arm/user_ta_entry.c:71
    3000:	a94153f3 	ldp	x19, x20, [sp, #16]
    3004:	a9425bf5 	ldp	x21, x22, [sp, #32]
    3008:	a94363f7 	ldp	x23, x24, [sp, #48]
    300c:	a9446bf9 	ldp	x25, x26, [sp, #64]
    3010:	a8c57bfd 	ldp	x29, x30, [sp], #80
    3014:	d65f03c0 	ret
/home/nk/optee/optee_os/lib/libutee/arch/arm/user_ta_entry.c:63
    3018:	9b1a7e75 	mul	x21, x19, x26
    301c:	f9400696 	ldr	x22, [x20, #8]
    3020:	8b1502d8 	add	x24, x22, x21
/home/nk/optee/optee_os/lib/libutee/arch/arm/user_ta_entry.c:65
    3024:	b8756ac0 	ldr	w0, [x22, x21]
    3028:	361001e0 	tbz	w0, #2, 3064 <__utee_call_elf_fini_fn+0x9c>
/home/nk/optee/optee_os/lib/libutee/arch/arm/user_ta_entry.c:69
    302c:	b8756ac0 	ldr	w0, [x22, x21]
/home/nk/optee/optee_os/lib/libutee/arch/arm/user_ta_entry.c:62
    3030:	91000673 	add	x19, x19, #0x1
/home/nk/optee/optee_os/lib/libutee/arch/arm/user_ta_entry.c:69
    3034:	321e0000 	orr	w0, w0, #0x4
    3038:	b8356ac0 	str	w0, [x22, x21]
    303c:	17ffffef 	b	2ff8 <__utee_call_elf_fini_fn+0x30>
/home/nk/optee/optee_os/lib/libutee/arch/arm/user_ta_entry.c:67 (discriminator 3)
    3040:	f9400b01 	ldr	x1, [x24, #16]
    3044:	cb170000 	sub	x0, x0, x23
/home/nk/optee/optee_os/lib/libutee/arch/arm/user_ta_entry.c:66 (discriminator 3)
    3048:	910006f7 	add	x23, x23, #0x1
/home/nk/optee/optee_os/lib/libutee/arch/arm/user_ta_entry.c:67 (discriminator 3)
    304c:	f8607820 	ldr	x0, [x1, x0, lsl #3]
    3050:	d63f0000 	blr	x0
/home/nk/optee/optee_os/lib/libutee/arch/arm/user_ta_entry.c:66 (discriminator 1)
    3054:	79400f00 	ldrh	w0, [x24, #6]
    3058:	eb17001f 	cmp	x0, x23
    305c:	54ffff22 	b.cs	3040 <__utee_call_elf_fini_fn+0x78>  // b.hs, b.nlast
    3060:	17fffff3 	b	302c <__utee_call_elf_fini_fn+0x64>
/home/nk/optee/optee_os/lib/libutee/arch/arm/user_ta_entry.c:66
    3064:	d2800037 	mov	x23, #0x1                   	// #1
    3068:	17fffffb 	b	3054 <__utee_call_elf_fini_fn+0x8c>

000000000000306c <ta_header_remove_session>:
ta_header_remove_session():
/home/nk/optee/optee_os/lib/libutee/arch/arm/user_ta_entry.c:139
    306c:	a9be7bfd 	stp	x29, x30, [sp, #-32]!
    3070:	2a0003e2 	mov	w2, w0
    3074:	910003fd 	mov	x29, sp
    3078:	f9000bf3 	str	x19, [sp, #16]
/home/nk/optee/optee_os/lib/libutee/arch/arm/user_ta_entry.c:143
    307c:	d0000053 	adrp	x19, d000 <_DYNAMIC>
    3080:	f941d660 	ldr	x0, [x19, #936]
/home/nk/optee/optee_os/lib/libutee/arch/arm/user_ta_entry.c:143 (discriminator 1)
    3084:	b5000080 	cbnz	x0, 3094 <ta_header_remove_session+0x28>
/home/nk/optee/optee_os/lib/libutee/arch/arm/user_ta_entry.c:157
    3088:	f9400bf3 	ldr	x19, [sp, #16]
    308c:	a8c27bfd 	ldp	x29, x30, [sp], #32
    3090:	d65f03c0 	ret
/home/nk/optee/optee_os/lib/libutee/arch/arm/user_ta_entry.c:144
    3094:	b9400003 	ldr	w3, [x0]
    3098:	f9400801 	ldr	x1, [x0, #16]
    309c:	6b02007f 	cmp	w3, w2
    30a0:	540002e1 	b.ne	30fc <ta_header_remove_session+0x90>  // b.any
/home/nk/optee/optee_os/lib/libutee/arch/arm/user_ta_entry.c:145
    30a4:	f9400c02 	ldr	x2, [x0, #24]
    30a8:	b4000241 	cbz	x1, 30f0 <ta_header_remove_session+0x84>
/home/nk/optee/optee_os/lib/libutee/arch/arm/user_ta_entry.c:145 (discriminator 1)
    30ac:	f9000c22 	str	x2, [x1, #24]
/home/nk/optee/optee_os/lib/libutee/arch/arm/user_ta_entry.c:145 (discriminator 4)
    30b0:	f9400c02 	ldr	x2, [x0, #24]
    30b4:	f9000041 	str	x1, [x2]
/home/nk/optee/optee_os/lib/libutee/arch/arm/user_ta_entry.c:146 (discriminator 4)
    30b8:	97fffb01 	bl	1cbc <TEE_Free>
/home/nk/optee/optee_os/lib/libutee/arch/arm/user_ta_entry.c:151 (discriminator 4)
    30bc:	f941d660 	ldr	x0, [x19, #936]
    30c0:	b5fffe40 	cbnz	x0, 3088 <ta_header_remove_session+0x1c>
/home/nk/optee/optee_os/lib/libutee/arch/arm/user_ta_entry.c:149 (discriminator 1)
    30c4:	d0000040 	adrp	x0, d000 <_DYNAMIC>
    30c8:	52800281 	mov	w1, #0x14                  	// #20
    30cc:	f940c400 	ldr	x0, [x0, #392]
    30d0:	b9401400 	ldr	w0, [x0, #20]
    30d4:	0a010000 	and	w0, w0, w1
/home/nk/optee/optee_os/lib/libutee/arch/arm/user_ta_entry.c:151 (discriminator 1)
    30d8:	6b01001f 	cmp	w0, w1
    30dc:	54fffd60 	b.eq	3088 <ta_header_remove_session+0x1c>  // b.none
uninit_instance():
/home/nk/optee/optee_os/lib/libutee/arch/arm/user_ta_entry.c:86
    30e0:	97fff40d 	bl	114 <TA_DestroyEntryPoint>
ta_header_remove_session():
/home/nk/optee/optee_os/lib/libutee/arch/arm/user_ta_entry.c:157
    30e4:	f9400bf3 	ldr	x19, [sp, #16]
    30e8:	a8c27bfd 	ldp	x29, x30, [sp], #32
uninit_instance():
/home/nk/optee/optee_os/lib/libutee/arch/arm/user_ta_entry.c:87
    30ec:	17ffffb7 	b	2fc8 <__utee_call_elf_fini_fn>
ta_header_remove_session():
/home/nk/optee/optee_os/lib/libutee/arch/arm/user_ta_entry.c:145 (discriminator 2)
    30f0:	910ea263 	add	x3, x19, #0x3a8
    30f4:	f9000462 	str	x2, [x3, #8]
    30f8:	17ffffee 	b	30b0 <ta_header_remove_session+0x44>
    30fc:	aa0103e0 	mov	x0, x1
    3100:	17ffffe1 	b	3084 <ta_header_remove_session+0x18>

0000000000003104 <__utee_entry>:
__utee_entry():
/home/nk/optee/optee_os/lib/libutee/arch/arm/user_ta_entry.c:285
    3104:	a9b77bfd 	stp	x29, x30, [sp, #-144]!
/home/nk/optee/optee_os/lib/libutee/arch/arm/user_ta_entry.c:288
    3108:	f100041f 	cmp	x0, #0x1
/home/nk/optee/optee_os/lib/libutee/arch/arm/user_ta_entry.c:285
    310c:	910003fd 	mov	x29, sp
    3110:	a90153f3 	stp	x19, x20, [sp, #16]
    3114:	d0000054 	adrp	x20, d000 <_DYNAMIC>
    3118:	a9025bf5 	stp	x21, x22, [sp, #32]
    311c:	aa0103f5 	mov	x21, x1
    3120:	a90363f7 	stp	x23, x24, [sp, #48]
/home/nk/optee/optee_os/lib/libutee/arch/arm/user_ta_entry.c:288
    3124:	54000a20 	b.eq	3268 <__utee_entry+0x164>  // b.none
    3128:	aa0203f7 	mov	x23, x2
    312c:	b40000e0 	cbz	x0, 3148 <__utee_entry+0x44>
    3130:	f100081f 	cmp	x0, #0x2
    3134:	54000ac0 	b.eq	328c <__utee_entry+0x188>  // b.none
/home/nk/optee/optee_os/lib/libutee/arch/arm/user_ta_entry.c:300
    3138:	52800000 	mov	w0, #0x0                   	// #0
/home/nk/optee/optee_os/lib/libutee/arch/arm/user_ta_entry.c:299
    313c:	12800013 	mov	w19, #0xffffffff            	// #-1
/home/nk/optee/optee_os/lib/libutee/arch/arm/user_ta_entry.c:300
    3140:	97fffe1f 	bl	29bc <TEE_Panic>
/home/nk/optee/optee_os/lib/libutee/arch/arm/user_ta_entry.c:301
    3144:	1400001a 	b	31ac <__utee_entry+0xa8>
ta_header_add_session():
/home/nk/optee/optee_os/lib/libutee/arch/arm/user_ta_entry.c:114
    3148:	2a0103e0 	mov	w0, w1
    314c:	97ffff2b 	bl	2df8 <ta_header_get_session>
/home/nk/optee/optee_os/lib/libutee/arch/arm/user_ta_entry.c:117
    3150:	b5000520 	cbnz	x0, 31f4 <__utee_entry+0xf0>
/home/nk/optee/optee_os/lib/libutee/arch/arm/user_ta_entry.c:120
    3154:	b00000a0 	adrp	x0, 18000 <ta_heap+0x7b48>
    3158:	3952e001 	ldrb	w1, [x0, #1208]
    315c:	340000e1 	cbz	w1, 3178 <__utee_entry+0x74>
/home/nk/optee/optee_os/lib/libutee/arch/arm/user_ta_entry.c:127
    3160:	52b00001 	mov	w1, #0x80000000            	// #-2147483648
    3164:	52800400 	mov	w0, #0x20                  	// #32
    3168:	97fffabc 	bl	1c58 <TEE_Malloc>
/home/nk/optee/optee_os/lib/libutee/arch/arm/user_ta_entry.c:129
    316c:	b5000320 	cbnz	x0, 31d0 <__utee_entry+0xcc>
/home/nk/optee/optee_os/lib/libutee/arch/arm/user_ta_entry.c:130
    3170:	129ffe73 	mov	w19, #0xffff000c            	// #-65524
    3174:	1400000e 	b	31ac <__utee_entry+0xa8>
/home/nk/optee/optee_os/lib/libutee/arch/arm/user_ta_entry.c:121
    3178:	52800021 	mov	w1, #0x1                   	// #1
    317c:	3912e001 	strb	w1, [x0, #1208]
init_instance():
/home/nk/optee/optee_os/lib/libutee/arch/arm/user_ta_entry.c:75
    3180:	97fff4bb 	bl	46c <tahead_get_trace_level>
    3184:	97fff4bc 	bl	474 <trace_set_level>
/home/nk/optee/optee_os/lib/libutee/arch/arm/user_ta_entry.c:77
    3188:	f9409a80 	ldr	x0, [x20, #304]
    318c:	f9400001 	ldr	x1, [x0]
    3190:	f940ae80 	ldr	x0, [x20, #344]
    3194:	94001870 	bl	9354 <malloc_add_pool>
/home/nk/optee/optee_os/lib/libutee/arch/arm/user_ta_entry.c:78
    3198:	9400025d 	bl	3b0c <_TEE_MathAPI_Init>
/home/nk/optee/optee_os/lib/libutee/arch/arm/user_ta_entry.c:79
    319c:	97ffff5e 	bl	2f14 <__utee_call_elf_init_fn>
/home/nk/optee/optee_os/lib/libutee/arch/arm/user_ta_entry.c:80
    31a0:	97fff3db 	bl	10c <TA_CreateEntryPoint>
    31a4:	2a0003f3 	mov	w19, w0
ta_header_add_session():
/home/nk/optee/optee_os/lib/libutee/arch/arm/user_ta_entry.c:123
    31a8:	34fffdc0 	cbz	w0, 3160 <__utee_entry+0x5c>
ta_header_save_params():
/home/nk/optee/optee_os/lib/libutee/arch/arm/user_ta_entry.c:93
    31ac:	f940ba94 	ldr	x20, [x20, #368]
    31b0:	b900029f 	str	wzr, [x20]
/home/nk/optee/optee_os/lib/libutee/arch/arm/user_ta_entry.c:95
    31b4:	97ffff53 	bl	2f00 <ta_header_save_params.part.0>
__utee_entry():
/home/nk/optee/optee_os/lib/libutee/arch/arm/user_ta_entry.c:306
    31b8:	2a1303e0 	mov	w0, w19
    31bc:	a94153f3 	ldp	x19, x20, [sp, #16]
    31c0:	a9425bf5 	ldp	x21, x22, [sp, #32]
    31c4:	a94363f7 	ldp	x23, x24, [sp, #48]
    31c8:	a8c97bfd 	ldp	x29, x30, [sp], #144
    31cc:	d65f03c0 	ret
ta_header_add_session():
/home/nk/optee/optee_os/lib/libutee/arch/arm/user_ta_entry.c:133
    31d0:	d0000041 	adrp	x1, d000 <_DYNAMIC>
    31d4:	910ea021 	add	x1, x1, #0x3a8
