
out/f4e750bb-1437-4fbf-8785-8d3580c34994.elf:     file format elf64-littleaarch64
out/f4e750bb-1437-4fbf-8785-8d3580c34994.elf
architecture: aarch64, flags 0x00000150:
HAS_SYMS, DYNAMIC, D_PAGED
start address 0x0000000000000458

Program Header:
    LOAD off    0x0000000000001000 vaddr 0x0000000000000000 paddr 0x0000000000000000 align 2**12
         filesz 0x000000000000cd08 memsz 0x000000000000cd08 flags r-x
    LOAD off    0x000000000000e000 vaddr 0x000000000000d000 paddr 0x000000000000d000 align 2**12
         filesz 0x0000000000000444 memsz 0x000000000000b4c0 flags rw-
 DYNAMIC off    0x000000000000e000 vaddr 0x000000000000d000 paddr 0x000000000000d000 align 2**3
         filesz 0x0000000000000110 memsz 0x0000000000000110 flags rw-
   STACK off    0x0000000000000000 vaddr 0x0000000000000000 paddr 0x0000000000000000 align 2**4
         filesz 0x0000000000000000 memsz 0x0000000000000000 flags rw-

Dynamic Section:
  HASH                 0x000000000000cad8
  GNU_HASH             0x000000000000ca38
  STRTAB               0x000000000000cac0
  SYMTAB               0x000000000000ca60
  STRSZ                0x0000000000000012
  SYMENT               0x0000000000000018
  DEBUG                0x0000000000000000
  RELA                 0x000000000000caf8
  RELASZ               0x0000000000000348
  RELAENT              0x0000000000000018
  FLAGS_1              0x0000000008000000
  RELACOUNT            0x0000000000000016
private flags = 0:

Sections:
Idx Name          Size      VMA               LMA               File off  Algn
  0 .ta_head      00000020  0000000000000000  0000000000000000  00001000  2**3
                  CONTENTS, ALLOC, LOAD, READONLY, DATA
  1 .text         000099f0  0000000000000020  0000000000000020  00001020  2**3
                  CONTENTS, ALLOC, LOAD, READONLY, CODE
  2 .eh_frame     00001fe0  0000000000009a10  0000000000009a10  0000aa10  2**3
                  CONTENTS, ALLOC, LOAD, READONLY, DATA
  3 .rodata       00001041  000000000000b9f0  000000000000b9f0  0000c9f0  2**3
                  CONTENTS, ALLOC, LOAD, READONLY, DATA
  4 .gnu.hash     00000024  000000000000ca38  000000000000ca38  0000da38  2**3
                  CONTENTS, ALLOC, LOAD, READONLY, DATA
  5 .dynsym       00000060  000000000000ca60  000000000000ca60  0000da60  2**3
                  CONTENTS, ALLOC, LOAD, READONLY, DATA
  6 .dynstr       00000012  000000000000cac0  000000000000cac0  0000dac0  2**0
                  CONTENTS, ALLOC, LOAD, READONLY, DATA
  7 .hash         0000001c  000000000000cad8  000000000000cad8  0000dad8  2**3
                  CONTENTS, ALLOC, LOAD, READONLY, DATA
  8 .rela.dyn     00000210  000000000000caf8  000000000000caf8  0000daf8  2**3
                  CONTENTS, ALLOC, LOAD, READONLY, DATA
  9 .dynamic      00000110  000000000000d000  000000000000d000  0000e000  2**3
                  CONTENTS, ALLOC, LOAD, DATA
 10 .got          00000088  000000000000d110  000000000000d110  0000e110  2**3
                  CONTENTS, ALLOC, LOAD, DATA
 11 .rela.got     00000138  000000000000d198  000000000000d198  0000e198  2**3
                  CONTENTS, ALLOC, LOAD, READONLY, DATA
 12 .data         00000174  000000000000d2d0  000000000000d2d0  0000e2d0  2**3
                  CONTENTS, ALLOC, LOAD, DATA
 13 .bss          0000b078  000000000000d448  000000000000d448  0000e444  2**3
                  ALLOC
 14 .debug_info   00013ba1  0000000000000000  0000000000000000  0000e444  2**0
                  CONTENTS, READONLY, DEBUGGING
 15 .debug_abbrev 00003118  0000000000000000  0000000000000000  00021fe5  2**0
                  CONTENTS, READONLY, DEBUGGING
 16 .debug_loc    0001d7ce  0000000000000000  0000000000000000  000250fd  2**0
                  CONTENTS, READONLY, DEBUGGING
 17 .debug_aranges 00000800  0000000000000000  0000000000000000  000428d0  2**4
                  CONTENTS, READONLY, DEBUGGING
 18 .debug_ranges 000018f0  0000000000000000  0000000000000000  000430d0  2**4
                  CONTENTS, READONLY, DEBUGGING
 19 .debug_macro  00010d09  0000000000000000  0000000000000000  000449c0  2**0
                  CONTENTS, READONLY, DEBUGGING
 20 .debug_line   0000a971  0000000000000000  0000000000000000  000556c9  2**0
                  CONTENTS, READONLY, DEBUGGING
 21 .debug_str    00012bce  0000000000000000  0000000000000000  0006003a  2**0
                  CONTENTS, READONLY, DEBUGGING
 22 .comment      00000055  0000000000000000  0000000000000000  00072c08  2**0
                  CONTENTS, READONLY
SYMBOL TABLE:
0000000000000000 l    d  .ta_head	0000000000000000 .ta_head
0000000000000020 l    d  .text	0000000000000000 .text
0000000000009a10 l    d  .eh_frame	0000000000000000 .eh_frame
000000000000b9f0 l    d  .rodata	0000000000000000 .rodata
000000000000ca38 l    d  .gnu.hash	0000000000000000 .gnu.hash
000000000000ca60 l    d  .dynsym	0000000000000000 .dynsym
000000000000cac0 l    d  .dynstr	0000000000000000 .dynstr
000000000000cad8 l    d  .hash	0000000000000000 .hash
000000000000caf8 l    d  .rela.dyn	0000000000000000 .rela.dyn
000000000000d000 l    d  .dynamic	0000000000000000 .dynamic
000000000000d110 l    d  .got	0000000000000000 .got
000000000000d198 l    d  .rela.got	0000000000000000 .rela.got
000000000000d2d0 l    d  .data	0000000000000000 .data
000000000000d448 l    d  .bss	0000000000000000 .bss
0000000000000000 l    d  .debug_info	0000000000000000 .debug_info
0000000000000000 l    d  .debug_abbrev	0000000000000000 .debug_abbrev
0000000000000000 l    d  .debug_loc	0000000000000000 .debug_loc
0000000000000000 l    d  .debug_aranges	0000000000000000 .debug_aranges
0000000000000000 l    d  .debug_ranges	0000000000000000 .debug_ranges
0000000000000000 l    d  .debug_macro	0000000000000000 .debug_macro
0000000000000000 l    d  .debug_line	0000000000000000 .debug_line
0000000000000000 l    d  .debug_str	0000000000000000 .debug_str
0000000000000000 l    d  .comment	0000000000000000 .comment
0000000000000000 l    df *ABS*	0000000000000000 user_ta_header.c
000000000000b9f8 l     O .rodata	0000000000000004 __compound_literal.5
000000000000b9fc l     O .rodata	0000000000000004 __compound_literal.4
000000000000ba00 l     O .rodata	0000000000000004 __compound_literal.3
000000000000ba04 l     O .rodata	0000000000000001 __compound_literal.2
000000000000ba05 l     O .rodata	0000000000000001 __compound_literal.1
000000000000ba06 l     O .rodata	0000000000000001 __compound_literal.0
0000000000000000 l    df *ABS*	0000000000000000 memcpy.c
0000000000000000 l    df *ABS*	0000000000000000 secure_storage_ta.c
000000000000bd20 l     O .rodata	0000000000000012 __func__.4091
000000000000bd32 l     O .rodata	0000000000000010 __func__.4105
000000000000bd42 l     O .rodata	000000000000000e __func__.4078
000000000000bd50 l     O .rodata	000000000000001b __func__.4131
0000000000000000 l    df *ABS*	0000000000000000 trace.c
000000000000bf6e l     O .rodata	0000000000000005 lvl_strs.3494
0000000000000000 l    df *ABS*	0000000000000000 snprintk.c
000000000000bf8d l     O .rodata	0000000000000011 hexdigits
000000000000bf9e l     O .rodata	0000000000000011 HEXDIGITS
0000000000000000 l    df *ABS*	0000000000000000 memchr.c
0000000000000000 l    df *ABS*	0000000000000000 strlen.c
0000000000000000 l    df *ABS*	0000000000000000 trace_ext.c
0000000000000000 l    df *ABS*	0000000000000000 tee_api.c
00000000000015bc l     F .text	00000000000000b8 update_out_param
0000000000001734 l     F .text	00000000000001d0 copy_param.constprop.1
000000000000d448 l     O .bss	0000000000000008 tee_api_instance_data
000000000000ba23 l     O .rodata	000000000000000b __func__.4733
0000000000000000 l    df *ABS*	0000000000000000 tee_api_objects.c
0000000000000000 l    df *ABS*	0000000000000000 tee_api_panic.c
0000000000000000 l    df *ABS*	0000000000000000 tee_system_pta.c
00000000000029c4 l     F .text	0000000000000088 invoke_system_pta
000000000000ba30 l     O .rodata	0000000000000010 uuid.4142
000000000000ba40 l     O .rodata	000000000000000a __func__.4162
000000000000d450 l     O .bss	0000000000000008 sess.4141
0000000000000000 l    df *ABS*	0000000000000000 utee_syscalls_a64.o
0000000000000000 l    df *ABS*	0000000000000000 user_ta_entry.c
0000000000002df8 l     F .text	0000000000000028 ta_header_get_session
0000000000002e20 l     F .text	0000000000000078 to_utee_params
0000000000002e98 l     F .text	0000000000000068 from_utee_params
0000000000002f00 l     F .text	0000000000000014 ta_header_save_params.part.0
000000000000306c l     F .text	0000000000000098 ta_header_remove_session
00000000000184b8 l     O .bss	0000000000000001 init_done
000000000000d3a8 l     O .data	0000000000000010 ta_sessions
0000000000000000 l    df *ABS*	0000000000000000 tee_api_arith_mpi.c
0000000000003304 l     F .text	0000000000000030 api_panic
0000000000003334 l     F .text	0000000000000030 mpi_panic
0000000000003364 l     F .text	0000000000000098 get_mpi
00000000000033fc l     F .text	0000000000000064 copy_mpi_to_bigint
0000000000003460 l     F .text	0000000000000118 bigint_binary
0000000000003578 l     F .text	0000000000000020 mpi_is_odd
0000000000003598 l     F .text	0000000000000028 rng_read
00000000000035c0 l     F .text	000000000000054c mpi_egcd
000000000000d4b0 l     O .bss	0000000000003000 data.4724
0000000000003ea8 l     F .text	0000000000000194 bigint_binary_mod
000000000000c022 l     O .rodata	0000000000000008 __func__.4758
000000000000c02a l     O .rodata	000000000000000e __func__.4855
000000000000c038 l     O .rodata	0000000000000009 __func__.5001
000000000000c041 l     O .rodata	0000000000000012 __func__.4725
000000000000c053 l     O .rodata	000000000000000f __func__.4764
000000000000c062 l     O .rodata	000000000000001f __func__.4782
000000000000c081 l     O .rodata	0000000000000019 __func__.4789
000000000000c09a l     O .rodata	0000000000000012 __func__.4867
000000000000c0ac l     O .rodata	0000000000000015 __func__.4820
000000000000c0c1 l     O .rodata	000000000000000e __func__.4895
000000000000c0cf l     O .rodata	000000000000000e __func__.4924
000000000000c0dd l     O .rodata	000000000000000e __func__.4932
000000000000c0eb l     O .rodata	0000000000000011 __func__.4961
000000000000c0fc l     O .rodata	0000000000000018 __func__.4978
000000000000c114 l     O .rodata	000000000000001d __func__.5058
000000000000c131 l     O .rodata	0000000000000019 __func__.5111
000000000000c14a l     O .rodata	0000000000000015 __func__.5126
0000000000000000 l    df *ABS*	0000000000000000 bignum.c
0000000000004c48 l     F .text	0000000000000064 mpi_get_digit
0000000000004cac l     F .text	0000000000000060 mpi_sub_hlp
0000000000004d0c l     F .text	00000000000004d4 mpi_mul_hlp
00000000000051e0 l     F .text	0000000000000074 mpi_bigendian_to_host.part.0
00000000000070a0 l     F .text	0000000000000098 mpi_check_small_factors
0000000000007bd8 l     F .text	0000000000000280 mpi_miller_rabin
000000000000ba5c l     O .rodata	00000000000002a0 small_prime
000000000000bcfc l     O .rodata	0000000000000024 gcd_pairs
0000000000000000 l    df *ABS*	0000000000000000 platform_util.c
000000000000d3b8 l     O .data	0000000000000008 memset_func
0000000000000000 l    df *ABS*	0000000000000000 bget_malloc.c
0000000000008a4c l     F .text	0000000000000044 raw_malloc_return_hook.constprop.21
000000000000c673 l     O .rodata	0000000000000005 __func__.3641
000000000000c678 l     O .rodata	0000000000000006 __func__.3656
000000000000c67e l     O .rodata	0000000000000005 __func__.3674
000000000000c683 l     O .rodata	0000000000000006 __func__.3665
000000000000c689 l     O .rodata	0000000000000006 __func__.3683
000000000000c68f l     O .rodata	0000000000000007 __func__.3693
000000000000c696 l     O .rodata	0000000000000014 __func__.3857
000000000000c6aa l     O .rodata	000000000000000e __func__.3808
000000000000c6b8 l     O .rodata	0000000000000013 __func__.3755
000000000000d3c0 l     O .data	0000000000000080 malloc_ctx
0000000000000000 l    df *ABS*	0000000000000000 snprintf.c
0000000000000000 l    df *ABS*	0000000000000000 memmove.c
0000000000000000 l    df *ABS*	0000000000000000 memset.c
0000000000000000 l    df *ABS*	0000000000000000 mempool.c
000000000000c96f l     O .rodata	0000000000000013 __func__.3549
000000000000c982 l     O .rodata	000000000000000e __func__.3558
0000000000000000 l    df *ABS*	0000000000000000 consttime_memcmp.c
0000000000000000 l    df *ABS*	0000000000000000 assert.c
0000000000000000 l    df *ABS*	0000000000000000 
000000000000d000 l     O *ABS*	0000000000000000 _DYNAMIC
000000000000d128 l     O *ABS*	0000000000000000 _GLOBAL_OFFSET_TABLE_
0000000000001580 g     F .text	000000000000003c putchar
00000000000020f8 g     F .text	00000000000000c0 TEE_PopulateTransientObject
0000000000004a90 g     F .text	0000000000000004 TEE_BigIntConvertToFMM
00000000000045ec g     F .text	000000000000000c TEE_BigIntSquareMod
000000000000403c g     F .text	000000000000016c TEE_BigIntShiftRight
00000000000052f8 g     F .text	00000000000000f8 mbedtls_mpi_grow
0000000000001cb4 g     F .text	0000000000000008 TEE_Realloc
0000000000001478 g     F .text	00000000000000c8 printf
00000000000021b8 g     F .text	0000000000000054 TEE_InitRefAttribute
0000000000002b64 g     F .text	000000000000000c _utee_log
0000000000001904 g     F .text	0000000000000104 TEE_InvokeTACommand
0000000000005264 g     F .text	0000000000000028 mbedtls_mpi_init_mempool
0000000000002ce4 g     F .text	000000000000000c _utee_cryp_random_number_generate
0000000000005bd8 g     F .text	00000000000000c4 mbedtls_mpi_write_binary
0000000000001338 g     F .text	0000000000000054 vsnprintk
0000000000006444 g     F .text	0000000000000040 mbedtls_mpi_sub_int
0000000000009728 g     F .text	000000000000005c memmove
000000000000965c g     F .text	0000000000000078 snprintf
0000000000003e60 g     F .text	0000000000000048 TEE_BigIntCmpS32
000000000000220c g     F .text	0000000000000050 TEE_InitValueAttribute
00000000000053f0 g     F .text	0000000000000120 mbedtls_mpi_shrink
0000000000004234 g     F .text	000000000000000c TEE_BigIntAdd
0000000000002c84 g     F .text	000000000000000c _utee_cryp_obj_restrict_usage
000000000000ba08 g     O .rodata	0000000000000008 ta_heap_size
00000000000020a4 g     F .text	0000000000000054 TEE_ResetTransientObject
0000000000002d2c g     F .text	000000000000000c _utee_asymm_operate
0000000000006608 g     F .text	00000000000001e4 mbedtls_mpi_read_string
000000000000424c g     F .text	00000000000000b0 TEE_BigIntNeg
0000000000002d80 g     F .text	000000000000000c _utee_storage_free_enum
0000000000000020 g       .text	0000000000000000 __text_start
00000000000026e0 g     F .text	0000000000000050 TEE_StartPersistentObjectEnumerator
0000000000005d9c g     F .text	00000000000000c8 mbedtls_mpi_shift_r
00000000000095f0 g     F .text	000000000000006c malloc_buffer_overlaps_heap
0000000000002c30 g     F .text	000000000000000c _utee_hash_init
00000000000045d4 g     F .text	000000000000000c TEE_BigIntSubMod
0000000000008348 g     F .text	000000000000030c mbedtls_mpi_gen_prime
0000000000005830 g     F .text	000000000000002c mbedtls_mpi_get_bit
0000000000005a58 g     F .text	00000000000000c8 mbedtls_mpi_read_binary
0000000000000690 g     F .text	0000000000000070 trace_printf
0000000000007174 g     F .text	0000000000000134 mbedtls_mpi_montmul
0000000000002dec g     F .text	000000000000000c _utee_cache_operation
0000000000000020 g     F .text	00000000000000ec memcpy
0000000000004a94 g     F .text	000000000000009c TEE_BigIntConvertFromFMM
00000000000029bc g     F .text	0000000000000008 TEE_Panic
0000000000001540 g     F .text	0000000000000040 puts
0000000000004b30 g     F .text	0000000000000118 TEE_BigIntComputeFMM
00000000000091e8 g     F .text	0000000000000038 malloc_get_stats
0000000000001c30 g     F .text	0000000000000028 TEE_GetREETime
0000000000002630 g     F .text	0000000000000060 TEE_AllocatePersistentObjectEnumerator
000000000000d2d0 g     O .data	00000000000000d8 ta_props
0000000000009220 g     F .text	0000000000000050 malloc
000000000000235c g     F .text	0000000000000088 TEE_GenerateKey
00000000000096d4 g     F .text	0000000000000054 vsnprintf
000000000000d440 g     O .data	0000000000000004 trace_level
0000000000003df8 g     F .text	0000000000000068 TEE_BigIntCmp
000000000000b9f0 g     O .rodata	0000000000000008 ta_num_props
0000000000008f98 g     F .text	00000000000000cc bgetr
0000000000002d44 g     F .text	000000000000000c _utee_storage_obj_open
0000000000009904 g     F .text	0000000000000044 mempool_free
0000000000002c3c g     F .text	000000000000000c _utee_hash_update
0000000000003c58 g     F .text	0000000000000094 TEE_BigIntConvertToOctetString
000000000000593c g     F .text	000000000000005c mbedtls_mpi_bitlen
00000000000041a8 g     F .text	000000000000004c TEE_BigIntGetBit
000000000000ba10 g     O .rodata	0000000000000003 trace_ext_prefix
0000000000002da4 g     F .text	000000000000000c _utee_storage_next_enum
0000000000008c50 g     F .text	000000000000008c bgetz
0000000000001af0 g     F .text	000000000000000c TEE_GetInstanceData
0000000000001b3c g     F .text	000000000000003c TEE_Wait
0000000000006484 g     F .text	0000000000000150 mbedtls_mpi_mul_mpi
0000000000001cc8 g     F .text	0000000000000008 TEE_CacheFlush
00000000000004a0 g     F .text	00000000000001f0 trace_vprintf
0000000000000114 g     F .text	0000000000000004 TA_DestroyEntryPoint
0000000000005254 g     F .text	0000000000000010 mbedtls_mpi_init
0000000000002d5c g     F .text	000000000000000c _utee_storage_obj_del
00000000000058e8 g     F .text	0000000000000054 mbedtls_mpi_lsb
00000000000099b8 g     F .text	0000000000000044 _assert_log
0000000000002c18 g     F .text	000000000000000c _utee_cryp_state_copy
0000000000004a88 g     F .text	0000000000000008 TEE_BigIntFMMContextSizeInU32
0000000000002ac0 g     F .text	000000000000008c tee_unmap
00000000000025bc g     F .text	0000000000000074 TEE_RenamePersistentObject
0000000000003b0c g     F .text	0000000000000050 _TEE_MathAPI_Init
00000000000062f0 g     F .text	0000000000000088 mbedtls_mpi_add_mpi
00000000000104b8 g     O .bss	0000000000008000 ta_heap
00000000000045f8 g     F .text	000000000000011c TEE_BigIntInvMod
0000000000002f14 g     F .text	00000000000000b4 __utee_call_elf_init_fn
0000000000000120 g     F .text	0000000000000004 TA_CloseSessionEntryPoint
0000000000002ba0 g     F .text	000000000000000c _utee_close_ta_session
00000000000023e4 g     F .text	00000000000000ac TEE_OpenPersistentObject
0000000000006378 g     F .text	000000000000008c mbedtls_mpi_sub_mpi
0000000000009948 g     F .text	0000000000000070 consttime_memcmp
0000000000002b58 g     F .text	000000000000000c _utee_return
0000000000002b70 g     F .text	000000000000000c __utee_panic
0000000000000124 g     F .text	0000000000000334 TA_InvokeCommandEntryPoint
0000000000002fc8 g     F .text	00000000000000a4 __utee_call_elf_fini_fn
000000000000933c g     F .text	0000000000000018 free_wipe
0000000000009808 g     F .text	00000000000000ac mempool_alloc
0000000000002b4c g     F .text	000000000000000c _utee_panic
00000000000098b4 g     F .text	0000000000000050 mempool_calloc
0000000000002de0 g     F .text	000000000000000c _utee_cryp_obj_generate_key
0000000000002dc8 g     F .text	000000000000000c _utee_storage_obj_trunc
0000000000002308 g     F .text	0000000000000054 TEE_CopyObjectAttributes
0000000000002bd0 g     F .text	000000000000000c _utee_unmask_cancellation
0000000000009270 g     F .text	0000000000000064 calloc
000000000000d458 g     O .bss	0000000000000010 __init_fini_info
0000000000001c58 g     F .text	000000000000005c TEE_Malloc
0000000000001720 g     F .text	0000000000000014 TEE_CheckMemoryAccessRights
0000000000002b7c g     F .text	000000000000000c _utee_get_property
00000000000057c8 g     F .text	0000000000000068 mbedtls_mpi_lset
00000000000027b0 g     F .text	000000000000006c TEE_ReadObjectData
0000000000001e44 g     F .text	00000000000000ac TEE_GetObjectBufferAttribute
0000000000000118 g     F .text	0000000000000008 TA_OpenSessionEntryPoint
00000000000184c0 g       .bss	0000000000000000 __ftrace_buf_end
000000000000d468 g     O .bss	0000000000000004 ta_param_types
0000000000006cd0 g     F .text	0000000000000040 mbedtls_mpi_div_int
0000000000001cd8 g     F .text	0000000000000050 __utee_from_attr
0000000000008290 g     F .text	00000000000000a8 mbedtls_mpi_is_prime_ext
0000000000004a20 g     F .text	0000000000000050 TEE_BigIntIsProbablePrime
00000000000065d4 g     F .text	0000000000000034 mbedtls_mpi_mul_int
0000000000002548 g     F .text	0000000000000048 TEE_CloseAndDeletePersistentObject1
00000000000072e8 g     F .text	000000000000068c mbedtls_mpi_exp_mod
0000000000005624 g     F .text	00000000000000c0 mbedtls_mpi_safe_cond_assign
0000000000005fd8 g     F .text	00000000000000d8 mbedtls_mpi_lt_mpi_ct
0000000000003b5c g     F .text	0000000000000070 TEE_BigIntInit
0000000000001afc g     F .text	0000000000000008 TEE_MemMove
0000000000008a30 g     F .text	000000000000001c mbedtls_platform_zeroize
0000000000003bcc g     F .text	000000000000008c TEE_BigIntConvertFromOctetString
0000000000002d20 g     F .text	000000000000000c _utee_authenc_dec_final
0000000000005e64 g     F .text	000000000000009c mbedtls_mpi_cmp_abs
0000000000002db0 g     F .text	000000000000000c _utee_storage_obj_read
0000000000001400 g     F .text	000000000000002c memchr
00000000000016c8 g     F .text	000000000000002c TEE_UnmaskCancellation
0000000000001d28 g     F .text	0000000000000048 TEE_GetObjectInfo
0000000000008654 g     F .text	00000000000003dc mbedtls_mpi_self_test
0000000000002dd4 g     F .text	000000000000000c _utee_storage_obj_seek
0000000000002050 g     F .text	0000000000000054 TEE_FreeTransientObject
0000000000002bc4 g     F .text	000000000000000c _utee_check_access_rights
00000000000060b0 g     F .text	0000000000000040 mbedtls_mpi_cmp_int
0000000000002d8c g     F .text	000000000000000c _utee_storage_reset_enum
0000000000002d08 g     F .text	000000000000000c _utee_authenc_update_payload
0000000000004564 g     F .text	0000000000000064 TEE_BigIntMod
0000000000006dc4 g     F .text	00000000000000a0 mbedtls_mpi_mod_int
00000000000059b4 g     F .text	00000000000000a4 mbedtls_mpi_read_binary_le
00000000000043ec g     F .text	0000000000000178 TEE_BigIntDiv
0000000000002c9c g     F .text	000000000000000c _utee_cryp_obj_alloc
00000000000184c0 g       .bss	0000000000000000 __ftrace_buf_start
0000000000005510 g     F .text	00000000000000b4 mbedtls_mpi_copy
00000000000091d0 g     F .text	0000000000000018 malloc_reset_stats
0000000000002c00 g     F .text	000000000000000c _utee_set_ta_time
0000000000002bac g     F .text	000000000000000c _utee_invoke_ta_command
0000000000001db0 g     F .text	0000000000000044 TEE_RestrictObjectUsage1
00000000000092d4 g     F .text	0000000000000050 realloc
00000000000055c4 g     F .text	0000000000000060 mbedtls_mpi_swap
00000000000097a0 g     F .text	0000000000000068 mempool_alloc_pool
00000000000042fc g     F .text	00000000000000e8 TEE_BigIntMul
0000000000005c9c g     F .text	0000000000000100 mbedtls_mpi_shift_l
0000000000005f00 g     F .text	00000000000000d8 mbedtls_mpi_cmp_mpi
0000000000001b0c g     F .text	0000000000000008 TEE_MemFill
0000000000009354 g     F .text	000000000000011c malloc_add_pool
0000000000000490 g     F .text	0000000000000010 trace_get_level
00000000000060f0 g     F .text	000000000000012c mbedtls_mpi_add_abs
0000000000001df4 g     F .text	0000000000000050 TEE_RestrictObjectUsage
0000000000004a78 g     F .text	0000000000000010 TEE_BigIntFMMSizeInU32
0000000000004a70 g     F .text	0000000000000004 TEE_BigIntInitFMM
0000000000001fc4 g     F .text	0000000000000028 TEE_CloseObject
0000000000002c54 g     F .text	000000000000000c _utee_cipher_init
0000000000003104 g     F .text	0000000000000200 __utee_entry
0000000000009a10 g       .text	0000000000000000 __text_end
0000000000004714 g     F .text	00000000000000d4 TEE_BigIntRelativePrime
0000000000006d10 g     F .text	00000000000000b4 mbedtls_mpi_mod_mpi
0000000000002c78 g     F .text	000000000000000c _utee_cryp_obj_get_info
0000000000009064 g     F .text	00000000000000d4 bpool
0000000000002c0c g     F .text	000000000000000c _utee_cryp_state_alloc
000000000000169c g     F .text	000000000000002c TEE_GetCancellationFlag
0000000000007974 g     F .text	00000000000001a8 mbedtls_mpi_gcd
0000000000001bec g     F .text	0000000000000044 TEE_SetTAPersistentTime
0000000000005b20 g     F .text	00000000000000b8 mbedtls_mpi_write_binary_le
0000000000009784 g     F .text	000000000000001c memset
0000000000001b78 g     F .text	0000000000000074 TEE_GetTAPersistentTime
0000000000000700 g     F .text	0000000000000004 dhex_dump
0000000000002490 g     F .text	00000000000000b8 TEE_CreatePersistentObject
00000000000016f4 g     F .text	000000000000002c TEE_MaskCancellation
0000000000002884 g     F .text	0000000000000060 TEE_TruncateObjectData
0000000000002c90 g     F .text	000000000000000c _utee_cryp_obj_get_attr
0000000000001d70 g     F .text	0000000000000040 TEE_GetObjectInfo1
0000000000002c6c g     F .text	000000000000000c _utee_cipher_final
0000000000000474 g     F .text	000000000000001c trace_set_level
0000000000001ef0 g     F .text	00000000000000d4 TEE_GetObjectValueAttribute
0000000000002c24 g     F .text	000000000000000c _utee_cryp_state_free
0000000000002b94 g     F .text	000000000000000c _utee_open_ta_session
0000000000003d70 g     F .text	0000000000000088 TEE_BigIntConvertToS32
0000000000004240 g     F .text	000000000000000c TEE_BigIntSub
000000000000046c g     F .text	0000000000000008 tahead_get_trace_level
0000000000002d98 g     F .text	000000000000000c _utee_storage_start_enum
00000000000028e4 g     F .text	00000000000000d8 TEE_SeekObjectData
0000000000002a4c g     F .text	0000000000000074 tee_map_zi
00000000000072a8 g     F .text	0000000000000040 mbedtls_mpi_montred
0000000000003cec g     F .text	0000000000000084 TEE_BigIntConvertFromS32
0000000000006404 g     F .text	0000000000000040 mbedtls_mpi_add_int
0000000000002d14 g     F .text	000000000000000c _utee_authenc_enc_final
0000000000009470 g     F .text	0000000000000180 malloc_buffer_is_within_alloced
0000000000002ca8 g     F .text	000000000000000c _utee_cryp_obj_close
0000000000004a74 g     F .text	0000000000000004 TEE_BigIntInitFMMContext
0000000000002bdc g     F .text	000000000000000c _utee_mask_cancellation
0000000000002d68 g     F .text	000000000000000c _utee_storage_obj_rename
00000000000026b8 g     F .text	0000000000000028 TEE_ResetPersistentObjectEnumerator
000000000000281c g     F .text	0000000000000068 TEE_WriteObjectData
00000000000043e4 g     F .text	0000000000000008 TEE_BigIntSquare
0000000000002dbc g     F .text	000000000000000c _utee_storage_obj_write
000000000000010c g     F .text	0000000000000008 TA_CreateEntryPoint
0000000000000458 g     F .text	0000000000000014 __ta_entry
0000000000002cfc g     F .text	000000000000000c _utee_authenc_update_aad
0000000000007138 g     F .text	000000000000003c mbedtls_mpi_montg_init
000000000000138c g     F .text	0000000000000074 snprintk
00000000000041f4 g     F .text	0000000000000040 TEE_BigIntGetBitCount
0000000000002ccc g     F .text	000000000000000c _utee_cryp_obj_copy
00000000000045e0 g     F .text	000000000000000c TEE_BigIntMulMod
0000000000007e58 g     F .text	0000000000000438 mbedtls_mpi_inv_mod
000000000000d470 g     O .bss	0000000000000040 ta_params
00000000000067ec g     F .text	00000000000004e4 mbedtls_mpi_div_mpi
0000000000005998 g     F .text	000000000000001c mbedtls_mpi_size
0000000000008a90 g     F .text	00000000000001c0 bget
0000000000001fec g     F .text	0000000000000064 TEE_AllocateTransientObject
0000000000002be8 g     F .text	000000000000000c _utee_wait
000000000000585c g     F .text	000000000000008c mbedtls_mpi_set_bit
0000000000001cbc g     F .text	0000000000000004 TEE_Free
0000000000008338 g     F .text	0000000000000010 mbedtls_mpi_is_prime
0000000000001cd0 g     F .text	0000000000000008 TEE_CacheInvalidate
00000000000099fc g     F .text	0000000000000014 _assert_break
00000000000045c8 g     F .text	000000000000000c TEE_BigIntAddMod
0000000000002bf4 g     F .text	000000000000000c _utee_get_time
0000000000002cc0 g     F .text	000000000000000c _utee_cryp_obj_populate
0000000000001b04 g     F .text	0000000000000008 TEE_MemCompare
0000000000002c60 g     F .text	000000000000000c _utee_cipher_update
0000000000000704 g     F .text	0000000000000c34 __vsnprintf
0000000000002690 g     F .text	0000000000000028 TEE_FreePersistentObjectEnumerator
0000000000001a08 g     F .text	00000000000000dc TEE_OpenTASession
0000000000001448 g     F .text	0000000000000028 trace_ext_puts
0000000000001470 g     F .text	0000000000000008 trace_ext_get_thread_id
0000000000002590 g     F .text	000000000000002c TEE_CloseAndDeletePersistentObject
0000000000002cd8 g     F .text	000000000000000c _utee_cryp_derive_key
000000000000528c g     F .text	000000000000006c mbedtls_mpi_free
0000000000002cb4 g     F .text	000000000000000c _utee_cryp_obj_reset
0000000000001cc0 g     F .text	0000000000000008 TEE_CacheClean
0000000000002b88 g     F .text	000000000000000c _utee_get_property_name_to_index
00000000000056e4 g     F .text	00000000000000e4 mbedtls_mpi_safe_cond_swap
0000000000002cf0 g     F .text	000000000000000c _utee_authenc_init
000000000000225c g     F .text	00000000000000ac TEE_CopyObjectAttributes1
000000000000142c g     F .text	000000000000001c strlen
00000000000047e8 g     F .text	0000000000000238 TEE_BigIntComputeExtendedGcd
0000000000002d74 g     F .text	000000000000000c _utee_storage_alloc_enum
0000000000001b14 g     F .text	0000000000000028 TEE_GetSystemTime
0000000000002d38 g     F .text	000000000000000c _utee_asymm_verify
0000000000000000 g     O .ta_head	0000000000000020 ta_head
0000000000008cdc g     F .text	00000000000002bc brel
000000000000621c g     F .text	00000000000000d4 mbedtls_mpi_sub_abs
0000000000007b1c g     F .text	00000000000000bc mbedtls_mpi_fill_random
0000000000001ae4 g     F .text	000000000000000c TEE_SetInstanceData
0000000000002bb8 g     F .text	000000000000000c _utee_get_cancellation_flag
0000000000006e64 g     F .text	000000000000023c mbedtls_mpi_write_string
0000000000002730 g     F .text	0000000000000080 TEE_GetNextPersistentObject
0000000000001674 g     F .text	0000000000000028 TEE_CloseTASession
0000000000002d50 g     F .text	000000000000000c _utee_storage_obj_create
0000000000009324 g     F .text	0000000000000018 free
0000000000009138 g     F .text	0000000000000098 bstats
00000000000104b0 g     O .bss	0000000000000008 mbedtls_mpi_mempool
0000000000002c48 g     F .text	000000000000000c _utee_hash_final



Disassembly of section .text:

0000000000000020 <memcpy>:
memcpy():
/home/nk/optee/optee_os/lib/libutils/isoc/newlib/memcpy.c:106
      20:	f1007c5f 	cmp	x2, #0x1f
      24:	54000629 	b.ls	e8 <memcpy+0xc8>  // b.plast
/home/nk/optee/optee_os/lib/libutils/isoc/newlib/memcpy.c:106 (discriminator 1)
      28:	aa000025 	orr	x5, x1, x0
      2c:	f24008a5 	ands	x5, x5, #0x7
      30:	54000641 	b.ne	f8 <memcpy+0xd8>  // b.any
      34:	d1008048 	sub	x8, x2, #0x20
/home/nk/optee/optee_os/lib/libutils/isoc/newlib/memcpy.c:108
      38:	aa0103e4 	mov	x4, x1
      3c:	927be908 	and	x8, x8, #0xffffffffffffffe0
/home/nk/optee/optee_os/lib/libutils/isoc/newlib/memcpy.c:107
      40:	aa0003e3 	mov	x3, x0
      44:	91008108 	add	x8, x8, #0x20
      48:	8b080007 	add	x7, x0, x8
      4c:	d503201f 	nop
/home/nk/optee/optee_os/lib/libutils/isoc/newlib/memcpy.c:112
      50:	f9400086 	ldr	x6, [x4]
      54:	f9000066 	str	x6, [x3]
/home/nk/optee/optee_os/lib/libutils/isoc/newlib/memcpy.c:113
      58:	91008084 	add	x4, x4, #0x20
      5c:	91008063 	add	x3, x3, #0x20
      60:	f85e8086 	ldur	x6, [x4, #-24]
      64:	f81e8066 	stur	x6, [x3, #-24]
/home/nk/optee/optee_os/lib/libutils/isoc/newlib/memcpy.c:114
      68:	f85f0086 	ldur	x6, [x4, #-16]
      6c:	f81f0066 	stur	x6, [x3, #-16]
/home/nk/optee/optee_os/lib/libutils/isoc/newlib/memcpy.c:111
      70:	eb0300ff 	cmp	x7, x3
/home/nk/optee/optee_os/lib/libutils/isoc/newlib/memcpy.c:115
      74:	f85f8086 	ldur	x6, [x4, #-8]
      78:	f81f8066 	stur	x6, [x3, #-8]
/home/nk/optee/optee_os/lib/libutils/isoc/newlib/memcpy.c:111
      7c:	54fffea1 	b.ne	50 <memcpy+0x30>  // b.any
      80:	8b080021 	add	x1, x1, x8
/home/nk/optee/optee_os/lib/libutils/isoc/newlib/memcpy.c:120
      84:	f27d045f 	tst	x2, #0x18
      88:	92401044 	and	x4, x2, #0x1f
      8c:	540003c0 	b.eq	104 <memcpy+0xe4>  // b.none
/home/nk/optee/optee_os/lib/libutils/isoc/newlib/memcpy.c:121
      90:	f8656826 	ldr	x6, [x1, x5]
      94:	f8256866 	str	x6, [x3, x5]
/home/nk/optee/optee_os/lib/libutils/isoc/newlib/memcpy.c:122
      98:	910020a5 	add	x5, x5, #0x8
/home/nk/optee/optee_os/lib/libutils/isoc/newlib/memcpy.c:120
      9c:	cb050086 	sub	x6, x4, x5
      a0:	f1001cdf 	cmp	x6, #0x7
      a4:	54ffff68 	b.hi	90 <memcpy+0x70>  // b.pmore
      a8:	d1002084 	sub	x4, x4, #0x8
      ac:	92400842 	and	x2, x2, #0x7
      b0:	927df084 	and	x4, x4, #0xfffffffffffffff8
/home/nk/optee/optee_os/lib/libutils/isoc/newlib/memcpy.c:130
      b4:	d1000445 	sub	x5, x2, #0x1
      b8:	91002084 	add	x4, x4, #0x8
      bc:	8b040063 	add	x3, x3, x4
      c0:	8b040021 	add	x1, x1, x4
      c4:	b4000102 	cbz	x2, e4 <memcpy+0xc4>
/home/nk/optee/optee_os/lib/libutils/isoc/newlib/memcpy.c:99
      c8:	d2800002 	mov	x2, #0x0                   	// #0
      cc:	d503201f 	nop
/home/nk/optee/optee_os/lib/libutils/isoc/newlib/memcpy.c:131
      d0:	38626824 	ldrb	w4, [x1, x2]
/home/nk/optee/optee_os/lib/libutils/isoc/newlib/memcpy.c:130
      d4:	eb0200bf 	cmp	x5, x2
/home/nk/optee/optee_os/lib/libutils/isoc/newlib/memcpy.c:131
      d8:	38226864 	strb	w4, [x3, x2]
      dc:	91000442 	add	x2, x2, #0x1
/home/nk/optee/optee_os/lib/libutils/isoc/newlib/memcpy.c:130
      e0:	54ffff81 	b.ne	d0 <memcpy+0xb0>  // b.any
/home/nk/optee/optee_os/lib/libutils/isoc/newlib/memcpy.c:135
      e4:	d65f03c0 	ret
/home/nk/optee/optee_os/lib/libutils/isoc/newlib/memcpy.c:99
      e8:	aa0003e3 	mov	x3, x0
/home/nk/optee/optee_os/lib/libutils/isoc/newlib/memcpy.c:130
      ec:	d1000445 	sub	x5, x2, #0x1
      f0:	b5fffec2 	cbnz	x2, c8 <memcpy+0xa8>
/home/nk/optee/optee_os/lib/libutils/isoc/newlib/memcpy.c:135
      f4:	d65f03c0 	ret
/home/nk/optee/optee_os/lib/libutils/isoc/newlib/memcpy.c:130
      f8:	d1000445 	sub	x5, x2, #0x1
/home/nk/optee/optee_os/lib/libutils/isoc/newlib/memcpy.c:99
      fc:	aa0003e3 	mov	x3, x0
     100:	17fffff2 	b	c8 <memcpy+0xa8>
/home/nk/optee/optee_os/lib/libutils/isoc/newlib/memcpy.c:120
     104:	aa0403e2 	mov	x2, x4
     108:	17fffff9 	b	ec <memcpy+0xcc>

000000000000010c <TA_CreateEntryPoint>:
TA_CreateEntryPoint():
/home/nk/development/secure_storage/ta/secure_storage_ta.c:223
     10c:	52800000 	mov	w0, #0x0                   	// #0
     110:	d65f03c0 	ret

0000000000000114 <TA_DestroyEntryPoint>:
TA_DestroyEntryPoint():
/home/nk/development/secure_storage/ta/secure_storage_ta.c:228
     114:	d65f03c0 	ret

0000000000000118 <TA_OpenSessionEntryPoint>:
TA_OpenSessionEntryPoint():
/home/nk/development/secure_storage/ta/secure_storage_ta.c:236
     118:	52800000 	mov	w0, #0x0                   	// #0
     11c:	d65f03c0 	ret

0000000000000120 <TA_CloseSessionEntryPoint>:
TA_CloseSessionEntryPoint():
/home/nk/development/secure_storage/ta/secure_storage_ta.c:241
     120:	d65f03c0 	ret

0000000000000124 <TA_InvokeCommandEntryPoint>:
TA_InvokeCommandEntryPoint():
/home/nk/development/secure_storage/ta/secure_storage_ta.c:247
     124:	a9b97bfd 	stp	x29, x30, [sp, #-112]!
/home/nk/development/secure_storage/ta/secure_storage_ta.c:248
     128:	7100043f 	cmp	w1, #0x1
/home/nk/development/secure_storage/ta/secure_storage_ta.c:247
     12c:	910003fd 	mov	x29, sp
     130:	a90153f3 	stp	x19, x20, [sp, #16]
     134:	2a0103f4 	mov	w20, w1
     138:	aa0303f3 	mov	x19, x3
     13c:	a9025bf5 	stp	x21, x22, [sp, #32]
     140:	2a0203f5 	mov	w21, w2
     144:	a90363f7 	stp	x23, x24, [sp, #48]
/home/nk/development/secure_storage/ta/secure_storage_ta.c:248
     148:	54000200 	b.eq	188 <TA_InvokeCommandEntryPoint+0x64>  // b.none
     14c:	340009c1 	cbz	w1, 284 <TA_InvokeCommandEntryPoint+0x160>
     150:	7100083f 	cmp	w1, #0x2
     154:	54001360 	b.eq	3c0 <TA_InvokeCommandEntryPoint+0x29c>  // b.none
/home/nk/development/secure_storage/ta/secure_storage_ta.c:256
     158:	f0000040 	adrp	x0, b000 <__text_end+0x15f0>
     15c:	91348000 	add	x0, x0, #0xd20
     160:	2a0103e5 	mov	w5, w1
     164:	f0000044 	adrp	x4, b000 <__text_end+0x15f0>
     168:	52800023 	mov	w3, #0x1                   	// #1
     16c:	91391084 	add	x4, x4, #0xe44
     170:	52800022 	mov	w2, #0x1                   	// #1
     174:	52802001 	mov	w1, #0x100                 	// #256
     178:	9100c000 	add	x0, x0, #0x30
/home/nk/development/secure_storage/ta/secure_storage_ta.c:257
     17c:	129ffeb3 	mov	w19, #0xffff000a            	// #-65526
/home/nk/development/secure_storage/ta/secure_storage_ta.c:256
     180:	94000144 	bl	690 <trace_printf>
/home/nk/development/secure_storage/ta/secure_storage_ta.c:257
     184:	14000037 	b	260 <TA_InvokeCommandEntryPoint+0x13c>
create_raw_object():
/home/nk/development/secure_storage/ta/secure_storage_ta.c:96
     188:	7101545f 	cmp	w2, #0x55
     18c:	540015e1 	b.ne	448 <TA_InvokeCommandEntryPoint+0x324>  // b.any
/home/nk/development/secure_storage/ta/secure_storage_ta.c:99
     190:	b9400876 	ldr	w22, [x3, #8]
/home/nk/development/secure_storage/ta/secure_storage_ta.c:100
     194:	52800001 	mov	w1, #0x0                   	// #0
     198:	2a1603e0 	mov	w0, w22
     19c:	940006af 	bl	1c58 <TEE_Malloc>
     1a0:	aa0003f5 	mov	x21, x0
/home/nk/development/secure_storage/ta/secure_storage_ta.c:101
     1a4:	b4001560 	cbz	x0, 450 <TA_InvokeCommandEntryPoint+0x32c>
/home/nk/development/secure_storage/ta/secure_storage_ta.c:104
     1a8:	aa1303f7 	mov	x23, x19
     1ac:	2a1603e2 	mov	w2, w22
     1b0:	f84106e1 	ldr	x1, [x23], #16
     1b4:	94000652 	bl	1afc <TEE_MemMove>
/home/nk/development/secure_storage/ta/secure_storage_ta.c:107
     1b8:	b9400af7 	ldr	w23, [x23, #8]
/home/nk/development/secure_storage/ta/secure_storage_ta.c:117
     1bc:	910143e7 	add	x7, sp, #0x50
     1c0:	52800006 	mov	w6, #0x0                   	// #0
     1c4:	d2800005 	mov	x5, #0x0                   	// #0
     1c8:	d2800004 	mov	x4, #0x0                   	// #0
     1cc:	528080e3 	mov	w3, #0x407                 	// #1031
     1d0:	2a1603e2 	mov	w2, w22
     1d4:	aa1503e1 	mov	x1, x21
     1d8:	2a1403e0 	mov	w0, w20
/home/nk/development/secure_storage/ta/secure_storage_ta.c:106
     1dc:	f9400a78 	ldr	x24, [x19, #16]
/home/nk/development/secure_storage/ta/secure_storage_ta.c:117
     1e0:	940008ac 	bl	2490 <TEE_CreatePersistentObject>
     1e4:	2a0003f3 	mov	w19, w0
/home/nk/development/secure_storage/ta/secure_storage_ta.c:123
     1e8:	34000160 	cbz	w0, 214 <TA_InvokeCommandEntryPoint+0xf0>
/home/nk/development/secure_storage/ta/secure_storage_ta.c:124
     1ec:	2a0003e5 	mov	w5, w0
     1f0:	f0000044 	adrp	x4, b000 <__text_end+0x15f0>
     1f4:	f0000040 	adrp	x0, b000 <__text_end+0x15f0>
     1f8:	9135ac84 	add	x4, x4, #0xd6b
     1fc:	2a1403e3 	mov	w3, w20
     200:	2a1403e2 	mov	w2, w20
     204:	91348000 	add	x0, x0, #0xd20
     208:	52800f81 	mov	w1, #0x7c                  	// #124
read_raw_object():
/home/nk/development/secure_storage/ta/secure_storage_ta.c:182
     20c:	94000121 	bl	690 <trace_printf>
     210:	14000012 	b	258 <TA_InvokeCommandEntryPoint+0x134>
create_raw_object():
/home/nk/development/secure_storage/ta/secure_storage_ta.c:129
     214:	f9402be0 	ldr	x0, [sp, #80]
     218:	2a1703e2 	mov	w2, w23
     21c:	aa1803e1 	mov	x1, x24
     220:	9400097f 	bl	281c <TEE_WriteObjectData>
     224:	2a0003f3 	mov	w19, w0
/home/nk/development/secure_storage/ta/secure_storage_ta.c:130
     228:	34000280 	cbz	w0, 278 <TA_InvokeCommandEntryPoint+0x154>
/home/nk/development/secure_storage/ta/secure_storage_ta.c:131
     22c:	2a0003e5 	mov	w5, w0
     230:	f0000044 	adrp	x4, b000 <__text_end+0x15f0>
     234:	2a1403e3 	mov	w3, w20
     238:	91365084 	add	x4, x4, #0xd94
     23c:	2a1403e2 	mov	w2, w20
     240:	52801061 	mov	w1, #0x83                  	// #131
     244:	f0000040 	adrp	x0, b000 <__text_end+0x15f0>
     248:	91348000 	add	x0, x0, #0xd20
     24c:	94000111 	bl	690 <trace_printf>
/home/nk/development/secure_storage/ta/secure_storage_ta.c:132
     250:	f9402be0 	ldr	x0, [sp, #80]
     254:	940008bd 	bl	2548 <TEE_CloseAndDeletePersistentObject1>
read_raw_object():
/home/nk/development/secure_storage/ta/secure_storage_ta.c:183
     258:	aa1503e0 	mov	x0, x21
     25c:	94000698 	bl	1cbc <TEE_Free>
TA_InvokeCommandEntryPoint():
/home/nk/development/secure_storage/ta/secure_storage_ta.c:259
     260:	2a1303e0 	mov	w0, w19
     264:	a94153f3 	ldp	x19, x20, [sp, #16]
     268:	a9425bf5 	ldp	x21, x22, [sp, #32]
     26c:	a94363f7 	ldp	x23, x24, [sp, #48]
     270:	a8c77bfd 	ldp	x29, x30, [sp], #112
     274:	d65f03c0 	ret
create_raw_object():
/home/nk/development/secure_storage/ta/secure_storage_ta.c:134
     278:	f9402be0 	ldr	x0, [sp, #80]
read_raw_object():
/home/nk/development/secure_storage/ta/secure_storage_ta.c:214
     27c:	94000752 	bl	1fc4 <TEE_CloseObject>
/home/nk/development/secure_storage/ta/secure_storage_ta.c:215
     280:	17fffff6 	b	258 <TA_InvokeCommandEntryPoint+0x134>
/home/nk/development/secure_storage/ta/secure_storage_ta.c:159
     284:	7101945f 	cmp	w2, #0x65
     288:	54000e01 	b.ne	448 <TA_InvokeCommandEntryPoint+0x324>  // b.any
/home/nk/development/secure_storage/ta/secure_storage_ta.c:162
     28c:	b9400876 	ldr	w22, [x3, #8]
/home/nk/development/secure_storage/ta/secure_storage_ta.c:163
     290:	2a1603e0 	mov	w0, w22
     294:	94000671 	bl	1c58 <TEE_Malloc>
     298:	aa0003f5 	mov	x21, x0
/home/nk/development/secure_storage/ta/secure_storage_ta.c:164
     29c:	b4000da0 	cbz	x0, 450 <TA_InvokeCommandEntryPoint+0x32c>
/home/nk/development/secure_storage/ta/secure_storage_ta.c:167
     2a0:	aa1303f4 	mov	x20, x19
     2a4:	2a1603e2 	mov	w2, w22
     2a8:	f8410681 	ldr	x1, [x20], #16
     2ac:	94000614 	bl	1afc <TEE_MemMove>
/home/nk/development/secure_storage/ta/secure_storage_ta.c:170
     2b0:	b9400a98 	ldr	w24, [x20, #8]
/home/nk/development/secure_storage/ta/secure_storage_ta.c:176
     2b4:	910123e4 	add	x4, sp, #0x48
     2b8:	52800223 	mov	w3, #0x11                  	// #17
     2bc:	2a1603e2 	mov	w2, w22
     2c0:	aa1503e1 	mov	x1, x21
     2c4:	52800020 	mov	w0, #0x1                   	// #1
/home/nk/development/secure_storage/ta/secure_storage_ta.c:169
     2c8:	f9400a77 	ldr	x23, [x19, #16]
/home/nk/development/secure_storage/ta/secure_storage_ta.c:176
     2cc:	94000846 	bl	23e4 <TEE_OpenPersistentObject>
     2d0:	2a0003f3 	mov	w19, w0
/home/nk/development/secure_storage/ta/secure_storage_ta.c:181
     2d4:	34000160 	cbz	w0, 300 <TA_InvokeCommandEntryPoint+0x1dc>
/home/nk/development/secure_storage/ta/secure_storage_ta.c:182
     2d8:	2a0003e5 	mov	w5, w0
     2dc:	f0000040 	adrp	x0, b000 <__text_end+0x15f0>
     2e0:	91348000 	add	x0, x0, #0xd20
     2e4:	f0000044 	adrp	x4, b000 <__text_end+0x15f0>
     2e8:	52800023 	mov	w3, #0x1                   	// #1
     2ec:	9136d884 	add	x4, x4, #0xdb6
     2f0:	52800022 	mov	w2, #0x1                   	// #1
     2f4:	528016c1 	mov	w1, #0xb6                  	// #182
     2f8:	91004800 	add	x0, x0, #0x12
     2fc:	17ffffc4 	b	20c <TA_InvokeCommandEntryPoint+0xe8>
/home/nk/development/secure_storage/ta/secure_storage_ta.c:187
     300:	f94027e0 	ldr	x0, [sp, #72]
     304:	910143e1 	add	x1, sp, #0x50
     308:	9400069a 	bl	1d70 <TEE_GetObjectInfo1>
     30c:	2a0003f3 	mov	w19, w0
/home/nk/development/secure_storage/ta/secure_storage_ta.c:188
     310:	340001a0 	cbz	w0, 344 <TA_InvokeCommandEntryPoint+0x220>
/home/nk/development/secure_storage/ta/secure_storage_ta.c:189
     314:	2a0003e5 	mov	w5, w0
     318:	f0000040 	adrp	x0, b000 <__text_end+0x15f0>
     31c:	91348000 	add	x0, x0, #0xd20
     320:	f0000044 	adrp	x4, b000 <__text_end+0x15f0>
     324:	52800023 	mov	w3, #0x1                   	// #1
     328:	91378c84 	add	x4, x4, #0xde3
     32c:	52800022 	mov	w2, #0x1                   	// #1
     330:	528017a1 	mov	w1, #0xbd                  	// #189
     334:	91004800 	add	x0, x0, #0x12
     338:	940000d6 	bl	690 <trace_printf>
/home/nk/development/secure_storage/ta/secure_storage_ta.c:214
     33c:	f94027e0 	ldr	x0, [sp, #72]
     340:	17ffffcf 	b	27c <TA_InvokeCommandEntryPoint+0x158>
/home/nk/development/secure_storage/ta/secure_storage_ta.c:193
     344:	b94063e2 	ldr	w2, [sp, #96]
     348:	6b02031f 	cmp	w24, w2
     34c:	54000082 	b.cs	35c <TA_InvokeCommandEntryPoint+0x238>  // b.hs, b.nlast
/home/nk/development/secure_storage/ta/secure_storage_ta.c:199
     350:	129ffdf3 	mov	w19, #0xffff0010            	// #-65520
/home/nk/development/secure_storage/ta/secure_storage_ta.c:198
     354:	b9000a82 	str	w2, [x20, #8]
/home/nk/development/secure_storage/ta/secure_storage_ta.c:200
     358:	17fffff9 	b	33c <TA_InvokeCommandEntryPoint+0x218>
/home/nk/development/secure_storage/ta/secure_storage_ta.c:203
     35c:	f94027e0 	ldr	x0, [sp, #72]
     360:	910113e3 	add	x3, sp, #0x44
     364:	aa1703e1 	mov	x1, x23
     368:	94000912 	bl	27b0 <TEE_ReadObjectData>
     36c:	2a0003f3 	mov	w19, w0
/home/nk/development/secure_storage/ta/secure_storage_ta.c:205
     370:	350000a0 	cbnz	w0, 384 <TA_InvokeCommandEntryPoint+0x260>
     374:	b94047e1 	ldr	w1, [sp, #68]
     378:	b94063e0 	ldr	w0, [sp, #96]
     37c:	6b01001f 	cmp	w0, w1
     380:	540001c0 	b.eq	3b8 <TA_InvokeCommandEntryPoint+0x294>  // b.none
/home/nk/development/secure_storage/ta/secure_storage_ta.c:206
     384:	b94047e6 	ldr	w6, [sp, #68]
     388:	f0000040 	adrp	x0, b000 <__text_end+0x15f0>
     38c:	b94063e7 	ldr	w7, [sp, #96]
     390:	91348000 	add	x0, x0, #0xd20
     394:	2a1303e5 	mov	w5, w19
     398:	f0000044 	adrp	x4, b000 <__text_end+0x15f0>
     39c:	52800023 	mov	w3, #0x1                   	// #1
     3a0:	91384884 	add	x4, x4, #0xe12
     3a4:	52800022 	mov	w2, #0x1                   	// #1
     3a8:	528019e1 	mov	w1, #0xcf                  	// #207
     3ac:	91004800 	add	x0, x0, #0x12
     3b0:	940000b8 	bl	690 <trace_printf>
/home/nk/development/secure_storage/ta/secure_storage_ta.c:208
     3b4:	17ffffe2 	b	33c <TA_InvokeCommandEntryPoint+0x218>
/home/nk/development/secure_storage/ta/secure_storage_ta.c:212
     3b8:	b9000a80 	str	w0, [x20, #8]
     3bc:	17ffffe0 	b	33c <TA_InvokeCommandEntryPoint+0x218>
delete_object():
/home/nk/development/secure_storage/ta/secure_storage_ta.c:48
     3c0:	7100145f 	cmp	w2, #0x5
     3c4:	54000421 	b.ne	448 <TA_InvokeCommandEntryPoint+0x324>  // b.any
/home/nk/development/secure_storage/ta/secure_storage_ta.c:51
     3c8:	b9400876 	ldr	w22, [x3, #8]
/home/nk/development/secure_storage/ta/secure_storage_ta.c:52
     3cc:	52800001 	mov	w1, #0x0                   	// #0
     3d0:	2a1603e0 	mov	w0, w22
     3d4:	94000621 	bl	1c58 <TEE_Malloc>
     3d8:	aa0003f4 	mov	x20, x0
/home/nk/development/secure_storage/ta/secure_storage_ta.c:53
     3dc:	b40003a0 	cbz	x0, 450 <TA_InvokeCommandEntryPoint+0x32c>
/home/nk/development/secure_storage/ta/secure_storage_ta.c:56
     3e0:	f9400261 	ldr	x1, [x19]
     3e4:	2a1603e2 	mov	w2, w22
     3e8:	940005c5 	bl	1afc <TEE_MemMove>
/home/nk/development/secure_storage/ta/secure_storage_ta.c:61
     3ec:	910143e4 	add	x4, sp, #0x50
     3f0:	2a1503e3 	mov	w3, w21
     3f4:	2a1603e2 	mov	w2, w22
     3f8:	aa1403e1 	mov	x1, x20
     3fc:	52800020 	mov	w0, #0x1                   	// #1
     400:	940007f9 	bl	23e4 <TEE_OpenPersistentObject>
     404:	2a0003f3 	mov	w19, w0
/home/nk/development/secure_storage/ta/secure_storage_ta.c:66
     408:	340001a0 	cbz	w0, 43c <TA_InvokeCommandEntryPoint+0x318>
/home/nk/development/secure_storage/ta/secure_storage_ta.c:67
     40c:	2a0003e5 	mov	w5, w0
     410:	f0000040 	adrp	x0, b000 <__text_end+0x15f0>
     414:	91348000 	add	x0, x0, #0xd20
     418:	f0000044 	adrp	x4, b000 <__text_end+0x15f0>
     41c:	52800023 	mov	w3, #0x1                   	// #1
     420:	9136d884 	add	x4, x4, #0xdb6
     424:	52800022 	mov	w2, #0x1                   	// #1
     428:	52800861 	mov	w1, #0x43                  	// #67
     42c:	91008800 	add	x0, x0, #0x22
     430:	94000098 	bl	690 <trace_printf>
/home/nk/development/secure_storage/ta/secure_storage_ta.c:73
     434:	aa1403e0 	mov	x0, x20
     438:	17ffff89 	b	25c <TA_InvokeCommandEntryPoint+0x138>
/home/nk/development/secure_storage/ta/secure_storage_ta.c:72
     43c:	f9402be0 	ldr	x0, [sp, #80]
     440:	94000842 	bl	2548 <TEE_CloseAndDeletePersistentObject1>
     444:	17fffffc 	b	434 <TA_InvokeCommandEntryPoint+0x310>
/home/nk/development/secure_storage/ta/secure_storage_ta.c:49
     448:	129fff33 	mov	w19, #0xffff0006            	// #-65530
     44c:	17ffff85 	b	260 <TA_InvokeCommandEntryPoint+0x13c>
/home/nk/development/secure_storage/ta/secure_storage_ta.c:54
     450:	129ffe73 	mov	w19, #0xffff000c            	// #-65524
TA_InvokeCommandEntryPoint():
/home/nk/development/secure_storage/ta/secure_storage_ta.c:254
     454:	17ffff83 	b	260 <TA_InvokeCommandEntryPoint+0x13c>

0000000000000458 <__ta_entry>:
__ta_entry():
/home/nk/optee/optee_os/out/arm/export-ta_arm64/src/user_ta_header.c:47
     458:	a9bf7bfd 	stp	x29, x30, [sp, #-16]!
     45c:	910003fd 	mov	x29, sp
/home/nk/optee/optee_os/out/arm/export-ta_arm64/src/user_ta_header.c:48
     460:	94000b29 	bl	3104 <__utee_entry>
/home/nk/optee/optee_os/out/arm/export-ta_arm64/src/user_ta_header.c:59
     464:	2a0003e0 	mov	w0, w0
     468:	940009bc 	bl	2b58 <_utee_return>

000000000000046c <tahead_get_trace_level>:
tahead_get_trace_level():
/home/nk/optee/optee_os/out/arm/export-ta_arm64/src/user_ta_header.c:149
     46c:	52800020 	mov	w0, #0x1                   	// #1
     470:	d65f03c0 	ret

0000000000000474 <trace_set_level>:
trace_set_level():
/home/nk/optee/optee_os/lib/libutils/ext/trace.c:29
     474:	7100141f 	cmp	w0, #0x5
     478:	52800081 	mov	w1, #0x4                   	// #4
     47c:	1a813000 	csel	w0, w0, w1, cc  // cc = lo, ul, last
     480:	b0000061 	adrp	x1, d000 <_DYNAMIC>
     484:	f9409c21 	ldr	x1, [x1, #312]
     488:	b9000020 	str	w0, [x1]
/home/nk/optee/optee_os/lib/libutils/ext/trace.c:30
     48c:	d65f03c0 	ret

0000000000000490 <trace_get_level>:
trace_get_level():
/home/nk/optee/optee_os/lib/libutils/ext/trace.c:34
     490:	b0000060 	adrp	x0, d000 <_DYNAMIC>
/home/nk/optee/optee_os/lib/libutils/ext/trace.c:35
     494:	f9409c00 	ldr	x0, [x0, #312]
     498:	b9400000 	ldr	w0, [x0]
     49c:	d65f03c0 	ret

00000000000004a0 <trace_vprintf>:
trace_vprintf():
/home/nk/optee/optee_os/lib/libutils/ext/trace.c:106
     4a0:	a9a87bfd 	stp	x29, x30, [sp, #-384]!
     4a4:	910003fd 	mov	x29, sp
     4a8:	a90153f3 	stp	x19, x20, [sp, #16]
     4ac:	a9025bf5 	stp	x21, x22, [sp, #32]
     4b0:	a90363f7 	stp	x23, x24, [sp, #48]
/home/nk/optee/optee_os/lib/libutils/ext/trace.c:111
     4b4:	72001c77 	ands	w23, w3, #0xff
/home/nk/optee/optee_os/lib/libutils/ext/trace.c:106
     4b8:	a9046bf9 	stp	x25, x26, [sp, #64]
     4bc:	f9002bfb 	str	x27, [sp, #80]
/home/nk/optee/optee_os/lib/libutils/ext/trace.c:111
     4c0:	54000c00 	b.eq	640 <trace_vprintf+0x1a0>  // b.none
/home/nk/optee/optee_os/lib/libutils/ext/trace.c:111 (discriminator 1)
     4c4:	b0000063 	adrp	x3, d000 <_DYNAMIC>
     4c8:	f9409c63 	ldr	x3, [x3, #312]
     4cc:	b9400063 	ldr	w3, [x3]
     4d0:	6b02007f 	cmp	w3, w2
     4d4:	54000a8b 	b.lt	624 <trace_vprintf+0x184>  // b.tstop
trace_level_to_string():
/home/nk/optee/optee_os/lib/libutils/ext/trace.c:52
     4d8:	7100105f 	cmp	w2, #0x4
/home/nk/optee/optee_os/lib/libutils/ext/trace.c:55
     4dc:	f0000043 	adrp	x3, b000 <__text_end+0x15f0>
/home/nk/optee/optee_os/lib/libutils/ext/trace.c:52
     4e0:	1a9f9046 	csel	w6, w2, wzr, ls  // ls = plast
/home/nk/optee/optee_os/lib/libutils/ext/trace.c:55
     4e4:	913db863 	add	x3, x3, #0xf6e
     4e8:	3866c863 	ldrb	w3, [x3, w6, sxtw]
trace_vprintf():
/home/nk/optee/optee_os/lib/libutils/ext/trace.c:115
     4ec:	910203f4 	add	x20, sp, #0x80
     4f0:	2a0203f8 	mov	w24, w2
     4f4:	2a0103fb 	mov	w27, w1
     4f8:	aa0003f6 	mov	x22, x0
     4fc:	f0000042 	adrp	x2, b000 <__text_end+0x15f0>
     500:	aa0503fa 	mov	x26, x5
     504:	aa0403f9 	mov	x25, x4
     508:	913dcc42 	add	x2, x2, #0xf73
     50c:	d2802001 	mov	x1, #0x100                 	// #256
     510:	aa1403e0 	mov	x0, x20
     514:	9400039e 	bl	138c <snprintk>
/home/nk/optee/optee_os/lib/libutils/ext/trace.c:117
     518:	37f80860 	tbnz	w0, #31, 624 <trace_vprintf+0x184>
/home/nk/optee/optee_os/lib/libutils/ext/trace.c:122
     51c:	b0000063 	adrp	x3, d000 <_DYNAMIC>
/home/nk/optee/optee_os/lib/libutils/ext/trace.c:119
     520:	93407c15 	sxtw	x21, w0
/home/nk/optee/optee_os/lib/libutils/ext/trace.c:122
     524:	d2802013 	mov	x19, #0x100                 	// #256
     528:	f0000042 	adrp	x2, b000 <__text_end+0x15f0>
     52c:	f940a063 	ldr	x3, [x3, #320]
     530:	913ddc42 	add	x2, x2, #0xf77
     534:	cb150261 	sub	x1, x19, x21
     538:	8b150280 	add	x0, x20, x21
     53c:	94000394 	bl	138c <snprintk>
/home/nk/optee/optee_os/lib/libutils/ext/trace.c:124
     540:	37f80720 	tbnz	w0, #31, 624 <trace_vprintf+0x184>
/home/nk/optee/optee_os/lib/libutils/ext/trace.c:126
     544:	8b20c2b5 	add	x21, x21, w0, sxtw
/home/nk/optee/optee_os/lib/libutils/ext/trace.c:128
     548:	34000937 	cbz	w23, 66c <trace_vprintf+0x1cc>
/home/nk/optee/optee_os/lib/libutils/ext/trace.c:128 (discriminator 1)
     54c:	52800342 	mov	w2, #0x1a                  	// #26
     550:	1ad82442 	lsr	w2, w2, w24
     554:	360008c2 	tbz	w2, #0, 66c <trace_vprintf+0x1cc>
/home/nk/optee/optee_os/lib/libutils/ext/trace.c:130
     558:	8b150297 	add	x23, x20, x21
     55c:	cb150273 	sub	x19, x19, x21
print_thread_id():
/home/nk/optee/optee_os/lib/libutils/ext/trace.c:65
     560:	940003c4 	bl	1470 <trace_ext_get_thread_id>
/home/nk/optee/optee_os/lib/libutils/ext/trace.c:67
     564:	37f80720 	tbnz	w0, #31, 648 <trace_vprintf+0x1a8>
/home/nk/optee/optee_os/lib/libutils/ext/trace.c:68
     568:	2a0003e4 	mov	w4, w0
     56c:	f0000042 	adrp	x2, b000 <__text_end+0x15f0>
     570:	52800023 	mov	w3, #0x1                   	// #1
     574:	913dec42 	add	x2, x2, #0xf7b
     578:	aa1303e1 	mov	x1, x19
     57c:	aa1703e0 	mov	x0, x23
     580:	94000383 	bl	138c <snprintk>
trace_vprintf():
/home/nk/optee/optee_os/lib/libutils/ext/trace.c:137
     584:	37f80500 	tbnz	w0, #31, 624 <trace_vprintf+0x184>
/home/nk/optee/optee_os/lib/libutils/ext/trace.c:139
     588:	8b20c2b3 	add	x19, x21, w0, sxtw
/home/nk/optee/optee_os/lib/libutils/ext/trace.c:141
     58c:	b4000176 	cbz	x22, 5b8 <trace_vprintf+0x118>
/home/nk/optee/optee_os/lib/libutils/ext/trace.c:142
     590:	f0000042 	adrp	x2, b000 <__text_end+0x15f0>
     594:	d2802001 	mov	x1, #0x100                 	// #256
     598:	2a1b03e4 	mov	w4, w27
     59c:	aa1603e3 	mov	x3, x22
     5a0:	913e1842 	add	x2, x2, #0xf86
     5a4:	cb130021 	sub	x1, x1, x19
     5a8:	8b130280 	add	x0, x20, x19
     5ac:	94000378 	bl	138c <snprintk>
/home/nk/optee/optee_os/lib/libutils/ext/trace.c:144
     5b0:	37f803a0 	tbnz	w0, #31, 624 <trace_vprintf+0x184>
/home/nk/optee/optee_os/lib/libutils/ext/trace.c:146
     5b4:	8b20c273 	add	x19, x19, w0, sxtw
/home/nk/optee/optee_os/lib/libutils/ext/trace.c:156
     5b8:	910183e3 	add	x3, sp, #0x60
     5bc:	d2800402 	mov	x2, #0x20                  	// #32
     5c0:	aa1a03e1 	mov	x1, x26
     5c4:	aa0303e0 	mov	x0, x3
     5c8:	97fffe96 	bl	20 <memcpy>
     5cc:	aa0003e3 	mov	x3, x0
     5d0:	aa1903e2 	mov	x2, x25
     5d4:	d2802001 	mov	x1, #0x100                 	// #256
     5d8:	8b130280 	add	x0, x20, x19
     5dc:	cb130021 	sub	x1, x1, x19
     5e0:	94000356 	bl	1338 <vsnprintk>
/home/nk/optee/optee_os/lib/libutils/ext/trace.c:157
     5e4:	7100001f 	cmp	w0, #0x0
     5e8:	5400004d 	b.le	5f0 <trace_vprintf+0x150>
/home/nk/optee/optee_os/lib/libutils/ext/trace.c:158
     5ec:	8b20c273 	add	x19, x19, w0, sxtw
/home/nk/optee/optee_os/lib/libutils/ext/trace.c:160
     5f0:	f103fa7f 	cmp	x19, #0xfe
     5f4:	d2801fc0 	mov	x0, #0xfe                  	// #254
     5f8:	9a809273 	csel	x19, x19, x0, ls  // ls = plast
/home/nk/optee/optee_os/lib/libutils/ext/trace.c:163
     5fc:	52800140 	mov	w0, #0xa                   	// #10
     600:	38336a80 	strb	w0, [x20, x19]
/home/nk/optee/optee_os/lib/libutils/ext/trace.c:164
     604:	b4000093 	cbz	x19, 614 <trace_vprintf+0x174>
/home/nk/optee/optee_os/lib/libutils/ext/trace.c:164 (discriminator 1)
     608:	38736a80 	ldrb	w0, [x20, x19]
     60c:	7100281f 	cmp	w0, #0xa
     610:	540003c0 	b.eq	688 <trace_vprintf+0x1e8>  // b.none
/home/nk/optee/optee_os/lib/libutils/ext/trace.c:167
     614:	91020be0 	add	x0, sp, #0x82
     618:	3833681f 	strb	wzr, [x0, x19]
/home/nk/optee/optee_os/lib/libutils/ext/trace.c:169
     61c:	aa1403e0 	mov	x0, x20
     620:	9400038a 	bl	1448 <trace_ext_puts>
/home/nk/optee/optee_os/lib/libutils/ext/trace.c:170
     624:	a94153f3 	ldp	x19, x20, [sp, #16]
     628:	a9425bf5 	ldp	x21, x22, [sp, #32]
     62c:	a94363f7 	ldp	x23, x24, [sp, #48]
     630:	a9446bf9 	ldp	x25, x26, [sp, #64]
     634:	f9402bfb 	ldr	x27, [sp, #80]
     638:	a8d87bfd 	ldp	x29, x30, [sp], #384
     63c:	d65f03c0 	ret
trace_level_to_string():
/home/nk/optee/optee_os/lib/libutils/ext/trace.c:50
     640:	528009a3 	mov	w3, #0x4d                  	// #77
     644:	17ffffaa 	b	4ec <trace_vprintf+0x4c>
print_thread_id():
/home/nk/optee/optee_os/lib/libutils/ext/trace.c:70
     648:	90000064 	adrp	x4, c000 <HEXDIGITS+0x62>
     64c:	52800023 	mov	w3, #0x1                   	// #1
     650:	9119c884 	add	x4, x4, #0x672
     654:	f0000042 	adrp	x2, b000 <__text_end+0x15f0>
     658:	aa1303e1 	mov	x1, x19
     65c:	913e0442 	add	x2, x2, #0xf81
     660:	aa1703e0 	mov	x0, x23
     664:	9400034a 	bl	138c <snprintk>
     668:	17ffffc7 	b	584 <trace_vprintf+0xe4>
trace_vprintf():
/home/nk/optee/optee_os/lib/libutils/ext/trace.c:150
     66c:	f103fabf 	cmp	x21, #0xfe
     670:	54fffda8 	b.hi	624 <trace_vprintf+0x184>  // b.pmore
/home/nk/optee/optee_os/lib/libutils/ext/trace.c:152
     674:	910006b3 	add	x19, x21, #0x1
     678:	52800400 	mov	w0, #0x20                  	// #32
     67c:	38356a80 	strb	w0, [x20, x21]
/home/nk/optee/optee_os/lib/libutils/ext/trace.c:153
     680:	38336a9f 	strb	wzr, [x20, x19]
     684:	17ffffcd 	b	5b8 <trace_vprintf+0x118>
/home/nk/optee/optee_os/lib/libutils/ext/trace.c:165
     688:	d1000673 	sub	x19, x19, #0x1
     68c:	17ffffde 	b	604 <trace_vprintf+0x164>

0000000000000690 <trace_printf>:
trace_printf():
/home/nk/optee/optee_os/lib/libutils/ext/trace.c:97
     690:	a9b17bfd 	stp	x29, x30, [sp, #-240]!
     694:	910003fd 	mov	x29, sp
     698:	a90d9be5 	stp	x5, x6, [sp, #216]
/home/nk/optee/optee_os/lib/libutils/ext/trace.c:100
     69c:	9103c3e5 	add	x5, sp, #0xf0
     6a0:	a90317e5 	stp	x5, x5, [sp, #48]
     6a4:	910343e5 	add	x5, sp, #0xd0
     6a8:	f90023e5 	str	x5, [sp, #64]
     6ac:	128002e5 	mov	w5, #0xffffffe8            	// #-24
     6b0:	b9004be5 	str	w5, [sp, #72]
     6b4:	12800fe5 	mov	w5, #0xffffff80            	// #-128
     6b8:	b9004fe5 	str	w5, [sp, #76]
/home/nk/optee/optee_os/lib/libutils/ext/trace.c:101
     6bc:	910043e5 	add	x5, sp, #0x10
/home/nk/optee/optee_os/lib/libutils/ext/trace.c:97
     6c0:	f90077e7 	str	x7, [sp, #232]
/home/nk/optee/optee_os/lib/libutils/ext/trace.c:101
     6c4:	a9431fe6 	ldp	x6, x7, [sp, #48]
     6c8:	a9011fe6 	stp	x6, x7, [sp, #16]
     6cc:	a9441fe6 	ldp	x6, x7, [sp, #64]
     6d0:	a9021fe6 	stp	x6, x7, [sp, #32]
/home/nk/optee/optee_os/lib/libutils/ext/trace.c:97
     6d4:	3d8017e0 	str	q0, [sp, #80]
     6d8:	3d801be1 	str	q1, [sp, #96]
     6dc:	3d801fe2 	str	q2, [sp, #112]
     6e0:	3d8023e3 	str	q3, [sp, #128]
     6e4:	3d8027e4 	str	q4, [sp, #144]
     6e8:	3d802be5 	str	q5, [sp, #160]
     6ec:	3d802fe6 	str	q6, [sp, #176]
     6f0:	3d8033e7 	str	q7, [sp, #192]
/home/nk/optee/optee_os/lib/libutils/ext/trace.c:101
     6f4:	97ffff6b 	bl	4a0 <trace_vprintf>
/home/nk/optee/optee_os/lib/libutils/ext/trace.c:103
     6f8:	a8cf7bfd 	ldp	x29, x30, [sp], #240
     6fc:	d65f03c0 	ret

0000000000000700 <dhex_dump>:
dhex_dump():
/home/nk/optee/optee_os/lib/libutils/ext/trace.c:280
     700:	d65f03c0 	ret

0000000000000704 <__vsnprintf>:
__vsnprintf():
/home/nk/optee/optee_os/lib/libutils/ext/snprintk.c:137
     704:	d10403ff 	sub	sp, sp, #0x100
     708:	aa0203e9 	mov	x9, x2
kprintf():
/home/nk/optee/optee_os/lib/libutils/ext/snprintk.c:537
     70c:	910363ed 	add	x13, sp, #0xd8
__vsnprintf():
/home/nk/optee/optee_os/lib/libutils/ext/snprintk.c:137
     710:	a9037bfd 	stp	x29, x30, [sp, #48]
     714:	9100c3fd 	add	x29, sp, #0x30
     718:	a90987e0 	stp	x0, x1, [sp, #152]
     71c:	12001c80 	and	w0, w4, #0xff
     720:	a90453f3 	stp	x19, x20, [sp, #64]
     724:	b9401874 	ldr	w20, [x3, #24]
     728:	a90873fb 	stp	x27, x28, [sp, #128]
     72c:	b900afe0 	str	w0, [sp, #172]
     730:	a9407073 	ldp	x19, x28, [x3]
     734:	a9076bf9 	stp	x25, x26, [sp, #112]
kprintf():
/home/nk/optee/optee_os/lib/libutils/ext/snprintk.c:267
     738:	5280001a 	mov	w26, #0x0                   	// #0
__vsnprintf():
/home/nk/optee/optee_os/lib/libutils/ext/snprintk.c:141
     73c:	f9404fe0 	ldr	x0, [sp, #152]
/home/nk/optee/optee_os/lib/libutils/ext/snprintk.c:137
     740:	a9055bf5 	stp	x21, x22, [sp, #80]
kprintf():
/home/nk/optee/optee_os/lib/libutils/ext/snprintk.c:269
     744:	d2800016 	mov	x22, #0x0                   	// #0
__vsnprintf():
/home/nk/optee/optee_os/lib/libutils/ext/snprintk.c:141
     748:	8b010019 	add	x25, x0, x1
     74c:	aa0003fb 	mov	x27, x0
/home/nk/optee/optee_os/lib/libutils/ext/snprintk.c:137
     750:	a90663f7 	stp	x23, x24, [sp, #96]
kprintf():
/home/nk/optee/optee_os/lib/libutils/ext/snprintk.c:275
     754:	39400120 	ldrb	w0, [x9]
     758:	7100941f 	cmp	w0, #0x25
     75c:	7a401804 	ccmp	w0, #0x0, #0x4, ne  // ne = any
     760:	540003c1 	b.ne	7d8 <__vsnprintf+0xd4>  // b.any
/home/nk/optee/optee_os/lib/libutils/ext/snprintk.c:279
     764:	34005be0 	cbz	w0, 12e0 <__vsnprintf+0xbdc>
/home/nk/optee/optee_os/lib/libutils/ext/snprintk.c:287
     768:	12800003 	mov	w3, #0xffffffff            	// #-1
/home/nk/optee/optee_os/lib/libutils/ext/snprintk.c:282
     76c:	91000529 	add	x9, x9, #0x1
     770:	2a1403e1 	mov	w1, w20
     774:	aa1303e0 	mov	x0, x19
/home/nk/optee/optee_os/lib/libutils/ext/snprintk.c:324
     778:	2a0303e6 	mov	w6, w3
/home/nk/optee/optee_os/lib/libutils/ext/snprintk.c:288
     77c:	52800002 	mov	w2, #0x0                   	// #0
/home/nk/optee/optee_os/lib/libutils/ext/snprintk.c:286
     780:	52800017 	mov	w23, #0x0                   	// #0
/home/nk/optee/optee_os/lib/libutils/ext/snprintk.c:284
     784:	52800015 	mov	w21, #0x0                   	// #0
/home/nk/optee/optee_os/lib/libutils/ext/snprintk.c:299
     788:	52800407 	mov	w7, #0x20                  	// #32
/home/nk/optee/optee_os/lib/libutils/ext/snprintk.c:290
     78c:	38401538 	ldrb	w24, [x9], #1
/home/nk/optee/optee_os/lib/libutils/ext/snprintk.c:291
     790:	71018f1f 	cmp	w24, #0x63
     794:	540019e0 	b.eq	ad0 <__vsnprintf+0x3cc>  // b.none
     798:	540007ec 	b.gt	894 <__vsnprintf+0x190>
     79c:	7100c31f 	cmp	w24, #0x30
     7a0:	540017c0 	b.eq	a98 <__vsnprintf+0x394>  // b.none
     7a4:	5400038c 	b.gt	814 <__vsnprintf+0x110>
     7a8:	7100ab1f 	cmp	w24, #0x2a
     7ac:	54001100 	b.eq	9cc <__vsnprintf+0x2c8>  // b.none
     7b0:	5400022c 	b.gt	7f4 <__vsnprintf+0xf0>
     7b4:	7100831f 	cmp	w24, #0x20
     7b8:	54001000 	b.eq	9b8 <__vsnprintf+0x2b4>  // b.none
     7bc:	71008f1f 	cmp	w24, #0x23
     7c0:	54001020 	b.eq	9c4 <__vsnprintf+0x2c0>  // b.none
/home/nk/optee/optee_os/lib/libutils/ext/snprintk.c:541
     7c4:	340058f8 	cbz	w24, 12e0 <__vsnprintf+0xbdc>
/home/nk/optee/optee_os/lib/libutils/ext/snprintk.c:545
     7c8:	2a0103f4 	mov	w20, w1
     7cc:	aa0003f3 	mov	x19, x0
     7d0:	390363f8 	strb	w24, [sp, #216]
/home/nk/optee/optee_os/lib/libutils/ext/snprintk.c:548
     7d4:	140000c5 	b	ae8 <__vsnprintf+0x3e4>
/home/nk/optee/optee_os/lib/libutils/ext/snprintk.c:276
     7d8:	1100075a 	add	w26, w26, #0x1
/home/nk/optee/optee_os/lib/libutils/ext/snprintk.c:277
     7dc:	b400009b 	cbz	x27, 7ec <__vsnprintf+0xe8>
     7e0:	eb1b033f 	cmp	x25, x27
     7e4:	54000049 	b.ls	7ec <__vsnprintf+0xe8>  // b.plast
     7e8:	38001760 	strb	w0, [x27], #1
/home/nk/optee/optee_os/lib/libutils/ext/snprintk.c:275
     7ec:	91000529 	add	x9, x9, #0x1
     7f0:	17ffffd9 	b	754 <__vsnprintf+0x50>
/home/nk/optee/optee_os/lib/libutils/ext/snprintk.c:291
     7f4:	7100b71f 	cmp	w24, #0x2d
     7f8:	54000f80 	b.eq	9e8 <__vsnprintf+0x2e4>  // b.none
     7fc:	7100bb1f 	cmp	w24, #0x2e
     800:	540010e0 	b.eq	a1c <__vsnprintf+0x318>  // b.none
     804:	7100af1f 	cmp	w24, #0x2b
     808:	54fffde1 	b.ne	7c4 <__vsnprintf+0xc0>  // b.any
/home/nk/optee/optee_os/lib/libutils/ext/snprintk.c:319
     80c:	2a1803e2 	mov	w2, w24
     810:	17ffffdf 	b	78c <__vsnprintf+0x88>
/home/nk/optee/optee_os/lib/libutils/ext/snprintk.c:291
     814:	7101131f 	cmp	w24, #0x44
     818:	54001840 	b.eq	b20 <__vsnprintf+0x41c>  // b.none
     81c:	5400018c 	b.gt	84c <__vsnprintf+0x148>
     820:	7100e71f 	cmp	w24, #0x39
     824:	54fffd0c 	b.gt	7c4 <__vsnprintf+0xc0>
/home/nk/optee/optee_os/lib/libutils/ext/snprintk.c:344
     828:	52800017 	mov	w23, #0x0                   	// #0
/home/nk/optee/optee_os/lib/libutils/ext/snprintk.c:346
     82c:	5100c308 	sub	w8, w24, #0x30
     830:	52800144 	mov	w4, #0xa                   	// #10
/home/nk/optee/optee_os/lib/libutils/ext/snprintk.c:347
     834:	38401538 	ldrb	w24, [x9], #1
/home/nk/optee/optee_os/lib/libutils/ext/snprintk.c:346
     838:	1b0422f7 	madd	w23, w23, w4, w8
/home/nk/optee/optee_os/lib/libutils/ext/snprintk.c:348
     83c:	5100c304 	sub	w4, w24, #0x30
     840:	7100249f 	cmp	w4, #0x9
     844:	54ffff49 	b.ls	82c <__vsnprintf+0x128>  // b.plast
     848:	17ffffd2 	b	790 <__vsnprintf+0x8c>
/home/nk/optee/optee_os/lib/libutils/ext/snprintk.c:291
     84c:	7101571f 	cmp	w24, #0x55
     850:	54003e20 	b.eq	1014 <__vsnprintf+0x910>  // b.none
     854:	7101631f 	cmp	w24, #0x58
     858:	540043a0 	b.eq	10cc <__vsnprintf+0x9c8>  // b.none
     85c:	71013f1f 	cmp	w24, #0x4f
     860:	54fffb21 	b.ne	7c4 <__vsnprintf+0xc0>  // b.any
/home/nk/optee/optee_os/lib/libutils/ext/snprintk.c:408
     864:	321c02b5 	orr	w21, w21, #0x10
/home/nk/optee/optee_os/lib/libutils/ext/snprintk.c:411
     868:	36382675 	tbz	w21, #7, d34 <__vsnprintf+0x630>
     86c:	37f827a1 	tbnz	w1, #31, d60 <__vsnprintf+0x65c>
     870:	91003c13 	add	x19, x0, #0xf
     874:	2a0103f4 	mov	w20, w1
     878:	927df273 	and	x19, x19, #0xfffffffffffffff8
     87c:	f9400000 	ldr	x0, [x0]
/home/nk/optee/optee_os/lib/libutils/ext/snprintk.c:488
     880:	52800002 	mov	w2, #0x0                   	// #0
     884:	3100047f 	cmn	w3, #0x1
     888:	540016e0 	b.eq	b64 <__vsnprintf+0x460>  // b.none
     88c:	52800001 	mov	w1, #0x0                   	// #0
     890:	1400024e 	b	11c8 <__vsnprintf+0xac4>
/home/nk/optee/optee_os/lib/libutils/ext/snprintk.c:291
     894:	7101bf1f 	cmp	w24, #0x6f
     898:	54fffe80 	b.eq	868 <__vsnprintf+0x164>  // b.none
     89c:	5400024c 	b.gt	8e4 <__vsnprintf+0x1e0>
     8a0:	7101a71f 	cmp	w24, #0x69
     8a4:	54001400 	b.eq	b24 <__vsnprintf+0x420>  // b.none
     8a8:	540000ec 	b.gt	8c4 <__vsnprintf+0x1c0>
     8ac:	7101931f 	cmp	w24, #0x64
     8b0:	540013a0 	b.eq	b24 <__vsnprintf+0x420>  // b.none
     8b4:	7101a31f 	cmp	w24, #0x68
     8b8:	54fff861 	b.ne	7c4 <__vsnprintf+0xc0>  // b.any
/home/nk/optee/optee_os/lib/libutils/ext/snprintk.c:352
     8bc:	321a02b5 	orr	w21, w21, #0x40
/home/nk/optee/optee_os/lib/libutils/ext/snprintk.c:353
     8c0:	17ffffb3 	b	78c <__vsnprintf+0x88>
/home/nk/optee/optee_os/lib/libutils/ext/snprintk.c:291
     8c4:	7101b31f 	cmp	w24, #0x6c
     8c8:	54000ec0 	b.eq	aa0 <__vsnprintf+0x39c>  // b.none
     8cc:	7101bb1f 	cmp	w24, #0x6e
     8d0:	54001c40 	b.eq	c58 <__vsnprintf+0x554>  // b.none
     8d4:	7101ab1f 	cmp	w24, #0x6a
     8d8:	54fff761 	b.ne	7c4 <__vsnprintf+0xc0>  // b.any
/home/nk/optee/optee_os/lib/libutils/ext/snprintk.c:355
     8dc:	321902b5 	orr	w21, w21, #0x80
/home/nk/optee/optee_os/lib/libutils/ext/snprintk.c:356
     8e0:	17ffffab 	b	78c <__vsnprintf+0x88>
/home/nk/optee/optee_os/lib/libutils/ext/snprintk.c:291
     8e4:	7101d31f 	cmp	w24, #0x74
     8e8:	54000ec0 	b.eq	ac0 <__vsnprintf+0x3bc>  // b.none
     8ec:	5400042c 	b.gt	970 <__vsnprintf+0x26c>
     8f0:	7101c71f 	cmp	w24, #0x71
     8f4:	54000de0 	b.eq	ab0 <__vsnprintf+0x3ac>  // b.none
     8f8:	5400276b 	b.lt	de4 <__vsnprintf+0x6e0>  // b.tstop
     8fc:	7101cf1f 	cmp	w24, #0x73
     900:	54fff621 	b.ne	7c4 <__vsnprintf+0xc0>  // b.any
/home/nk/optee/optee_os/lib/libutils/ext/snprintk.c:442
     904:	37f83621 	tbnz	w1, #31, fc8 <__vsnprintf+0x8c4>
     908:	91003c13 	add	x19, x0, #0xf
     90c:	2a0103f4 	mov	w20, w1
     910:	927df273 	and	x19, x19, #0xfffffffffffffff8
     914:	f9400004 	ldr	x4, [x0]
     918:	b5000064 	cbnz	x4, 924 <__vsnprintf+0x220>
/home/nk/optee/optee_os/lib/libutils/ext/snprintk.c:444
     91c:	f0000044 	adrp	x4, b000 <__text_end+0x15f0>
     920:	913ebc84 	add	x4, x4, #0xfaf
/home/nk/optee/optee_os/lib/libutils/ext/snprintk.c:445
     924:	3100047f 	cmn	w3, #0x1
     928:	54003620 	b.eq	fec <__vsnprintf+0x8e8>  // b.none
/home/nk/optee/optee_os/lib/libutils/ext/snprintk.c:451
     92c:	93407c62 	sxtw	x2, w3
     930:	aa0403e0 	mov	x0, x4
     934:	52800001 	mov	w1, #0x0                   	// #0
     938:	f9005be4 	str	x4, [sp, #176]
     93c:	b900bbe3 	str	w3, [sp, #184]
     940:	a90c37e9 	stp	x9, x13, [sp, #192]
     944:	940002af 	bl	1400 <memchr>
/home/nk/optee/optee_os/lib/libutils/ext/snprintk.c:453
     948:	b940bbe3 	ldr	w3, [sp, #184]
     94c:	f9405be4 	ldr	x4, [sp, #176]
     950:	a94c37e9 	ldp	x9, x13, [sp, #192]
     954:	b4000080 	cbz	x0, 964 <__vsnprintf+0x260>
/home/nk/optee/optee_os/lib/libutils/ext/snprintk.c:454
     958:	cb040000 	sub	x0, x0, x4
     95c:	6b00007f 	cmp	w3, w0
     960:	1a80d063 	csel	w3, w3, w0, le
/home/nk/optee/optee_os/lib/libutils/ext/snprintk.c:285
     964:	52800001 	mov	w1, #0x0                   	// #0
/home/nk/optee/optee_os/lib/libutils/ext/snprintk.c:461
     968:	52800002 	mov	w2, #0x0                   	// #0
     96c:	14000148 	b	e8c <__vsnprintf+0x788>
/home/nk/optee/optee_os/lib/libutils/ext/snprintk.c:291
     970:	7101e31f 	cmp	w24, #0x78
     974:	54003ca0 	b.eq	1108 <__vsnprintf+0xa04>  // b.none
     978:	7101eb1f 	cmp	w24, #0x7a
     97c:	54000a60 	b.eq	ac8 <__vsnprintf+0x3c4>  // b.none
     980:	7101d71f 	cmp	w24, #0x75
     984:	54fff201 	b.ne	7c4 <__vsnprintf+0xc0>  // b.any
/home/nk/optee/optee_os/lib/libutils/ext/snprintk.c:467
     988:	363834b5 	tbz	w21, #7, 101c <__vsnprintf+0x918>
     98c:	37f835e1 	tbnz	w1, #31, 1048 <__vsnprintf+0x944>
     990:	91003c13 	add	x19, x0, #0xf
     994:	2a0103f4 	mov	w20, w1
     998:	927df273 	and	x19, x19, #0xfffffffffffffff8
     99c:	f9400000 	ldr	x0, [x0]
/home/nk/optee/optee_os/lib/libutils/ext/snprintk.c:482
     9a0:	52800002 	mov	w2, #0x0                   	// #0
/home/nk/optee/optee_os/lib/libutils/ext/snprintk.c:488
     9a4:	3100047f 	cmn	w3, #0x1
     9a8:	540041e1 	b.ne	11e4 <__vsnprintf+0xae0>  // b.any
/home/nk/optee/optee_os/lib/libutils/ext/snprintk.c:508
     9ac:	910095a1 	add	x1, x13, #0x25
/home/nk/optee/optee_os/lib/libutils/ext/snprintk.c:517
     9b0:	d2800145 	mov	x5, #0xa                   	// #10
     9b4:	14000216 	b	120c <__vsnprintf+0xb08>
/home/nk/optee/optee_os/lib/libutils/ext/snprintk.c:299
     9b8:	7100005f 	cmp	w2, #0x0
     9bc:	1a871042 	csel	w2, w2, w7, ne  // ne = any
     9c0:	17ffff73 	b	78c <__vsnprintf+0x88>
/home/nk/optee/optee_os/lib/libutils/ext/snprintk.c:302
     9c4:	320002b5 	orr	w21, w21, #0x1
/home/nk/optee/optee_os/lib/libutils/ext/snprintk.c:303
     9c8:	17ffff71 	b	78c <__vsnprintf+0x88>
/home/nk/optee/optee_os/lib/libutils/ext/snprintk.c:311
     9cc:	37f80121 	tbnz	w1, #31, 9f0 <__vsnprintf+0x2ec>
     9d0:	91002c05 	add	x5, x0, #0xb
     9d4:	aa0003e4 	mov	x4, x0
     9d8:	927df0a0 	and	x0, x5, #0xfffffffffffffff8
     9dc:	b9400097 	ldr	w23, [x4]
     9e0:	36ffed77 	tbz	w23, #31, 78c <__vsnprintf+0x88>
/home/nk/optee/optee_os/lib/libutils/ext/snprintk.c:313
     9e4:	4b1703f7 	neg	w23, w23
/home/nk/optee/optee_os/lib/libutils/ext/snprintk.c:316
     9e8:	321e02b5 	orr	w21, w21, #0x4
/home/nk/optee/optee_os/lib/libutils/ext/snprintk.c:317
     9ec:	17ffff68 	b	78c <__vsnprintf+0x88>
/home/nk/optee/optee_os/lib/libutils/ext/snprintk.c:311
     9f0:	11002025 	add	w5, w1, #0x8
     9f4:	710000bf 	cmp	w5, #0x0
     9f8:	540000cd 	b.le	a10 <__vsnprintf+0x30c>
     9fc:	91002c08 	add	x8, x0, #0xb
     a00:	aa0003e4 	mov	x4, x0
     a04:	2a0503e1 	mov	w1, w5
     a08:	927df100 	and	x0, x8, #0xfffffffffffffff8
     a0c:	17fffff4 	b	9dc <__vsnprintf+0x2d8>
     a10:	8b21c384 	add	x4, x28, w1, sxtw
     a14:	2a0503e1 	mov	w1, w5
     a18:	17fffff1 	b	9dc <__vsnprintf+0x2d8>
/home/nk/optee/optee_os/lib/libutils/ext/snprintk.c:322
     a1c:	38401538 	ldrb	w24, [x9], #1
     a20:	7100ab1f 	cmp	w24, #0x2a
     a24:	54000361 	b.ne	a90 <__vsnprintf+0x38c>  // b.any
/home/nk/optee/optee_os/lib/libutils/ext/snprintk.c:323
     a28:	37f80141 	tbnz	w1, #31, a50 <__vsnprintf+0x34c>
     a2c:	91002c04 	add	x4, x0, #0xb
     a30:	2a0103e5 	mov	w5, w1
     a34:	927df084 	and	x4, x4, #0xfffffffffffffff8
/home/nk/optee/optee_os/lib/libutils/ext/snprintk.c:324
     a38:	b9400003 	ldr	w3, [x0]
     a3c:	2a0503e1 	mov	w1, w5
     a40:	aa0403e0 	mov	x0, x4
     a44:	7100007f 	cmp	w3, #0x0
     a48:	1a86a063 	csel	w3, w3, w6, ge  // ge = tcont
/home/nk/optee/optee_os/lib/libutils/ext/snprintk.c:325
     a4c:	17ffff50 	b	78c <__vsnprintf+0x88>
/home/nk/optee/optee_os/lib/libutils/ext/snprintk.c:323
     a50:	11002025 	add	w5, w1, #0x8
     a54:	710000bf 	cmp	w5, #0x0
     a58:	5400008d 	b.le	a68 <__vsnprintf+0x364>
     a5c:	91002c04 	add	x4, x0, #0xb
     a60:	927df084 	and	x4, x4, #0xfffffffffffffff8
     a64:	17fffff5 	b	a38 <__vsnprintf+0x334>
     a68:	aa0003e4 	mov	x4, x0
     a6c:	8b21c380 	add	x0, x28, w1, sxtw
     a70:	17fffff2 	b	a38 <__vsnprintf+0x334>
/home/nk/optee/optee_os/lib/libutils/ext/snprintk.c:329
     a74:	52800145 	mov	w5, #0xa                   	// #10
/home/nk/optee/optee_os/lib/libutils/ext/snprintk.c:330
     a78:	38401538 	ldrb	w24, [x9], #1
/home/nk/optee/optee_os/lib/libutils/ext/snprintk.c:329
     a7c:	1b051063 	madd	w3, w3, w5, w4
/home/nk/optee/optee_os/lib/libutils/ext/snprintk.c:328
     a80:	5100c304 	sub	w4, w24, #0x30
     a84:	7100249f 	cmp	w4, #0x9
     a88:	54ffff69 	b.ls	a74 <__vsnprintf+0x370>  // b.plast
     a8c:	17ffff41 	b	790 <__vsnprintf+0x8c>
/home/nk/optee/optee_os/lib/libutils/ext/snprintk.c:327
     a90:	52800003 	mov	w3, #0x0                   	// #0
     a94:	17fffffb 	b	a80 <__vsnprintf+0x37c>
/home/nk/optee/optee_os/lib/libutils/ext/snprintk.c:340
     a98:	321602b5 	orr	w21, w21, #0x400
/home/nk/optee/optee_os/lib/libutils/ext/snprintk.c:341
     a9c:	17ffff3c 	b	78c <__vsnprintf+0x88>
/home/nk/optee/optee_os/lib/libutils/ext/snprintk.c:358
     aa0:	39400124 	ldrb	w4, [x9]
     aa4:	7101b09f 	cmp	w4, #0x6c
     aa8:	54000081 	b.ne	ab8 <__vsnprintf+0x3b4>  // b.any
     aac:	91000529 	add	x9, x9, #0x1
/home/nk/optee/optee_os/lib/libutils/ext/snprintk.c:366
     ab0:	321b02b5 	orr	w21, w21, #0x20
/home/nk/optee/optee_os/lib/libutils/ext/snprintk.c:367
     ab4:	17ffff36 	b	78c <__vsnprintf+0x88>
/home/nk/optee/optee_os/lib/libutils/ext/snprintk.c:362
     ab8:	321c02b5 	orr	w21, w21, #0x10
     abc:	17ffff34 	b	78c <__vsnprintf+0x88>
/home/nk/optee/optee_os/lib/libutils/ext/snprintk.c:369
     ac0:	321802b5 	orr	w21, w21, #0x100
/home/nk/optee/optee_os/lib/libutils/ext/snprintk.c:370
     ac4:	17ffff32 	b	78c <__vsnprintf+0x88>
/home/nk/optee/optee_os/lib/libutils/ext/snprintk.c:372
     ac8:	321702b5 	orr	w21, w21, #0x200
/home/nk/optee/optee_os/lib/libutils/ext/snprintk.c:373
     acc:	17ffff30 	b	78c <__vsnprintf+0x88>
/home/nk/optee/optee_os/lib/libutils/ext/snprintk.c:375
     ad0:	37f80161 	tbnz	w1, #31, afc <__vsnprintf+0x3f8>
     ad4:	91002c13 	add	x19, x0, #0xb
     ad8:	2a0103f4 	mov	w20, w1
     adc:	927df273 	and	x19, x19, #0xfffffffffffffff8
     ae0:	b9400000 	ldr	w0, [x0]
     ae4:	390363e0 	strb	w0, [sp, #216]
/home/nk/optee/optee_os/lib/libutils/ext/snprintk.c:546
     ae8:	52800023 	mov	w3, #0x1                   	// #1
/home/nk/optee/optee_os/lib/libutils/ext/snprintk.c:285
     aec:	52800001 	mov	w1, #0x0                   	// #0
/home/nk/optee/optee_os/lib/libutils/ext/snprintk.c:547
     af0:	52800002 	mov	w2, #0x0                   	// #0
/home/nk/optee/optee_os/lib/libutils/ext/snprintk.c:544
     af4:	910363e4 	add	x4, sp, #0xd8
     af8:	140000e5 	b	e8c <__vsnprintf+0x788>
/home/nk/optee/optee_os/lib/libutils/ext/snprintk.c:375
     afc:	11002034 	add	w20, w1, #0x8
     b00:	7100029f 	cmp	w20, #0x0
     b04:	5400008d 	b.le	b14 <__vsnprintf+0x410>
     b08:	91002c13 	add	x19, x0, #0xb
     b0c:	927df273 	and	x19, x19, #0xfffffffffffffff8
     b10:	17fffff4 	b	ae0 <__vsnprintf+0x3dc>
     b14:	aa0003f3 	mov	x19, x0
     b18:	8b21c380 	add	x0, x28, w1, sxtw
     b1c:	17fffff1 	b	ae0 <__vsnprintf+0x3dc>
/home/nk/optee/optee_os/lib/libutils/ext/snprintk.c:380
     b20:	321c02b5 	orr	w21, w21, #0x10
/home/nk/optee/optee_os/lib/libutils/ext/snprintk.c:384
     b24:	36380435 	tbz	w21, #7, ba8 <__vsnprintf+0x4a4>
     b28:	37f80561 	tbnz	w1, #31, bd4 <__vsnprintf+0x4d0>
     b2c:	91003c13 	add	x19, x0, #0xf
     b30:	2a0103f4 	mov	w20, w1
     b34:	927df273 	and	x19, x19, #0xfffffffffffffff8
     b38:	f9400000 	ldr	x0, [x0]
/home/nk/optee/optee_os/lib/libutils/ext/snprintk.c:385
     b3c:	b6fff340 	tbz	x0, #63, 9a4 <__vsnprintf+0x2a0>
/home/nk/optee/optee_os/lib/libutils/ext/snprintk.c:386
     b40:	cb0003e0 	neg	x0, x0
/home/nk/optee/optee_os/lib/libutils/ext/snprintk.c:389
     b44:	52800021 	mov	w1, #0x1                   	// #1
/home/nk/optee/optee_os/lib/libutils/ext/snprintk.c:387
     b48:	528005a2 	mov	w2, #0x2d                  	// #45
/home/nk/optee/optee_os/lib/libutils/ext/snprintk.c:488
     b4c:	3100047f 	cmn	w3, #0x1
     b50:	540033c1 	b.ne	11c8 <__vsnprintf+0xac4>  // b.any
/home/nk/optee/optee_os/lib/libutils/ext/snprintk.c:503
     b54:	7100043f 	cmp	w1, #0x1
     b58:	54fff2a0 	b.eq	9ac <__vsnprintf+0x2a8>  // b.none
     b5c:	7100083f 	cmp	w1, #0x2
     b60:	54002140 	b.eq	f88 <__vsnprintf+0x884>  // b.none
/home/nk/optee/optee_os/lib/libutils/ext/snprintk.c:488
     b64:	910095a1 	add	x1, x13, #0x25
/home/nk/optee/optee_os/lib/libutils/ext/snprintk.c:506
     b68:	12000805 	and	w5, w0, #0x7
     b6c:	d1000424 	sub	x4, x1, #0x1
     b70:	1100c0a5 	add	w5, w5, #0x30
     b74:	381ff025 	sturb	w5, [x1, #-1]
/home/nk/optee/optee_os/lib/libutils/ext/snprintk.c:507
     b78:	d343fc00 	lsr	x0, x0, #3
/home/nk/optee/optee_os/lib/libutils/ext/snprintk.c:508
     b7c:	b5003380 	cbnz	x0, 11ec <__vsnprintf+0xae8>
/home/nk/optee/optee_os/lib/libutils/ext/snprintk.c:510
     b80:	360000d5 	tbz	w21, #0, b98 <__vsnprintf+0x494>
     b84:	7100c0bf 	cmp	w5, #0x30
     b88:	54000080 	b.eq	b98 <__vsnprintf+0x494>  // b.none
/home/nk/optee/optee_os/lib/libutils/ext/snprintk.c:511
     b8c:	52800600 	mov	w0, #0x30                  	// #48
     b90:	381ff080 	sturb	w0, [x4, #-1]
     b94:	d1000824 	sub	x4, x1, #0x2
/home/nk/optee/optee_os/lib/libutils/ext/snprintk.c:537
     b98:	910095a0 	add	x0, x13, #0x25
     b9c:	2a0303e1 	mov	w1, w3
     ba0:	4b040003 	sub	w3, w0, w4
     ba4:	140000ba 	b	e8c <__vsnprintf+0x788>
/home/nk/optee/optee_os/lib/libutils/ext/snprintk.c:384
     ba8:	3747fc15 	tbnz	w21, #8, b28 <__vsnprintf+0x424>
     bac:	374ffbf5 	tbnz	w21, #9, b28 <__vsnprintf+0x424>
     bb0:	372ffbd5 	tbnz	w21, #5, b28 <__vsnprintf+0x424>
     bb4:	3727fbb5 	tbnz	w21, #4, b28 <__vsnprintf+0x424>
     bb8:	36300335 	tbz	w21, #6, c1c <__vsnprintf+0x518>
     bbc:	37f801e1 	tbnz	w1, #31, bf8 <__vsnprintf+0x4f4>
     bc0:	91002c13 	add	x19, x0, #0xb
     bc4:	2a0103f4 	mov	w20, w1
     bc8:	927df273 	and	x19, x19, #0xfffffffffffffff8
     bcc:	79800000 	ldrsh	x0, [x0]
     bd0:	17ffffdb 	b	b3c <__vsnprintf+0x438>
     bd4:	11002034 	add	w20, w1, #0x8
     bd8:	7100029f 	cmp	w20, #0x0
     bdc:	5400008d 	b.le	bec <__vsnprintf+0x4e8>
     be0:	91003c13 	add	x19, x0, #0xf
     be4:	927df273 	and	x19, x19, #0xfffffffffffffff8
     be8:	17ffffd4 	b	b38 <__vsnprintf+0x434>
     bec:	aa0003f3 	mov	x19, x0
     bf0:	8b21c380 	add	x0, x28, w1, sxtw
     bf4:	17ffffd1 	b	b38 <__vsnprintf+0x434>
     bf8:	11002034 	add	w20, w1, #0x8
     bfc:	7100029f 	cmp	w20, #0x0
     c00:	5400008d 	b.le	c10 <__vsnprintf+0x50c>
     c04:	91002c13 	add	x19, x0, #0xb
     c08:	927df273 	and	x19, x19, #0xfffffffffffffff8
     c0c:	17fffff0 	b	bcc <__vsnprintf+0x4c8>
     c10:	aa0003f3 	mov	x19, x0
     c14:	8b21c380 	add	x0, x28, w1, sxtw
     c18:	17ffffed 	b	bcc <__vsnprintf+0x4c8>
     c1c:	37f800c1 	tbnz	w1, #31, c34 <__vsnprintf+0x530>
     c20:	91002c13 	add	x19, x0, #0xb
     c24:	2a0103f4 	mov	w20, w1
     c28:	927df273 	and	x19, x19, #0xfffffffffffffff8
     c2c:	b9800000 	ldrsw	x0, [x0]
     c30:	17ffffc3 	b	b3c <__vsnprintf+0x438>
     c34:	11002034 	add	w20, w1, #0x8
     c38:	7100029f 	cmp	w20, #0x0
     c3c:	5400008d 	b.le	c4c <__vsnprintf+0x548>
     c40:	91002c13 	add	x19, x0, #0xb
     c44:	927df273 	and	x19, x19, #0xfffffffffffffff8
     c48:	17fffff9 	b	c2c <__vsnprintf+0x528>
     c4c:	aa0003f3 	mov	x19, x0
     c50:	8b21c380 	add	x0, x28, w1, sxtw
     c54:	17fffff6 	b	c2c <__vsnprintf+0x528>
/home/nk/optee/optee_os/lib/libutils/ext/snprintk.c:392
     c58:	36380135 	tbz	w21, #7, c7c <__vsnprintf+0x578>
/home/nk/optee/optee_os/lib/libutils/ext/snprintk.c:401
     c5c:	37f80281 	tbnz	w1, #31, cac <__vsnprintf+0x5a8>
     c60:	91003c13 	add	x19, x0, #0xf
     c64:	2a0103f4 	mov	w20, w1
     c68:	927df273 	and	x19, x19, #0xfffffffffffffff8
     c6c:	f9400000 	ldr	x0, [x0]
     c70:	93407f41 	sxtw	x1, w26
     c74:	f9000001 	str	x1, [x0]
     c78:	17fffeb7 	b	754 <__vsnprintf+0x50>
/home/nk/optee/optee_os/lib/libutils/ext/snprintk.c:394
     c7c:	3747ff15 	tbnz	w21, #8, c5c <__vsnprintf+0x558>
/home/nk/optee/optee_os/lib/libutils/ext/snprintk.c:396
     c80:	374ffef5 	tbnz	w21, #9, c5c <__vsnprintf+0x558>
/home/nk/optee/optee_os/lib/libutils/ext/snprintk.c:398
     c84:	372ffed5 	tbnz	w21, #5, c5c <__vsnprintf+0x558>
/home/nk/optee/optee_os/lib/libutils/ext/snprintk.c:400
     c88:	3727feb5 	tbnz	w21, #4, c5c <__vsnprintf+0x558>
/home/nk/optee/optee_os/lib/libutils/ext/snprintk.c:402
     c8c:	36300355 	tbz	w21, #6, cf4 <__vsnprintf+0x5f0>
/home/nk/optee/optee_os/lib/libutils/ext/snprintk.c:403
     c90:	37f80201 	tbnz	w1, #31, cd0 <__vsnprintf+0x5cc>
     c94:	91003c13 	add	x19, x0, #0xf
     c98:	2a0103f4 	mov	w20, w1
     c9c:	927df273 	and	x19, x19, #0xfffffffffffffff8
     ca0:	f9400000 	ldr	x0, [x0]
     ca4:	7900001a 	strh	w26, [x0]
     ca8:	17fffeab 	b	754 <__vsnprintf+0x50>
/home/nk/optee/optee_os/lib/libutils/ext/snprintk.c:401
     cac:	11002034 	add	w20, w1, #0x8
     cb0:	7100029f 	cmp	w20, #0x0
     cb4:	5400008d 	b.le	cc4 <__vsnprintf+0x5c0>
     cb8:	91003c13 	add	x19, x0, #0xf
     cbc:	927df273 	and	x19, x19, #0xfffffffffffffff8
     cc0:	17ffffeb 	b	c6c <__vsnprintf+0x568>
     cc4:	aa0003f3 	mov	x19, x0
     cc8:	8b21c380 	add	x0, x28, w1, sxtw
     ccc:	17ffffe8 	b	c6c <__vsnprintf+0x568>
/home/nk/optee/optee_os/lib/libutils/ext/snprintk.c:403
     cd0:	11002034 	add	w20, w1, #0x8
     cd4:	7100029f 	cmp	w20, #0x0
     cd8:	5400008d 	b.le	ce8 <__vsnprintf+0x5e4>
     cdc:	91003c13 	add	x19, x0, #0xf
     ce0:	927df273 	and	x19, x19, #0xfffffffffffffff8
     ce4:	17ffffef 	b	ca0 <__vsnprintf+0x59c>
     ce8:	aa0003f3 	mov	x19, x0
     cec:	8b21c380 	add	x0, x28, w1, sxtw
     cf0:	17ffffec 	b	ca0 <__vsnprintf+0x59c>
/home/nk/optee/optee_os/lib/libutils/ext/snprintk.c:405
     cf4:	37f800e1 	tbnz	w1, #31, d10 <__vsnprintf+0x60c>
     cf8:	91003c13 	add	x19, x0, #0xf
     cfc:	2a0103f4 	mov	w20, w1
     d00:	927df273 	and	x19, x19, #0xfffffffffffffff8
     d04:	f9400000 	ldr	x0, [x0]
     d08:	b900001a 	str	w26, [x0]
     d0c:	17fffe92 	b	754 <__vsnprintf+0x50>
     d10:	11002034 	add	w20, w1, #0x8
     d14:	7100029f 	cmp	w20, #0x0
     d18:	5400008d 	b.le	d28 <__vsnprintf+0x624>
     d1c:	91003c13 	add	x19, x0, #0xf
     d20:	927df273 	and	x19, x19, #0xfffffffffffffff8
     d24:	17fffff8 	b	d04 <__vsnprintf+0x600>
     d28:	aa0003f3 	mov	x19, x0
     d2c:	8b21c380 	add	x0, x28, w1, sxtw
     d30:	17fffff5 	b	d04 <__vsnprintf+0x600>
/home/nk/optee/optee_os/lib/libutils/ext/snprintk.c:411
     d34:	3747d9d5 	tbnz	w21, #8, 86c <__vsnprintf+0x168>
     d38:	374fd9b5 	tbnz	w21, #9, 86c <__vsnprintf+0x168>
     d3c:	372fd995 	tbnz	w21, #5, 86c <__vsnprintf+0x168>
     d40:	3727d975 	tbnz	w21, #4, 86c <__vsnprintf+0x168>
     d44:	36300335 	tbz	w21, #6, da8 <__vsnprintf+0x6a4>
     d48:	37f801e1 	tbnz	w1, #31, d84 <__vsnprintf+0x680>
     d4c:	91002c13 	add	x19, x0, #0xb
     d50:	2a0103f4 	mov	w20, w1
     d54:	927df273 	and	x19, x19, #0xfffffffffffffff8
     d58:	79400000 	ldrh	w0, [x0]
     d5c:	17fffec9 	b	880 <__vsnprintf+0x17c>
     d60:	11002034 	add	w20, w1, #0x8
     d64:	7100029f 	cmp	w20, #0x0
     d68:	5400008d 	b.le	d78 <__vsnprintf+0x674>
     d6c:	91003c13 	add	x19, x0, #0xf
     d70:	927df273 	and	x19, x19, #0xfffffffffffffff8
     d74:	17fffec2 	b	87c <__vsnprintf+0x178>
     d78:	aa0003f3 	mov	x19, x0
     d7c:	8b21c380 	add	x0, x28, w1, sxtw
     d80:	17fffebf 	b	87c <__vsnprintf+0x178>
     d84:	11002034 	add	w20, w1, #0x8
     d88:	7100029f 	cmp	w20, #0x0
     d8c:	5400008d 	b.le	d9c <__vsnprintf+0x698>
     d90:	91002c13 	add	x19, x0, #0xb
     d94:	927df273 	and	x19, x19, #0xfffffffffffffff8
     d98:	17fffff0 	b	d58 <__vsnprintf+0x654>
     d9c:	aa0003f3 	mov	x19, x0
     da0:	8b21c380 	add	x0, x28, w1, sxtw
     da4:	17ffffed 	b	d58 <__vsnprintf+0x654>
     da8:	37f800c1 	tbnz	w1, #31, dc0 <__vsnprintf+0x6bc>
     dac:	91002c13 	add	x19, x0, #0xb
     db0:	2a0103f4 	mov	w20, w1
     db4:	927df273 	and	x19, x19, #0xfffffffffffffff8
     db8:	b9400000 	ldr	w0, [x0]
     dbc:	17fffeb1 	b	880 <__vsnprintf+0x17c>
     dc0:	11002034 	add	w20, w1, #0x8
     dc4:	7100029f 	cmp	w20, #0x0
     dc8:	5400008d 	b.le	dd8 <__vsnprintf+0x6d4>
     dcc:	91002c13 	add	x19, x0, #0xb
     dd0:	927df273 	and	x19, x19, #0xfffffffffffffff8
     dd4:	17fffff9 	b	db8 <__vsnprintf+0x6b4>
     dd8:	aa0003f3 	mov	x19, x0
     ddc:	8b21c380 	add	x0, x28, w1, sxtw
     de0:	17fffff6 	b	db8 <__vsnprintf+0x6b4>
/home/nk/optee/optee_os/lib/libutils/ext/snprintk.c:415
     de4:	b940afe2 	ldr	w2, [sp, #172]
     de8:	34000b82 	cbz	w2, f58 <__vsnprintf+0x854>
     dec:	39400122 	ldrb	w2, [x9]
     df0:	7101545f 	cmp	w2, #0x55
     df4:	54000b21 	b.ne	f58 <__vsnprintf+0x854>  // b.any
     df8:	39400522 	ldrb	w2, [x9, #1]
     dfc:	7101b05f 	cmp	w2, #0x6c
     e00:	54000ac1 	b.ne	f58 <__vsnprintf+0x854>  // b.any
/home/nk/optee/optee_os/lib/libutils/ext/snprintk.c:420
     e04:	91000929 	add	x9, x9, #0x2
/home/nk/optee/optee_os/lib/libutils/ext/snprintk.c:421
     e08:	37f80961 	tbnz	w1, #31, f34 <__vsnprintf+0x830>
     e0c:	91003c13 	add	x19, x0, #0xf
     e10:	2a0103f4 	mov	w20, w1
     e14:	927df273 	and	x19, x19, #0xfffffffffffffff8
     e18:	f9400000 	ldr	x0, [x0]
uuid2str():
/home/nk/optee/optee_os/lib/libutils/ext/snprintk.c:223
     e1c:	f0000042 	adrp	x2, b000 <__text_end+0x15f0>
     e20:	913ed842 	add	x2, x2, #0xfb6
     e24:	a90b27ed 	stp	x13, x9, [sp, #176]
     e28:	39403c01 	ldrb	w1, [x0, #15]
     e2c:	79400804 	ldrh	w4, [x0, #4]
     e30:	39402407 	ldrb	w7, [x0, #9]
     e34:	39402006 	ldrb	w6, [x0, #8]
     e38:	79400c05 	ldrh	w5, [x0, #6]
     e3c:	b9002be1 	str	w1, [sp, #40]
     e40:	39403801 	ldrb	w1, [x0, #14]
     e44:	b90023e1 	str	w1, [sp, #32]
     e48:	39403401 	ldrb	w1, [x0, #13]
     e4c:	b9001be1 	str	w1, [sp, #24]
     e50:	39403001 	ldrb	w1, [x0, #12]
     e54:	b90013e1 	str	w1, [sp, #16]
     e58:	39402c01 	ldrb	w1, [x0, #11]
     e5c:	b9000be1 	str	w1, [sp, #8]
     e60:	39402801 	ldrb	w1, [x0, #10]
     e64:	b90003e1 	str	w1, [sp]
     e68:	d28004a1 	mov	x1, #0x25                  	// #37
     e6c:	b9400003 	ldr	w3, [x0]
     e70:	aa0d03e0 	mov	x0, x13
     e74:	94000146 	bl	138c <snprintk>
     e78:	2a0003e3 	mov	w3, w0
kprintf():
/home/nk/optee/optee_os/lib/libutils/ext/snprintk.c:425
     e7c:	a94b27ed 	ldp	x13, x9, [sp, #176]
/home/nk/optee/optee_os/lib/libutils/ext/snprintk.c:285
     e80:	52800001 	mov	w1, #0x0                   	// #0
/home/nk/optee/optee_os/lib/libutils/ext/snprintk.c:424
     e84:	52800002 	mov	w2, #0x0                   	// #0
/home/nk/optee/optee_os/lib/libutils/ext/snprintk.c:423
     e88:	aa0d03e4 	mov	x4, x13
/home/nk/optee/optee_os/lib/libutils/ext/snprintk.c:565
     e8c:	6b03003f 	cmp	w1, w3
     e90:	1a83a020 	csel	w0, w1, w3, ge  // ge = tcont
/home/nk/optee/optee_os/lib/libutils/ext/snprintk.c:566
     e94:	34001c82 	cbz	w2, 1224 <__vsnprintf+0xb20>
/home/nk/optee/optee_os/lib/libutils/ext/snprintk.c:567
     e98:	11000400 	add	w0, w0, #0x1
/home/nk/optee/optee_os/lib/libutils/ext/snprintk.c:572
     e9c:	6b17001f 	cmp	w0, w23
     ea0:	1a97a005 	csel	w5, w0, w23, ge  // ge = tcont
     ea4:	0b05035a 	add	w26, w26, w5
/home/nk/optee/optee_os/lib/libutils/ext/snprintk.c:575
     ea8:	52808085 	mov	w5, #0x404                 	// #1028
     eac:	6a0502a5 	ands	w5, w21, w5
     eb0:	540000a1 	b.ne	ec4 <__vsnprintf+0x7c0>  // b.any
/home/nk/optee/optee_os/lib/libutils/ext/snprintk.c:576
     eb4:	4b0002e6 	sub	w6, w23, w0
/home/nk/optee/optee_os/lib/libutils/ext/snprintk.c:578
     eb8:	52800407 	mov	w7, #0x20                  	// #32
/home/nk/optee/optee_os/lib/libutils/ext/snprintk.c:577
     ebc:	710000df 	cmp	w6, #0x0
     ec0:	54001b8c 	b.gt	1230 <__vsnprintf+0xb2c>
/home/nk/optee/optee_os/lib/libutils/ext/snprintk.c:582
     ec4:	34001ca2 	cbz	w2, 1258 <__vsnprintf+0xb54>
/home/nk/optee/optee_os/lib/libutils/ext/snprintk.c:583
     ec8:	b5001c1b 	cbnz	x27, 1248 <__vsnprintf+0xb44>
/home/nk/optee/optee_os/lib/libutils/ext/snprintk.c:586
     ecc:	d280001b 	mov	x27, #0x0                   	// #0
/home/nk/optee/optee_os/lib/libutils/ext/snprintk.c:590
     ed0:	711000bf 	cmp	w5, #0x400
     ed4:	540000a1 	b.ne	ee8 <__vsnprintf+0x7e4>  // b.any
/home/nk/optee/optee_os/lib/libutils/ext/snprintk.c:591
     ed8:	4b0002e2 	sub	w2, w23, w0
/home/nk/optee/optee_os/lib/libutils/ext/snprintk.c:593
     edc:	52800605 	mov	w5, #0x30                  	// #48
/home/nk/optee/optee_os/lib/libutils/ext/snprintk.c:592
     ee0:	7100005f 	cmp	w2, #0x0
     ee4:	54001d8c 	b.gt	1294 <__vsnprintf+0xb90>
/home/nk/optee/optee_os/lib/libutils/ext/snprintk.c:597
     ee8:	4b030021 	sub	w1, w1, w3
/home/nk/optee/optee_os/lib/libutils/ext/snprintk.c:599
     eec:	52800602 	mov	w2, #0x30                  	// #48
/home/nk/optee/optee_os/lib/libutils/ext/snprintk.c:598
     ef0:	7100003f 	cmp	w1, #0x0
     ef4:	54001dcc 	b.gt	12ac <__vsnprintf+0xba8>
     ef8:	2a0303e3 	mov	w3, w3
     efc:	d2800001 	mov	x1, #0x0                   	// #0
/home/nk/optee/optee_os/lib/libutils/ext/snprintk.c:602
     f00:	eb01007f 	cmp	x3, x1
     f04:	54001e01 	b.ne	12c4 <__vsnprintf+0xbc0>  // b.any
/home/nk/optee/optee_os/lib/libutils/ext/snprintk.c:605
     f08:	3617c275 	tbz	w21, #2, 754 <__vsnprintf+0x50>
/home/nk/optee/optee_os/lib/libutils/ext/snprintk.c:606
     f0c:	4b0002eb 	sub	w11, w23, w0
/home/nk/optee/optee_os/lib/libutils/ext/snprintk.c:608
     f10:	52800400 	mov	w0, #0x20                  	// #32
/home/nk/optee/optee_os/lib/libutils/ext/snprintk.c:607
     f14:	7100017f 	cmp	w11, #0x0
     f18:	54ffc1ed 	b.le	754 <__vsnprintf+0x50>
/home/nk/optee/optee_os/lib/libutils/ext/snprintk.c:608
     f1c:	b400009b 	cbz	x27, f2c <__vsnprintf+0x828>
     f20:	eb1b033f 	cmp	x25, x27
     f24:	54000049 	b.ls	f2c <__vsnprintf+0x828>  // b.plast
     f28:	38001760 	strb	w0, [x27], #1
     f2c:	5100056b 	sub	w11, w11, #0x1
     f30:	17fffff9 	b	f14 <__vsnprintf+0x810>
/home/nk/optee/optee_os/lib/libutils/ext/snprintk.c:421
     f34:	11002034 	add	w20, w1, #0x8
     f38:	7100029f 	cmp	w20, #0x0
     f3c:	5400008d 	b.le	f4c <__vsnprintf+0x848>
     f40:	91003c13 	add	x19, x0, #0xf
     f44:	927df273 	and	x19, x19, #0xfffffffffffffff8
     f48:	17ffffb4 	b	e18 <__vsnprintf+0x714>
     f4c:	aa0003f3 	mov	x19, x0
     f50:	8b21c380 	add	x0, x28, w1, sxtw
     f54:	17ffffb1 	b	e18 <__vsnprintf+0x714>
/home/nk/optee/optee_os/lib/libutils/ext/snprintk.c:435
     f58:	37f80261 	tbnz	w1, #31, fa4 <__vsnprintf+0x8a0>
     f5c:	91003c13 	add	x19, x0, #0xf
     f60:	2a0103f4 	mov	w20, w1
     f64:	927df273 	and	x19, x19, #0xfffffffffffffff8
     f68:	f9400000 	ldr	x0, [x0]
/home/nk/optee/optee_os/lib/libutils/ext/snprintk.c:437
     f6c:	f0000056 	adrp	x22, b000 <__text_end+0x15f0>
/home/nk/optee/optee_os/lib/libutils/ext/snprintk.c:438
     f70:	321f02b5 	orr	w21, w21, #0x2
/home/nk/optee/optee_os/lib/libutils/ext/snprintk.c:437
     f74:	913e36d6 	add	x22, x22, #0xf8d
/home/nk/optee/optee_os/lib/libutils/ext/snprintk.c:439
     f78:	52800f18 	mov	w24, #0x78                  	// #120
/home/nk/optee/optee_os/lib/libutils/ext/snprintk.c:488
     f7c:	52800002 	mov	w2, #0x0                   	// #0
     f80:	3100047f 	cmn	w3, #0x1
     f84:	54001201 	b.ne	11c4 <__vsnprintf+0xac0>  // b.any
     f88:	910095a4 	add	x4, x13, #0x25
/home/nk/optee/optee_os/lib/libutils/ext/snprintk.c:525
     f8c:	92400c01 	and	x1, x0, #0xf
/home/nk/optee/optee_os/lib/libutils/ext/snprintk.c:526
     f90:	d344fc00 	lsr	x0, x0, #4
/home/nk/optee/optee_os/lib/libutils/ext/snprintk.c:525
     f94:	38616ac1 	ldrb	w1, [x22, x1]
     f98:	381ffc81 	strb	w1, [x4, #-1]!
/home/nk/optee/optee_os/lib/libutils/ext/snprintk.c:527
     f9c:	b5ffff80 	cbnz	x0, f8c <__vsnprintf+0x888>
     fa0:	17fffefe 	b	b98 <__vsnprintf+0x494>
/home/nk/optee/optee_os/lib/libutils/ext/snprintk.c:435
     fa4:	11002034 	add	w20, w1, #0x8
     fa8:	7100029f 	cmp	w20, #0x0
     fac:	5400008d 	b.le	fbc <__vsnprintf+0x8b8>
     fb0:	91003c13 	add	x19, x0, #0xf
     fb4:	927df273 	and	x19, x19, #0xfffffffffffffff8
     fb8:	17ffffec 	b	f68 <__vsnprintf+0x864>
     fbc:	aa0003f3 	mov	x19, x0
     fc0:	8b21c380 	add	x0, x28, w1, sxtw
     fc4:	17ffffe9 	b	f68 <__vsnprintf+0x864>
/home/nk/optee/optee_os/lib/libutils/ext/snprintk.c:442
     fc8:	11002034 	add	w20, w1, #0x8
     fcc:	7100029f 	cmp	w20, #0x0
     fd0:	5400008d 	b.le	fe0 <__vsnprintf+0x8dc>
     fd4:	91003c13 	add	x19, x0, #0xf
     fd8:	927df273 	and	x19, x19, #0xfffffffffffffff8
     fdc:	17fffe4e 	b	914 <__vsnprintf+0x210>
     fe0:	aa0003f3 	mov	x19, x0
     fe4:	8b21c380 	add	x0, x28, w1, sxtw
     fe8:	17fffe4b 	b	914 <__vsnprintf+0x210>
/home/nk/optee/optee_os/lib/libutils/ext/snprintk.c:460
     fec:	aa0403e0 	mov	x0, x4
     ff0:	a90b27e4 	stp	x4, x9, [sp, #176]
     ff4:	f90063ed 	str	x13, [sp, #192]
     ff8:	9400010d 	bl	142c <strlen>
/home/nk/optee/optee_os/lib/libutils/ext/snprintk.c:285
     ffc:	52800001 	mov	w1, #0x0                   	// #0
/home/nk/optee/optee_os/lib/libutils/ext/snprintk.c:460
    1000:	2a0003e3 	mov	w3, w0
/home/nk/optee/optee_os/lib/libutils/ext/snprintk.c:461
    1004:	52800002 	mov	w2, #0x0                   	// #0
    1008:	a94b27e4 	ldp	x4, x9, [sp, #176]
    100c:	f94063ed 	ldr	x13, [sp, #192]
    1010:	17ffff9f 	b	e8c <__vsnprintf+0x788>
/home/nk/optee/optee_os/lib/libutils/ext/snprintk.c:464
    1014:	321c02b5 	orr	w21, w21, #0x10
    1018:	17fffe5c 	b	988 <__vsnprintf+0x284>
/home/nk/optee/optee_os/lib/libutils/ext/snprintk.c:467
    101c:	3747cb95 	tbnz	w21, #8, 98c <__vsnprintf+0x288>
    1020:	374fcb75 	tbnz	w21, #9, 98c <__vsnprintf+0x288>
    1024:	372fcb55 	tbnz	w21, #5, 98c <__vsnprintf+0x288>
    1028:	3727cb35 	tbnz	w21, #4, 98c <__vsnprintf+0x288>
    102c:	36300335 	tbz	w21, #6, 1090 <__vsnprintf+0x98c>
    1030:	37f801e1 	tbnz	w1, #31, 106c <__vsnprintf+0x968>
    1034:	91002c13 	add	x19, x0, #0xb
    1038:	2a0103f4 	mov	w20, w1
    103c:	927df273 	and	x19, x19, #0xfffffffffffffff8
    1040:	79400000 	ldrh	w0, [x0]
    1044:	17fffe57 	b	9a0 <__vsnprintf+0x29c>
    1048:	11002034 	add	w20, w1, #0x8
    104c:	7100029f 	cmp	w20, #0x0
    1050:	5400008d 	b.le	1060 <__vsnprintf+0x95c>
    1054:	91003c13 	add	x19, x0, #0xf
    1058:	927df273 	and	x19, x19, #0xfffffffffffffff8
    105c:	17fffe50 	b	99c <__vsnprintf+0x298>
    1060:	aa0003f3 	mov	x19, x0
    1064:	8b21c380 	add	x0, x28, w1, sxtw
    1068:	17fffe4d 	b	99c <__vsnprintf+0x298>
    106c:	11002034 	add	w20, w1, #0x8
    1070:	7100029f 	cmp	w20, #0x0
    1074:	5400008d 	b.le	1084 <__vsnprintf+0x980>
    1078:	91002c13 	add	x19, x0, #0xb
    107c:	927df273 	and	x19, x19, #0xfffffffffffffff8
    1080:	17fffff0 	b	1040 <__vsnprintf+0x93c>
    1084:	aa0003f3 	mov	x19, x0
    1088:	8b21c380 	add	x0, x28, w1, sxtw
    108c:	17ffffed 	b	1040 <__vsnprintf+0x93c>
    1090:	37f800c1 	tbnz	w1, #31, 10a8 <__vsnprintf+0x9a4>
    1094:	91002c13 	add	x19, x0, #0xb
    1098:	2a0103f4 	mov	w20, w1
    109c:	927df273 	and	x19, x19, #0xfffffffffffffff8
    10a0:	b9400000 	ldr	w0, [x0]
    10a4:	17fffe3f 	b	9a0 <__vsnprintf+0x29c>
    10a8:	11002034 	add	w20, w1, #0x8
    10ac:	7100029f 	cmp	w20, #0x0
    10b0:	5400008d 	b.le	10c0 <__vsnprintf+0x9bc>
    10b4:	91002c13 	add	x19, x0, #0xb
    10b8:	927df273 	and	x19, x19, #0xfffffffffffffff8
    10bc:	17fffff9 	b	10a0 <__vsnprintf+0x99c>
    10c0:	aa0003f3 	mov	x19, x0
    10c4:	8b21c380 	add	x0, x28, w1, sxtw
    10c8:	17fffff6 	b	10a0 <__vsnprintf+0x99c>
/home/nk/optee/optee_os/lib/libutils/ext/snprintk.c:471
    10cc:	d0000056 	adrp	x22, b000 <__text_end+0x15f0>
    10d0:	913e36d6 	add	x22, x22, #0xf8d
    10d4:	910046d6 	add	x22, x22, #0x11
/home/nk/optee/optee_os/lib/libutils/ext/snprintk.c:475
    10d8:	363801f5 	tbz	w21, #7, 1114 <__vsnprintf+0xa10>
    10dc:	37f80321 	tbnz	w1, #31, 1140 <__vsnprintf+0xa3c>
    10e0:	91003c13 	add	x19, x0, #0xf
    10e4:	2a0103f4 	mov	w20, w1
    10e8:	927df273 	and	x19, x19, #0xfffffffffffffff8
    10ec:	f9400000 	ldr	x0, [x0]
/home/nk/optee/optee_os/lib/libutils/ext/snprintk.c:478
    10f0:	3607f475 	tbz	w21, #0, f7c <__vsnprintf+0x878>
    10f4:	b4fff440 	cbz	x0, f7c <__vsnprintf+0x878>
/home/nk/optee/optee_os/lib/libutils/ext/snprintk.c:479
    10f8:	321f02b5 	orr	w21, w21, #0x2
/home/nk/optee/optee_os/lib/libutils/ext/snprintk.c:476
    10fc:	52800041 	mov	w1, #0x2                   	// #2
/home/nk/optee/optee_os/lib/libutils/ext/snprintk.c:482
    1100:	52800002 	mov	w2, #0x0                   	// #0
    1104:	17fffe92 	b	b4c <__vsnprintf+0x448>
/home/nk/optee/optee_os/lib/libutils/ext/snprintk.c:474
    1108:	d0000056 	adrp	x22, b000 <__text_end+0x15f0>
    110c:	913e36d6 	add	x22, x22, #0xf8d
    1110:	17fffff2 	b	10d8 <__vsnprintf+0x9d4>
/home/nk/optee/optee_os/lib/libutils/ext/snprintk.c:475
    1114:	3747fe55 	tbnz	w21, #8, 10dc <__vsnprintf+0x9d8>
    1118:	374ffe35 	tbnz	w21, #9, 10dc <__vsnprintf+0x9d8>
    111c:	372ffe15 	tbnz	w21, #5, 10dc <__vsnprintf+0x9d8>
    1120:	3727fdf5 	tbnz	w21, #4, 10dc <__vsnprintf+0x9d8>
    1124:	36300335 	tbz	w21, #6, 1188 <__vsnprintf+0xa84>
    1128:	37f801e1 	tbnz	w1, #31, 1164 <__vsnprintf+0xa60>
    112c:	91002c13 	add	x19, x0, #0xb
    1130:	2a0103f4 	mov	w20, w1
    1134:	927df273 	and	x19, x19, #0xfffffffffffffff8
    1138:	79400000 	ldrh	w0, [x0]
    113c:	17ffffed 	b	10f0 <__vsnprintf+0x9ec>
    1140:	11002034 	add	w20, w1, #0x8
    1144:	7100029f 	cmp	w20, #0x0
    1148:	5400008d 	b.le	1158 <__vsnprintf+0xa54>
    114c:	91003c13 	add	x19, x0, #0xf
    1150:	927df273 	and	x19, x19, #0xfffffffffffffff8
    1154:	17ffffe6 	b	10ec <__vsnprintf+0x9e8>
    1158:	aa0003f3 	mov	x19, x0
    115c:	8b21c380 	add	x0, x28, w1, sxtw
    1160:	17ffffe3 	b	10ec <__vsnprintf+0x9e8>
    1164:	11002034 	add	w20, w1, #0x8
    1168:	7100029f 	cmp	w20, #0x0
    116c:	5400008d 	b.le	117c <__vsnprintf+0xa78>
    1170:	91002c13 	add	x19, x0, #0xb
    1174:	927df273 	and	x19, x19, #0xfffffffffffffff8
    1178:	17fffff0 	b	1138 <__vsnprintf+0xa34>
    117c:	aa0003f3 	mov	x19, x0
    1180:	8b21c380 	add	x0, x28, w1, sxtw
    1184:	17ffffed 	b	1138 <__vsnprintf+0xa34>
    1188:	37f800c1 	tbnz	w1, #31, 11a0 <__vsnprintf+0xa9c>
    118c:	91002c13 	add	x19, x0, #0xb
    1190:	2a0103f4 	mov	w20, w1
    1194:	927df273 	and	x19, x19, #0xfffffffffffffff8
    1198:	b9400000 	ldr	w0, [x0]
    119c:	17ffffd5 	b	10f0 <__vsnprintf+0x9ec>
    11a0:	11002034 	add	w20, w1, #0x8
    11a4:	7100029f 	cmp	w20, #0x0
    11a8:	5400008d 	b.le	11b8 <__vsnprintf+0xab4>
    11ac:	91002c13 	add	x19, x0, #0xb
    11b0:	927df273 	and	x19, x19, #0xfffffffffffffff8
    11b4:	17fffff9 	b	1198 <__vsnprintf+0xa94>
    11b8:	aa0003f3 	mov	x19, x0
    11bc:	8b21c380 	add	x0, x28, w1, sxtw
    11c0:	17fffff6 	b	1198 <__vsnprintf+0xa94>
/home/nk/optee/optee_os/lib/libutils/ext/snprintk.c:488
    11c4:	52800041 	mov	w1, #0x2                   	// #2
/home/nk/optee/optee_os/lib/libutils/ext/snprintk.c:497
    11c8:	f100001f 	cmp	x0, #0x0
/home/nk/optee/optee_os/lib/libutils/ext/snprintk.c:489
    11cc:	12157ab5 	and	w21, w21, #0xfffffbff
/home/nk/optee/optee_os/lib/libutils/ext/snprintk.c:497
    11d0:	7a400860 	ccmp	w3, #0x0, #0x0, eq  // eq = none
    11d4:	54ffcc01 	b.ne	b54 <__vsnprintf+0x450>  // b.any
    11d8:	52800003 	mov	w3, #0x0                   	// #0
/home/nk/optee/optee_os/lib/libutils/ext/snprintk.c:496
    11dc:	910095a4 	add	x4, x13, #0x25
    11e0:	17fffe6e 	b	b98 <__vsnprintf+0x494>
/home/nk/optee/optee_os/lib/libutils/ext/snprintk.c:488
    11e4:	52800021 	mov	w1, #0x1                   	// #1
    11e8:	17fffff8 	b	11c8 <__vsnprintf+0xac4>
/home/nk/optee/optee_os/lib/libutils/ext/snprintk.c:508
    11ec:	aa0403e1 	mov	x1, x4
    11f0:	17fffe5e 	b	b68 <__vsnprintf+0x464>
/home/nk/optee/optee_os/lib/libutils/ext/snprintk.c:517
    11f4:	9ac50806 	udiv	x6, x0, x5
    11f8:	9b0580c0 	msub	x0, x6, x5, x0
    11fc:	1100c000 	add	w0, w0, #0x30
    1200:	381ff020 	sturb	w0, [x1, #-1]
/home/nk/optee/optee_os/lib/libutils/ext/snprintk.c:518
    1204:	aa0603e0 	mov	x0, x6
    1208:	aa0403e1 	mov	x1, x4
    120c:	d1000424 	sub	x4, x1, #0x1
/home/nk/optee/optee_os/lib/libutils/ext/snprintk.c:516
    1210:	f100241f 	cmp	x0, #0x9
    1214:	54ffff08 	b.hi	11f4 <__vsnprintf+0xaf0>  // b.pmore
/home/nk/optee/optee_os/lib/libutils/ext/snprintk.c:520
    1218:	1100c000 	add	w0, w0, #0x30
    121c:	381ff020 	sturb	w0, [x1, #-1]
/home/nk/optee/optee_os/lib/libutils/ext/snprintk.c:521
    1220:	17fffe5e 	b	b98 <__vsnprintf+0x494>
/home/nk/optee/optee_os/lib/libutils/ext/snprintk.c:568
    1224:	360fe3d5 	tbz	w21, #1, e9c <__vsnprintf+0x798>
/home/nk/optee/optee_os/lib/libutils/ext/snprintk.c:569
    1228:	11000800 	add	w0, w0, #0x2
    122c:	17ffff1c 	b	e9c <__vsnprintf+0x798>
/home/nk/optee/optee_os/lib/libutils/ext/snprintk.c:578
    1230:	b400009b 	cbz	x27, 1240 <__vsnprintf+0xb3c>
    1234:	eb1b033f 	cmp	x25, x27
    1238:	54000049 	b.ls	1240 <__vsnprintf+0xb3c>  // b.plast
    123c:	38001767 	strb	w7, [x27], #1
    1240:	510004c6 	sub	w6, w6, #0x1
    1244:	17ffff1e 	b	ebc <__vsnprintf+0x7b8>
/home/nk/optee/optee_os/lib/libutils/ext/snprintk.c:583
    1248:	eb1b033f 	cmp	x25, x27
    124c:	54ffe429 	b.ls	ed0 <__vsnprintf+0x7cc>  // b.plast
    1250:	38001762 	strb	w2, [x27], #1
    1254:	17ffff1f 	b	ed0 <__vsnprintf+0x7cc>
/home/nk/optee/optee_os/lib/libutils/ext/snprintk.c:584
    1258:	360fe3d5 	tbz	w21, #1, ed0 <__vsnprintf+0x7cc>
/home/nk/optee/optee_os/lib/libutils/ext/snprintk.c:585
    125c:	b4ffe39b 	cbz	x27, ecc <__vsnprintf+0x7c8>
    1260:	eb1b033f 	cmp	x25, x27
    1264:	54ffe369 	b.ls	ed0 <__vsnprintf+0x7cc>  // b.plast
    1268:	aa1b03e2 	mov	x2, x27
    126c:	52800606 	mov	w6, #0x30                  	// #48
    1270:	38001446 	strb	w6, [x2], #1
/home/nk/optee/optee_os/lib/libutils/ext/snprintk.c:586
    1274:	b4ffe2c2 	cbz	x2, ecc <__vsnprintf+0x7c8>
    1278:	eb02033f 	cmp	x25, x2
    127c:	54000089 	b.ls	128c <__vsnprintf+0xb88>  // b.plast
    1280:	91000b7b 	add	x27, x27, #0x2
    1284:	381ff378 	sturb	w24, [x27, #-1]
    1288:	17ffff12 	b	ed0 <__vsnprintf+0x7cc>
    128c:	aa0203fb 	mov	x27, x2
    1290:	17ffff10 	b	ed0 <__vsnprintf+0x7cc>
/home/nk/optee/optee_os/lib/libutils/ext/snprintk.c:593
    1294:	b400009b 	cbz	x27, 12a4 <__vsnprintf+0xba0>
    1298:	eb1b033f 	cmp	x25, x27
    129c:	54000049 	b.ls	12a4 <__vsnprintf+0xba0>  // b.plast
    12a0:	38001765 	strb	w5, [x27], #1
    12a4:	51000442 	sub	w2, w2, #0x1
    12a8:	17ffff0e 	b	ee0 <__vsnprintf+0x7dc>
/home/nk/optee/optee_os/lib/libutils/ext/snprintk.c:599
    12ac:	b400009b 	cbz	x27, 12bc <__vsnprintf+0xbb8>
    12b0:	eb1b033f 	cmp	x25, x27
    12b4:	54000049 	b.ls	12bc <__vsnprintf+0xbb8>  // b.plast
    12b8:	38001762 	strb	w2, [x27], #1
    12bc:	51000421 	sub	w1, w1, #0x1
    12c0:	17ffff0c 	b	ef0 <__vsnprintf+0x7ec>
/home/nk/optee/optee_os/lib/libutils/ext/snprintk.c:603
    12c4:	b40000bb 	cbz	x27, 12d8 <__vsnprintf+0xbd4>
    12c8:	eb1b033f 	cmp	x25, x27
    12cc:	54000069 	b.ls	12d8 <__vsnprintf+0xbd4>  // b.plast
    12d0:	38616882 	ldrb	w2, [x4, x1]
    12d4:	38001762 	strb	w2, [x27], #1
    12d8:	91000421 	add	x1, x1, #0x1
    12dc:	17ffff09 	b	f00 <__vsnprintf+0x7fc>
__vsnprintf():
/home/nk/optee/optee_os/lib/libutils/ext/snprintk.c:143
    12e0:	f9404fe0 	ldr	x0, [sp, #152]
    12e4:	f100001f 	cmp	x0, #0x0
    12e8:	f94053e0 	ldr	x0, [sp, #160]
    12ec:	fa401804 	ccmp	x0, #0x0, #0x4, ne  // ne = any
    12f0:	540000c0 	b.eq	1308 <__vsnprintf+0xc04>  // b.none
/home/nk/optee/optee_os/lib/libutils/ext/snprintk.c:145
    12f4:	f94053e1 	ldr	x1, [sp, #160]
    12f8:	93407f40 	sxtw	x0, w26
    12fc:	eb01001f 	cmp	x0, x1
    1300:	54000163 	b.cc	132c <__vsnprintf+0xc28>  // b.lo, b.ul, b.last
/home/nk/optee/optee_os/lib/libutils/ext/snprintk.c:146
    1304:	381ff33f 	sturb	wzr, [x25, #-1]
/home/nk/optee/optee_os/lib/libutils/ext/snprintk.c:151
    1308:	2a1a03e0 	mov	w0, w26
    130c:	a9437bfd 	ldp	x29, x30, [sp, #48]
    1310:	a94453f3 	ldp	x19, x20, [sp, #64]
    1314:	a9455bf5 	ldp	x21, x22, [sp, #80]
    1318:	a94663f7 	ldp	x23, x24, [sp, #96]
    131c:	a9476bf9 	ldp	x25, x26, [sp, #112]
    1320:	a94873fb 	ldp	x27, x28, [sp, #128]
    1324:	910403ff 	add	sp, sp, #0x100
    1328:	d65f03c0 	ret
/home/nk/optee/optee_os/lib/libutils/ext/snprintk.c:148
    132c:	f9404fe1 	ldr	x1, [sp, #152]
    1330:	3820683f 	strb	wzr, [x1, x0]
/home/nk/optee/optee_os/lib/libutils/ext/snprintk.c:150
    1334:	17fffff5 	b	1308 <__vsnprintf+0xc04>

0000000000001338 <vsnprintk>:
vsnprintk():
/home/nk/optee/optee_os/lib/libutils/ext/snprintk.c:129
    1338:	a9bb7bfd 	stp	x29, x30, [sp, #-80]!
    133c:	910003fd 	mov	x29, sp
    1340:	a90153f3 	stp	x19, x20, [sp, #16]
    1344:	aa0003f3 	mov	x19, x0
    1348:	aa0103f4 	mov	x20, x1
/home/nk/optee/optee_os/lib/libutils/ext/snprintk.c:130
    134c:	9100c3e0 	add	x0, sp, #0x30
    1350:	aa0303e1 	mov	x1, x3
/home/nk/optee/optee_os/lib/libutils/ext/snprintk.c:129
    1354:	f90013f5 	str	x21, [sp, #32]
    1358:	aa0203f5 	mov	x21, x2
/home/nk/optee/optee_os/lib/libutils/ext/snprintk.c:130
    135c:	d2800402 	mov	x2, #0x20                  	// #32
    1360:	97fffb30 	bl	20 <memcpy>
    1364:	aa1503e2 	mov	x2, x21
    1368:	aa0003e3 	mov	x3, x0
    136c:	aa1403e1 	mov	x1, x20
    1370:	52800024 	mov	w4, #0x1                   	// #1
    1374:	aa1303e0 	mov	x0, x19
    1378:	97fffce3 	bl	704 <__vsnprintf>
/home/nk/optee/optee_os/lib/libutils/ext/snprintk.c:131
    137c:	a94153f3 	ldp	x19, x20, [sp, #16]
    1380:	f94013f5 	ldr	x21, [sp, #32]
    1384:	a8c57bfd 	ldp	x29, x30, [sp], #80
    1388:	d65f03c0 	ret

000000000000138c <snprintk>:
snprintk():
/home/nk/optee/optee_os/lib/libutils/ext/snprintk.c:112
    138c:	a9b07bfd 	stp	x29, x30, [sp, #-256]!
    1390:	910003fd 	mov	x29, sp
    1394:	a90d93e3 	stp	x3, x4, [sp, #216]
/home/nk/optee/optee_os/lib/libutils/ext/snprintk.c:116
    1398:	910403e3 	add	x3, sp, #0x100
    139c:	a9030fe3 	stp	x3, x3, [sp, #48]
    13a0:	910343e3 	add	x3, sp, #0xd0
    13a4:	f90023e3 	str	x3, [sp, #64]
    13a8:	128004e3 	mov	w3, #0xffffffd8            	// #-40
    13ac:	b9004be3 	str	w3, [sp, #72]
    13b0:	12800fe3 	mov	w3, #0xffffff80            	// #-128
    13b4:	b9004fe3 	str	w3, [sp, #76]
/home/nk/optee/optee_os/lib/libutils/ext/snprintk.c:117
    13b8:	910043e3 	add	x3, sp, #0x10
/home/nk/optee/optee_os/lib/libutils/ext/snprintk.c:112
    13bc:	a90e9be5 	stp	x5, x6, [sp, #232]
/home/nk/optee/optee_os/lib/libutils/ext/snprintk.c:117
    13c0:	a94317e4 	ldp	x4, x5, [sp, #48]
    13c4:	a90117e4 	stp	x4, x5, [sp, #16]
    13c8:	a94417e4 	ldp	x4, x5, [sp, #64]
    13cc:	a90217e4 	stp	x4, x5, [sp, #32]
/home/nk/optee/optee_os/lib/libutils/ext/snprintk.c:112
    13d0:	3d8017e0 	str	q0, [sp, #80]
    13d4:	3d801be1 	str	q1, [sp, #96]
    13d8:	3d801fe2 	str	q2, [sp, #112]
    13dc:	3d8023e3 	str	q3, [sp, #128]
    13e0:	3d8027e4 	str	q4, [sp, #144]
    13e4:	3d802be5 	str	q5, [sp, #160]
    13e8:	3d802fe6 	str	q6, [sp, #176]
    13ec:	3d8033e7 	str	q7, [sp, #192]
    13f0:	f9007fe7 	str	x7, [sp, #248]
/home/nk/optee/optee_os/lib/libutils/ext/snprintk.c:117
    13f4:	97ffffd1 	bl	1338 <vsnprintk>
/home/nk/optee/optee_os/lib/libutils/ext/snprintk.c:121
    13f8:	a8d07bfd 	ldp	x29, x30, [sp], #256
    13fc:	d65f03c0 	ret

0000000000001400 <memchr>:
memchr():
/home/nk/optee/optee_os/lib/libutils/isoc/newlib/memchr.c:109
    1400:	12001c21 	and	w1, w1, #0xff
/home/nk/optee/optee_os/lib/libutils/isoc/newlib/memchr.c:153
    1404:	8b020002 	add	x2, x0, x2
    1408:	eb02001f 	cmp	x0, x2
    140c:	54000061 	b.ne	1418 <memchr+0x18>  // b.any
/home/nk/optee/optee_os/lib/libutils/isoc/newlib/memchr.c:159
    1410:	d2800000 	mov	x0, #0x0                   	// #0
/home/nk/optee/optee_os/lib/libutils/isoc/newlib/memchr.c:160
    1414:	d65f03c0 	ret
/home/nk/optee/optee_os/lib/libutils/isoc/newlib/memchr.c:154
    1418:	39400003 	ldrb	w3, [x0]
    141c:	6b01007f 	cmp	w3, w1
    1420:	54ffffa0 	b.eq	1414 <memchr+0x14>  // b.none
/home/nk/optee/optee_os/lib/libutils/isoc/newlib/memchr.c:156
    1424:	91000400 	add	x0, x0, #0x1
    1428:	17fffff8 	b	1408 <memchr+0x8>

000000000000142c <strlen>:
strlen():
/home/nk/optee/optee_os/lib/libutils/isoc/newlib/strlen.c:117
    142c:	aa0003e1 	mov	x1, x0
    1430:	39400022 	ldrb	w2, [x1]
    1434:	35000062 	cbnz	w2, 1440 <strlen+0x14>
/home/nk/optee/optee_os/lib/libutils/isoc/newlib/strlen.c:120
    1438:	cb000020 	sub	x0, x1, x0
    143c:	d65f03c0 	ret
/home/nk/optee/optee_os/lib/libutils/isoc/newlib/strlen.c:118
    1440:	91000421 	add	x1, x1, #0x1
    1444:	17fffffb 	b	1430 <strlen+0x4>

0000000000001448 <trace_ext_puts>:
trace_ext_puts():
/home/nk/optee/optee_os/lib/libutee/trace_ext.c:17
    1448:	a9be7bfd 	stp	x29, x30, [sp, #-32]!
    144c:	910003fd 	mov	x29, sp
    1450:	f9000bf3 	str	x19, [sp, #16]
    1454:	aa0003f3 	mov	x19, x0
/home/nk/optee/optee_os/lib/libutee/trace_ext.c:18
    1458:	97fffff5 	bl	142c <strlen>
    145c:	aa0003e1 	mov	x1, x0
    1460:	aa1303e0 	mov	x0, x19
/home/nk/optee/optee_os/lib/libutee/trace_ext.c:19
    1464:	f9400bf3 	ldr	x19, [sp, #16]
    1468:	a8c27bfd 	ldp	x29, x30, [sp], #32
/home/nk/optee/optee_os/lib/libutee/trace_ext.c:18
    146c:	140005be 	b	2b64 <_utee_log>

0000000000001470 <trace_ext_get_thread_id>:
trace_ext_get_thread_id():
/home/nk/optee/optee_os/lib/libutee/trace_ext.c:24
    1470:	12800000 	mov	w0, #0xffffffff            	// #-1
    1474:	d65f03c0 	ret

0000000000001478 <printf>:
printf():
/home/nk/optee/optee_os/lib/libutee/trace_ext.c:32
    1478:	d10883ff 	sub	sp, sp, #0x220
    147c:	a9007bfd 	stp	x29, x30, [sp]
    1480:	910003fd 	mov	x29, sp
    1484:	a90153f3 	stp	x19, x20, [sp, #16]
    1488:	aa0003f3 	mov	x19, x0
    148c:	3d805be0 	str	q0, [sp, #352]
    1490:	3d805fe1 	str	q1, [sp, #368]
    1494:	3d8063e2 	str	q2, [sp, #384]
    1498:	3d8067e3 	str	q3, [sp, #400]
    149c:	3d806be4 	str	q4, [sp, #416]
    14a0:	3d806fe5 	str	q5, [sp, #432]
    14a4:	3d8073e6 	str	q6, [sp, #448]
    14a8:	3d8077e7 	str	q7, [sp, #464]
    14ac:	a91e8be1 	stp	x1, x2, [sp, #488]
    14b0:	a91f93e3 	stp	x3, x4, [sp, #504]
    14b4:	f90107e5 	str	x5, [sp, #520]
    14b8:	f9010be6 	str	x6, [sp, #528]
    14bc:	f9010fe7 	str	x7, [sp, #536]
/home/nk/optee/optee_os/lib/libutee/trace_ext.c:37
    14c0:	97fffbf4 	bl	490 <trace_get_level>
    14c4:	7100001f 	cmp	w0, #0x0
    14c8:	5400038d 	b.le	1538 <printf+0xc0>
/home/nk/optee/optee_os/lib/libutee/trace_ext.c:40
    14cc:	910883e0 	add	x0, sp, #0x220
    14d0:	a90403e0 	stp	x0, x0, [sp, #64]
    14d4:	910783e0 	add	x0, sp, #0x1e0
    14d8:	f9002be0 	str	x0, [sp, #80]
    14dc:	128006e0 	mov	w0, #0xffffffc8            	// #-56
    14e0:	b9005be0 	str	w0, [sp, #88]
    14e4:	12800fe0 	mov	w0, #0xffffff80            	// #-128
    14e8:	b9005fe0 	str	w0, [sp, #92]
/home/nk/optee/optee_os/lib/libutee/trace_ext.c:41
    14ec:	910183f4 	add	x20, sp, #0x60
    14f0:	a94407e0 	ldp	x0, x1, [sp, #64]
    14f4:	a90207e0 	stp	x0, x1, [sp, #32]
    14f8:	aa1303e2 	mov	x2, x19
    14fc:	a94507e0 	ldp	x0, x1, [sp, #80]
    1500:	910083e3 	add	x3, sp, #0x20
    1504:	a90307e0 	stp	x0, x1, [sp, #48]
    1508:	aa1403e0 	mov	x0, x20
    150c:	d2802001 	mov	x1, #0x100                 	// #256
    1510:	94002071 	bl	96d4 <vsnprintf>
    1514:	2a0003f3 	mov	w19, w0
/home/nk/optee/optee_os/lib/libutee/trace_ext.c:44
    1518:	37f80060 	tbnz	w0, #31, 1524 <printf+0xac>
/home/nk/optee/optee_os/lib/libutee/trace_ext.c:47
    151c:	aa1403e0 	mov	x0, x20
    1520:	97ffffca 	bl	1448 <trace_ext_puts>
/home/nk/optee/optee_os/lib/libutee/trace_ext.c:50
    1524:	2a1303e0 	mov	w0, w19
    1528:	a9407bfd 	ldp	x29, x30, [sp]
    152c:	a94153f3 	ldp	x19, x20, [sp, #16]
    1530:	910883ff 	add	sp, sp, #0x220
    1534:	d65f03c0 	ret
/home/nk/optee/optee_os/lib/libutee/trace_ext.c:38
    1538:	52800013 	mov	w19, #0x0                   	// #0
    153c:	17fffffa 	b	1524 <printf+0xac>

0000000000001540 <puts>:
puts():
/home/nk/optee/optee_os/lib/libutee/trace_ext.c:53
    1540:	a9be7bfd 	stp	x29, x30, [sp, #-32]!
    1544:	910003fd 	mov	x29, sp
    1548:	f9000bf3 	str	x19, [sp, #16]
    154c:	aa0003f3 	mov	x19, x0
/home/nk/optee/optee_os/lib/libutee/trace_ext.c:54
    1550:	97fffbd0 	bl	490 <trace_get_level>
    1554:	7100001f 	cmp	w0, #0x0
    1558:	540000cd 	b.le	1570 <puts+0x30>
/home/nk/optee/optee_os/lib/libutee/trace_ext.c:55
    155c:	aa1303e0 	mov	x0, x19
    1560:	97ffffba 	bl	1448 <trace_ext_puts>
/home/nk/optee/optee_os/lib/libutee/trace_ext.c:56
    1564:	f0000040 	adrp	x0, c000 <HEXDIGITS+0x62>
    1568:	9119c400 	add	x0, x0, #0x671
    156c:	97ffffb7 	bl	1448 <trace_ext_puts>
/home/nk/optee/optee_os/lib/libutee/trace_ext.c:59
    1570:	52800020 	mov	w0, #0x1                   	// #1
    1574:	f9400bf3 	ldr	x19, [sp, #16]
    1578:	a8c27bfd 	ldp	x29, x30, [sp], #32
    157c:	d65f03c0 	ret

0000000000001580 <putchar>:
putchar():
/home/nk/optee/optee_os/lib/libutee/trace_ext.c:62
    1580:	a9bd7bfd 	stp	x29, x30, [sp, #-48]!
    1584:	910003fd 	mov	x29, sp
    1588:	f9000bf3 	str	x19, [sp, #16]
    158c:	2a0003f3 	mov	w19, w0
/home/nk/optee/optee_os/lib/libutee/trace_ext.c:63
    1590:	3900a3e0 	strb	w0, [sp, #40]
    1594:	3900a7ff 	strb	wzr, [sp, #41]
/home/nk/optee/optee_os/lib/libutee/trace_ext.c:65
    1598:	97fffbbe 	bl	490 <trace_get_level>
    159c:	7100001f 	cmp	w0, #0x0
    15a0:	5400006d 	b.le	15ac <putchar+0x2c>
/home/nk/optee/optee_os/lib/libutee/trace_ext.c:66
    15a4:	9100a3e0 	add	x0, sp, #0x28
    15a8:	97ffffa8 	bl	1448 <trace_ext_puts>
/home/nk/optee/optee_os/lib/libutee/trace_ext.c:73
    15ac:	12001e60 	and	w0, w19, #0xff
    15b0:	f9400bf3 	ldr	x19, [sp, #16]
    15b4:	a8c37bfd 	ldp	x29, x30, [sp], #48
    15b8:	d65f03c0 	ret

00000000000015bc <update_out_param>:
update_out_param():
/home/nk/optee/optee_os/lib/libutee/tee_api.c:115
    15bc:	a9bb7bfd 	stp	x29, x30, [sp, #-80]!
    15c0:	910003fd 	mov	x29, sp
    15c4:	a90153f3 	stp	x19, x20, [sp, #16]
/home/nk/optee/optee_os/lib/libutee/tee_api.c:117
    15c8:	aa0203f4 	mov	x20, x2
    15cc:	aa0003f3 	mov	x19, x0
/home/nk/optee/optee_os/lib/libutee/tee_api.c:115
    15d0:	a90363f7 	stp	x23, x24, [sp, #48]
/home/nk/optee/optee_os/lib/libutee/tee_api.c:123
    15d4:	d0000058 	adrp	x24, b000 <__text_end+0x15f0>
    15d8:	91285318 	add	x24, x24, #0xa14
/home/nk/optee/optee_os/lib/libutee/tee_api.c:117
    15dc:	f8408697 	ldr	x23, [x20], #8
/home/nk/optee/optee_os/lib/libutee/tee_api.c:115
    15e0:	f90023f9 	str	x25, [sp, #64]
    15e4:	aa0103f9 	mov	x25, x1
    15e8:	a9025bf5 	stp	x21, x22, [sp, #32]
/home/nk/optee/optee_os/lib/libutee/tee_api.c:119
    15ec:	d2800015 	mov	x21, #0x0                   	// #0
/home/nk/optee/optee_os/lib/libutee/tee_api.c:123
    15f0:	531e76a0 	lsl	w0, w21, #2
/home/nk/optee/optee_os/lib/libutee/tee_api.c:121
    15f4:	f9400696 	ldr	x22, [x20, #8]
/home/nk/optee/optee_os/lib/libutee/tee_api.c:123
    15f8:	1ac026e0 	lsr	w0, w23, w0
    15fc:	12000c00 	and	w0, w0, #0xf
    1600:	51000800 	sub	w0, w0, #0x2
    1604:	7100141f 	cmp	w0, #0x5
    1608:	540000e8 	b.hi	1624 <update_out_param+0x68>  // b.pmore
    160c:	38604b00 	ldrb	w0, [x24, w0, uxtw]
    1610:	10000061 	adr	x1, 161c <update_out_param+0x60>
    1614:	8b208820 	add	x0, x1, w0, sxtb #2
    1618:	d61f0000 	br	x0
/home/nk/optee/optee_os/lib/libutee/tee_api.c:126
    161c:	f9400280 	ldr	x0, [x20]
/home/nk/optee/optee_os/lib/libutee/tee_api.c:127
    1620:	29005a60 	stp	w0, w22, [x19]
/home/nk/optee/optee_os/lib/libutee/tee_api.c:119 (discriminator 2)
    1624:	910006b5 	add	x21, x21, #0x1
    1628:	91004294 	add	x20, x20, #0x10
    162c:	91004273 	add	x19, x19, #0x10
    1630:	f10012bf 	cmp	x21, #0x4
    1634:	54fffde1 	b.ne	15f0 <update_out_param+0x34>  // b.any
/home/nk/optee/optee_os/lib/libutee/tee_api.c:140
    1638:	a94153f3 	ldp	x19, x20, [sp, #16]
    163c:	a9425bf5 	ldp	x21, x22, [sp, #32]
    1640:	a94363f7 	ldp	x23, x24, [sp, #48]
    1644:	f94023f9 	ldr	x25, [sp, #64]
    1648:	a8c57bfd 	ldp	x29, x30, [sp], #80
    164c:	d65f03c0 	ret
/home/nk/optee/optee_os/lib/libutee/tee_api.c:131
    1650:	f8757b21 	ldr	x1, [x25, x21, lsl #3]
    1654:	b40000c1 	cbz	x1, 166c <update_out_param+0xb0>
/home/nk/optee/optee_os/lib/libutee/tee_api.c:133
    1658:	b9400a62 	ldr	w2, [x19, #8]
/home/nk/optee/optee_os/lib/libutee/tee_api.c:132
    165c:	f9400260 	ldr	x0, [x19]
/home/nk/optee/optee_os/lib/libutee/tee_api.c:133
    1660:	eb16005f 	cmp	x2, x22
/home/nk/optee/optee_os/lib/libutee/tee_api.c:132
    1664:	9a969042 	csel	x2, x2, x22, ls  // ls = plast
    1668:	97fffa6e 	bl	20 <memcpy>
/home/nk/optee/optee_os/lib/libutee/tee_api.c:134
    166c:	b9000a76 	str	w22, [x19, #8]
/home/nk/optee/optee_os/lib/libutee/tee_api.c:135
    1670:	17ffffed 	b	1624 <update_out_param+0x68>

0000000000001674 <TEE_CloseTASession>:
TEE_CloseTASession():
/home/nk/optee/optee_os/lib/libutee/tee_api.c:184
    1674:	b4000120 	cbz	x0, 1698 <TEE_CloseTASession+0x24>
/home/nk/optee/optee_os/lib/libutee/tee_api.c:183
    1678:	a9bf7bfd 	stp	x29, x30, [sp, #-16]!
    167c:	910003fd 	mov	x29, sp
/home/nk/optee/optee_os/lib/libutee/tee_api.c:185
    1680:	94000548 	bl	2ba0 <_utee_close_ta_session>
/home/nk/optee/optee_os/lib/libutee/tee_api.c:187
    1684:	34000060 	cbz	w0, 1690 <TEE_CloseTASession+0x1c>
/home/nk/optee/optee_os/lib/libutee/tee_api.c:190
    1688:	a8c17bfd 	ldp	x29, x30, [sp], #16
/home/nk/optee/optee_os/lib/libutee/tee_api.c:188
    168c:	140004cc 	b	29bc <TEE_Panic>
/home/nk/optee/optee_os/lib/libutee/tee_api.c:190
    1690:	a8c17bfd 	ldp	x29, x30, [sp], #16
    1694:	d65f03c0 	ret
    1698:	d65f03c0 	ret

000000000000169c <TEE_GetCancellationFlag>:
TEE_GetCancellationFlag():
/home/nk/optee/optee_os/lib/libutee/tee_api.c:237
    169c:	a9be7bfd 	stp	x29, x30, [sp, #-32]!
    16a0:	910003fd 	mov	x29, sp
/home/nk/optee/optee_os/lib/libutee/tee_api.c:239
    16a4:	910073e0 	add	x0, sp, #0x1c
    16a8:	94000544 	bl	2bb8 <_utee_get_cancellation_flag>
/home/nk/optee/optee_os/lib/libutee/tee_api.c:241
    16ac:	34000040 	cbz	w0, 16b4 <TEE_GetCancellationFlag+0x18>
/home/nk/optee/optee_os/lib/libutee/tee_api.c:242
    16b0:	b9001fff 	str	wzr, [sp, #28]
/home/nk/optee/optee_os/lib/libutee/tee_api.c:243
    16b4:	b9401fe0 	ldr	w0, [sp, #28]
/home/nk/optee/optee_os/lib/libutee/tee_api.c:244
    16b8:	a8c27bfd 	ldp	x29, x30, [sp], #32
/home/nk/optee/optee_os/lib/libutee/tee_api.c:243
    16bc:	7100001f 	cmp	w0, #0x0
/home/nk/optee/optee_os/lib/libutee/tee_api.c:244
    16c0:	1a9f07e0 	cset	w0, ne  // ne = any
    16c4:	d65f03c0 	ret

00000000000016c8 <TEE_UnmaskCancellation>:
TEE_UnmaskCancellation():
/home/nk/optee/optee_os/lib/libutee/tee_api.c:247
    16c8:	a9be7bfd 	stp	x29, x30, [sp, #-32]!
    16cc:	910003fd 	mov	x29, sp
/home/nk/optee/optee_os/lib/libutee/tee_api.c:249
    16d0:	910073e0 	add	x0, sp, #0x1c
    16d4:	9400053f 	bl	2bd0 <_utee_unmask_cancellation>
/home/nk/optee/optee_os/lib/libutee/tee_api.c:251
    16d8:	34000040 	cbz	w0, 16e0 <TEE_UnmaskCancellation+0x18>
/home/nk/optee/optee_os/lib/libutee/tee_api.c:252
    16dc:	940004b8 	bl	29bc <TEE_Panic>
/home/nk/optee/optee_os/lib/libutee/tee_api.c:253
    16e0:	b9401fe0 	ldr	w0, [sp, #28]
/home/nk/optee/optee_os/lib/libutee/tee_api.c:254
    16e4:	a8c27bfd 	ldp	x29, x30, [sp], #32
/home/nk/optee/optee_os/lib/libutee/tee_api.c:253
    16e8:	7100001f 	cmp	w0, #0x0
/home/nk/optee/optee_os/lib/libutee/tee_api.c:254
    16ec:	1a9f07e0 	cset	w0, ne  // ne = any
    16f0:	d65f03c0 	ret

00000000000016f4 <TEE_MaskCancellation>:
TEE_MaskCancellation():
/home/nk/optee/optee_os/lib/libutee/tee_api.c:257
    16f4:	a9be7bfd 	stp	x29, x30, [sp, #-32]!
    16f8:	910003fd 	mov	x29, sp
/home/nk/optee/optee_os/lib/libutee/tee_api.c:259
    16fc:	910073e0 	add	x0, sp, #0x1c
    1700:	94000537 	bl	2bdc <_utee_mask_cancellation>
/home/nk/optee/optee_os/lib/libutee/tee_api.c:261
    1704:	34000040 	cbz	w0, 170c <TEE_MaskCancellation+0x18>
/home/nk/optee/optee_os/lib/libutee/tee_api.c:262
    1708:	940004ad 	bl	29bc <TEE_Panic>
/home/nk/optee/optee_os/lib/libutee/tee_api.c:263
    170c:	b9401fe0 	ldr	w0, [sp, #28]
/home/nk/optee/optee_os/lib/libutee/tee_api.c:264
    1710:	a8c27bfd 	ldp	x29, x30, [sp], #32
/home/nk/optee/optee_os/lib/libutee/tee_api.c:263
    1714:	7100001f 	cmp	w0, #0x0
/home/nk/optee/optee_os/lib/libutee/tee_api.c:264
    1718:	1a9f07e0 	cset	w0, ne  // ne = any
    171c:	d65f03c0 	ret

0000000000001720 <TEE_CheckMemoryAccessRights>:
TEE_CheckMemoryAccessRights():
/home/nk/optee/optee_os/lib/libutee/tee_api.c:273
    1720:	34000062 	cbz	w2, 172c <TEE_CheckMemoryAccessRights+0xc>
/home/nk/optee/optee_os/lib/libutee/tee_api.c:277
    1724:	2a0203e2 	mov	w2, w2
    1728:	14000527 	b	2bc4 <_utee_check_access_rights>
/home/nk/optee/optee_os/lib/libutee/tee_api.c:289
    172c:	52800000 	mov	w0, #0x0                   	// #0
    1730:	d65f03c0 	ret

0000000000001734 <copy_param.constprop.1>:
copy_param():
/home/nk/optee/optee_os/lib/libutee/tee_api.c:19
    1734:	a9b87bfd 	stp	x29, x30, [sp, #-128]!
    1738:	910003fd 	mov	x29, sp
    173c:	a9046bf9 	stp	x25, x26, [sp, #64]
    1740:	aa0303f9 	mov	x25, x3
/home/nk/optee/optee_os/lib/libutee/tee_api.c:60
    1744:	9101e3e3 	add	x3, sp, #0x78
/home/nk/optee/optee_os/lib/libutee/tee_api.c:19
    1748:	a90363f7 	stp	x23, x24, [sp, #48]
    174c:	aa0403f8 	mov	x24, x4
    1750:	aa0503f7 	mov	x23, x5
    1754:	a90153f3 	stp	x19, x20, [sp, #16]
    1758:	aa0003f3 	mov	x19, x0
    175c:	aa0203f4 	mov	x20, x2
    1760:	a9025bf5 	stp	x21, x22, [sp, #32]
    1764:	2a0103f6 	mov	w22, w1
/home/nk/optee/optee_os/lib/libutee/tee_api.c:41
    1768:	d2800015 	mov	x21, #0x0                   	// #0
/home/nk/optee/optee_os/lib/libutee/tee_api.c:19
    176c:	a90573fb 	stp	x27, x28, [sp, #80]
/home/nk/optee/optee_os/lib/libutee/tee_api.c:48
    1770:	9100205c 	add	x28, x2, #0x8
/home/nk/optee/optee_os/lib/libutee/tee_api.c:26
    1774:	d280001b 	mov	x27, #0x0                   	// #0
/home/nk/optee/optee_os/lib/libutee/tee_api.c:39
    1778:	f900033f 	str	xzr, [x25]
/home/nk/optee/optee_os/lib/libutee/tee_api.c:60
    177c:	52800024 	mov	w4, #0x1                   	// #1
/home/nk/optee/optee_os/lib/libutee/tee_api.c:40
    1780:	f900031f 	str	xzr, [x24]
/home/nk/optee/optee_os/lib/libutee/tee_api.c:28
    1784:	b9007bff 	str	wzr, [sp, #120]
/home/nk/optee/optee_os/lib/libutee/tee_api.c:43
    1788:	531e76a0 	lsl	w0, w21, #2
/home/nk/optee/optee_os/lib/libutee/tee_api.c:42
    178c:	f8357aff 	str	xzr, [x23, x21, lsl #3]
/home/nk/optee/optee_os/lib/libutee/tee_api.c:43
    1790:	1ac026c0 	lsr	w0, w22, w0
    1794:	12000c00 	and	w0, w0, #0xf
    1798:	51001400 	sub	w0, w0, #0x5
    179c:	7100081f 	cmp	w0, #0x2
    17a0:	54000268 	b.hi	17ec <copy_param.constprop.1+0xb8>  // b.pmore
/home/nk/optee/optee_os/lib/libutee/tee_api.c:47
    17a4:	d37ceea0 	lsl	x0, x21, #4
/home/nk/optee/optee_os/lib/libutee/tee_api.c:48
    17a8:	b8606b82 	ldr	w2, [x28, x0]
/home/nk/optee/optee_os/lib/libutee/tee_api.c:47
    17ac:	f8606a81 	ldr	x1, [x20, x0]
/home/nk/optee/optee_os/lib/libutee/tee_api.c:48
    17b0:	2a0203fa 	mov	w26, w2
/home/nk/optee/optee_os/lib/libutee/tee_api.c:58
    17b4:	f100003f 	cmp	x1, #0x0
    17b8:	fa401b44 	ccmp	x26, #0x0, #0x4, ne  // ne = any
    17bc:	54000180 	b.eq	17ec <copy_param.constprop.1+0xb8>  // b.none
/home/nk/optee/optee_os/lib/libutee/tee_api.c:59
    17c0:	52800020 	mov	w0, #0x1                   	// #1
    17c4:	f90033e3 	str	x3, [sp, #96]
    17c8:	b9006fe4 	str	w4, [sp, #108]
    17cc:	97ffffd5 	bl	1720 <TEE_CheckMemoryAccessRights>
/home/nk/optee/optee_os/lib/libutee/tee_api.c:58
    17d0:	b9406fe4 	ldr	w4, [sp, #108]
    17d4:	f94033e3 	ldr	x3, [sp, #96]
    17d8:	350000a0 	cbnz	w0, 17ec <copy_param.constprop.1+0xb8>
/home/nk/optee/optee_os/lib/libutee/tee_api.c:61
    17dc:	91003f5a 	add	x26, x26, #0xf
/home/nk/optee/optee_os/lib/libutee/tee_api.c:60
    17e0:	38236aa4 	strb	w4, [x21, x3]
/home/nk/optee/optee_os/lib/libutee/tee_api.c:61
    17e4:	927cef5a 	and	x26, x26, #0xfffffffffffffff0
    17e8:	8b1a037b 	add	x27, x27, x26
/home/nk/optee/optee_os/lib/libutee/tee_api.c:41
    17ec:	910006b5 	add	x21, x21, #0x1
    17f0:	f10012bf 	cmp	x21, #0x4
    17f4:	54fffca1 	b.ne	1788 <copy_param.constprop.1+0x54>  // b.any
/home/nk/optee/optee_os/lib/libutee/tee_api.c:69
    17f8:	b400031b 	cbz	x27, 1858 <copy_param.constprop.1+0x124>
/home/nk/optee/optee_os/lib/libutee/tee_api.c:70
    17fc:	2a1503e1 	mov	w1, w21
    1800:	aa1b03e0 	mov	x0, x27
    1804:	94000492 	bl	2a4c <tee_map_zi>
    1808:	aa0003e3 	mov	x3, x0
/home/nk/optee/optee_os/lib/libutee/tee_api.c:71
    180c:	b4000780 	cbz	x0, 18fc <copy_param.constprop.1+0x1c8>
/home/nk/optee/optee_os/lib/libutee/tee_api.c:73
    1810:	f9000320 	str	x0, [x25]
/home/nk/optee/optee_os/lib/libutee/tee_api.c:74
    1814:	f900031b 	str	x27, [x24]
/home/nk/optee/optee_os/lib/libutee/tee_api.c:79
    1818:	d0000059 	adrp	x25, b000 <__text_end+0x15f0>
/home/nk/optee/optee_os/lib/libutee/tee_api.c:89
    181c:	9101e3fb 	add	x27, sp, #0x78
/home/nk/optee/optee_os/lib/libutee/tee_api.c:79
    1820:	91287339 	add	x25, x25, #0xa1c
/home/nk/optee/optee_os/lib/libutee/tee_api.c:77
    1824:	2a1603e0 	mov	w0, w22
/home/nk/optee/optee_os/lib/libutee/tee_api.c:78
    1828:	d2800015 	mov	x21, #0x0                   	// #0
/home/nk/optee/optee_os/lib/libutee/tee_api.c:77
    182c:	f8008660 	str	x0, [x19], #8
/home/nk/optee/optee_os/lib/libutee/tee_api.c:79
    1830:	531e76a0 	lsl	w0, w21, #2
    1834:	1ac026c0 	lsr	w0, w22, w0
    1838:	12000c00 	and	w0, w0, #0xf
    183c:	51000401 	sub	w1, w0, #0x1
    1840:	7100183f 	cmp	w1, #0x6
    1844:	54000588 	b.hi	18f4 <copy_param.constprop.1+0x1c0>  // b.pmore
    1848:	38614b21 	ldrb	w1, [x25, w1, uxtw]
    184c:	10000062 	adr	x2, 1858 <copy_param.constprop.1+0x124>
    1850:	8b218841 	add	x1, x2, w1, sxtb #2
    1854:	d61f0020 	br	x1
/home/nk/optee/optee_os/lib/libutee/tee_api.c:25
    1858:	d2800003 	mov	x3, #0x0                   	// #0
    185c:	17ffffef 	b	1818 <copy_param.constprop.1+0xe4>
/home/nk/optee/optee_os/lib/libutee/tee_api.c:82
    1860:	b9400280 	ldr	w0, [x20]
    1864:	f9000260 	str	x0, [x19]
/home/nk/optee/optee_os/lib/libutee/tee_api.c:83
    1868:	b9400680 	ldr	w0, [x20, #4]
    186c:	f9000660 	str	x0, [x19, #8]
/home/nk/optee/optee_os/lib/libutee/tee_api.c:78
    1870:	910006b5 	add	x21, x21, #0x1
    1874:	91004294 	add	x20, x20, #0x10
    1878:	91004273 	add	x19, x19, #0x10
    187c:	f10012bf 	cmp	x21, #0x4
    1880:	54fffd81 	b.ne	1830 <copy_param.constprop.1+0xfc>  // b.any
/home/nk/optee/optee_os/lib/libutee/tee_api.c:109
    1884:	52800000 	mov	w0, #0x0                   	// #0
/home/nk/optee/optee_os/lib/libutee/tee_api.c:110
    1888:	a94153f3 	ldp	x19, x20, [sp, #16]
    188c:	a9425bf5 	ldp	x21, x22, [sp, #32]
    1890:	a94363f7 	ldp	x23, x24, [sp, #48]
    1894:	a9446bf9 	ldp	x25, x26, [sp, #64]
    1898:	a94573fb 	ldp	x27, x28, [sp, #80]
    189c:	a8c87bfd 	ldp	x29, x30, [sp], #128
    18a0:	d65f03c0 	ret
/home/nk/optee/optee_os/lib/libutee/tee_api.c:89
    18a4:	387b6aa1 	ldrb	w1, [x21, x27]
/home/nk/optee/optee_os/lib/libutee/tee_api.c:88
    18a8:	b9400a9a 	ldr	w26, [x20, #8]
/home/nk/optee/optee_os/lib/libutee/tee_api.c:89
    18ac:	340001e1 	cbz	w1, 18e8 <copy_param.constprop.1+0x1b4>
/home/nk/optee/optee_os/lib/libutee/tee_api.c:92
    18b0:	91003f58 	add	x24, x26, #0xf
/home/nk/optee/optee_os/lib/libutee/tee_api.c:91
    18b4:	f8357ae3 	str	x3, [x23, x21, lsl #3]
/home/nk/optee/optee_os/lib/libutee/tee_api.c:92
    18b8:	927cef18 	and	x24, x24, #0xfffffffffffffff0
/home/nk/optee/optee_os/lib/libutee/tee_api.c:93
    18bc:	7100181f 	cmp	w0, #0x6
/home/nk/optee/optee_os/lib/libutee/tee_api.c:92
    18c0:	8b180078 	add	x24, x3, x24
/home/nk/optee/optee_os/lib/libutee/tee_api.c:93
    18c4:	540000c0 	b.eq	18dc <copy_param.constprop.1+0x1a8>  // b.none
/home/nk/optee/optee_os/lib/libutee/tee_api.c:95
    18c8:	f9400281 	ldr	x1, [x20]
    18cc:	aa0303e0 	mov	x0, x3
    18d0:	aa1a03e2 	mov	x2, x26
    18d4:	97fff9d3 	bl	20 <memcpy>
    18d8:	aa0003e3 	mov	x3, x0
/home/nk/optee/optee_os/lib/libutee/tee_api.c:100
    18dc:	a9006a63 	stp	x3, x26, [x19]
    18e0:	aa1803e3 	mov	x3, x24
    18e4:	17ffffe3 	b	1870 <copy_param.constprop.1+0x13c>
/home/nk/optee/optee_os/lib/libutee/tee_api.c:97
    18e8:	aa0303f8 	mov	x24, x3
    18ec:	f9400283 	ldr	x3, [x20]
    18f0:	17fffffb 	b	18dc <copy_param.constprop.1+0x1a8>
/home/nk/optee/optee_os/lib/libutee/tee_api.c:104
    18f4:	a9007e7f 	stp	xzr, xzr, [x19]
/home/nk/optee/optee_os/lib/libutee/tee_api.c:105
    18f8:	17ffffde 	b	1870 <copy_param.constprop.1+0x13c>
/home/nk/optee/optee_os/lib/libutee/tee_api.c:72
    18fc:	129ffe60 	mov	w0, #0xffff000c            	// #-65524
    1900:	17ffffe2 	b	1888 <copy_param.constprop.1+0x154>

0000000000001904 <TEE_InvokeTACommand>:
TEE_InvokeTACommand():
/home/nk/optee/optee_os/lib/libutee/tee_api.c:197
    1904:	a9b37bfd 	stp	x29, x30, [sp, #-208]!
    1908:	910003fd 	mov	x29, sp
    190c:	a90153f3 	stp	x19, x20, [sp, #16]
/home/nk/optee/optee_os/lib/libutee/tee_api.c:205
    1910:	910223f4 	add	x20, sp, #0x88
/home/nk/optee/optee_os/lib/libutee/tee_api.c:197
    1914:	a9025bf5 	stp	x21, x22, [sp, #32]
    1918:	aa0403f6 	mov	x22, x4
    191c:	aa0503f5 	mov	x21, x5
    1920:	a90363f7 	stp	x23, x24, [sp, #48]
    1924:	aa0003f8 	mov	x24, x0
/home/nk/optee/optee_os/lib/libutee/tee_api.c:205
    1928:	9101a3f7 	add	x23, sp, #0x68
/home/nk/optee/optee_os/lib/libutee/tee_api.c:199
    192c:	52800060 	mov	w0, #0x3                   	// #3
/home/nk/optee/optee_os/lib/libutee/tee_api.c:205
    1930:	aa1703e5 	mov	x5, x23
    1934:	910183e4 	add	x4, sp, #0x60
/home/nk/optee/optee_os/lib/libutee/tee_api.c:197
    1938:	a9046bf9 	stp	x25, x26, [sp, #64]
    193c:	2a0103f9 	mov	w25, w1
    1940:	2a0203fa 	mov	w26, w2
    1944:	2a0303e1 	mov	w1, w3
/home/nk/optee/optee_os/lib/libutee/tee_api.c:205
    1948:	aa1603e2 	mov	x2, x22
    194c:	910163e3 	add	x3, sp, #0x58
/home/nk/optee/optee_os/lib/libutee/tee_api.c:199
    1950:	b90057e0 	str	w0, [sp, #84]
/home/nk/optee/optee_os/lib/libutee/tee_api.c:205
    1954:	aa1403e0 	mov	x0, x20
/home/nk/optee/optee_os/lib/libutee/tee_api.c:202
    1958:	a905ffff 	stp	xzr, xzr, [sp, #88]
/home/nk/optee/optee_os/lib/libutee/tee_api.c:203
    195c:	a906ffff 	stp	xzr, xzr, [sp, #104]
    1960:	a907ffff 	stp	xzr, xzr, [sp, #120]
/home/nk/optee/optee_os/lib/libutee/tee_api.c:205
    1964:	97ffff74 	bl	1734 <copy_param.constprop.1>
    1968:	2a0003f3 	mov	w19, w0
/home/nk/optee/optee_os/lib/libutee/tee_api.c:206
    196c:	35000240 	cbnz	w0, 19b4 <TEE_InvokeTACommand+0xb0>
/home/nk/optee/optee_os/lib/libutee/tee_api.c:208
    1970:	910153e4 	add	x4, sp, #0x54
    1974:	aa1403e3 	mov	x3, x20
    1978:	2a1a03e2 	mov	w2, w26
    197c:	2a1903e1 	mov	w1, w25
    1980:	aa1803e0 	mov	x0, x24
    1984:	9400048a 	bl	2bac <_utee_invoke_ta_command>
/home/nk/optee/optee_os/lib/libutee/tee_api.c:211
    1988:	aa1403e2 	mov	x2, x20
/home/nk/optee/optee_os/lib/libutee/tee_api.c:208
    198c:	2a0003f3 	mov	w19, w0
/home/nk/optee/optee_os/lib/libutee/tee_api.c:211
    1990:	aa1703e1 	mov	x1, x23
    1994:	aa1603e0 	mov	x0, x22
    1998:	97ffff09 	bl	15bc <update_out_param>
/home/nk/optee/optee_os/lib/libutee/tee_api.c:212
    199c:	f9402fe0 	ldr	x0, [sp, #88]
    19a0:	b40000a0 	cbz	x0, 19b4 <TEE_InvokeTACommand+0xb0>
/home/nk/optee/optee_os/lib/libutee/tee_api.c:213
    19a4:	f94033e1 	ldr	x1, [sp, #96]
    19a8:	94000446 	bl	2ac0 <tee_unmap>
/home/nk/optee/optee_os/lib/libutee/tee_api.c:215
    19ac:	34000040 	cbz	w0, 19b4 <TEE_InvokeTACommand+0xb0>
/home/nk/optee/optee_os/lib/libutee/tee_api.c:216
    19b0:	94000403 	bl	29bc <TEE_Panic>
/home/nk/optee/optee_os/lib/libutee/tee_api.c:220
    19b4:	b94057e0 	ldr	w0, [sp, #84]
    19b8:	b4000055 	cbz	x21, 19c0 <TEE_InvokeTACommand+0xbc>
/home/nk/optee/optee_os/lib/libutee/tee_api.c:221
    19bc:	b90002a0 	str	w0, [x21]
/home/nk/optee/optee_os/lib/libutee/tee_api.c:223
    19c0:	7100101f 	cmp	w0, #0x4
    19c4:	54000140 	b.eq	19ec <TEE_InvokeTACommand+0xe8>  // b.none
/home/nk/optee/optee_os/lib/libutee/tee_api.c:226
    19c8:	7100027f 	cmp	w19, #0x0
    19cc:	129ffe60 	mov	w0, #0xffff000c            	// #-65524
    19d0:	7a401264 	ccmp	w19, w0, #0x4, ne  // ne = any
    19d4:	540000c0 	b.eq	19ec <TEE_InvokeTACommand+0xe8>  // b.none
/home/nk/optee/optee_os/lib/libutee/tee_api.c:227
    19d8:	1299fb60 	mov	w0, #0xffff3024            	// #-53212
    19dc:	6b00027f 	cmp	w19, w0
    19e0:	54000060 	b.eq	19ec <TEE_InvokeTACommand+0xe8>  // b.none
/home/nk/optee/optee_os/lib/libutee/tee_api.c:229
    19e4:	2a1303e0 	mov	w0, w19
    19e8:	940003f5 	bl	29bc <TEE_Panic>
/home/nk/optee/optee_os/lib/libutee/tee_api.c:232
    19ec:	2a1303e0 	mov	w0, w19
    19f0:	a94153f3 	ldp	x19, x20, [sp, #16]
    19f4:	a9425bf5 	ldp	x21, x22, [sp, #32]
    19f8:	a94363f7 	ldp	x23, x24, [sp, #48]
    19fc:	a9446bf9 	ldp	x25, x26, [sp, #64]
    1a00:	a8cd7bfd 	ldp	x29, x30, [sp], #208
    1a04:	d65f03c0 	ret

0000000000001a08 <TEE_OpenTASession>:
TEE_OpenTASession():
/home/nk/optee/optee_os/lib/libutee/tee_api.c:148
    1a08:	a9b37bfd 	stp	x29, x30, [sp, #-208]!
    1a0c:	910003fd 	mov	x29, sp
    1a10:	a90153f3 	stp	x19, x20, [sp, #16]
/home/nk/optee/optee_os/lib/libutee/tee_api.c:156
    1a14:	910223f4 	add	x20, sp, #0x88
/home/nk/optee/optee_os/lib/libutee/tee_api.c:148
    1a18:	a9025bf5 	stp	x21, x22, [sp, #32]
    1a1c:	aa0303f5 	mov	x21, x3
/home/nk/optee/optee_os/lib/libutee/tee_api.c:156
    1a20:	9101a3f6 	add	x22, sp, #0x68
    1a24:	910163e3 	add	x3, sp, #0x58
/home/nk/optee/optee_os/lib/libutee/tee_api.c:148
    1a28:	a90363f7 	stp	x23, x24, [sp, #48]
    1a2c:	aa0003f8 	mov	x24, x0
    1a30:	aa0403f7 	mov	x23, x4
/home/nk/optee/optee_os/lib/libutee/tee_api.c:156
    1a34:	aa1403e0 	mov	x0, x20
    1a38:	910183e4 	add	x4, sp, #0x60
/home/nk/optee/optee_os/lib/libutee/tee_api.c:148
    1a3c:	a9046bf9 	stp	x25, x26, [sp, #64]
    1a40:	2a0103f9 	mov	w25, w1
    1a44:	aa0503fa 	mov	x26, x5
    1a48:	2a0203e1 	mov	w1, w2
/home/nk/optee/optee_os/lib/libutee/tee_api.c:156
    1a4c:	aa1603e5 	mov	x5, x22
    1a50:	aa1503e2 	mov	x2, x21
/home/nk/optee/optee_os/lib/libutee/tee_api.c:151
    1a54:	b90057ff 	str	wzr, [sp, #84]
/home/nk/optee/optee_os/lib/libutee/tee_api.c:153
    1a58:	a905ffff 	stp	xzr, xzr, [sp, #88]
/home/nk/optee/optee_os/lib/libutee/tee_api.c:154
    1a5c:	a906ffff 	stp	xzr, xzr, [sp, #104]
    1a60:	a907ffff 	stp	xzr, xzr, [sp, #120]
/home/nk/optee/optee_os/lib/libutee/tee_api.c:156
    1a64:	97ffff34 	bl	1734 <copy_param.constprop.1>
/home/nk/optee/optee_os/lib/libutee/tee_api.c:157
    1a68:	350003a0 	cbnz	w0, 1adc <TEE_OpenTASession+0xd4>
/home/nk/optee/optee_os/lib/libutee/tee_api.c:159
    1a6c:	aa1a03e4 	mov	x4, x26
    1a70:	910153e3 	add	x3, sp, #0x54
    1a74:	aa1403e2 	mov	x2, x20
    1a78:	2a1903e1 	mov	w1, w25
    1a7c:	aa1803e0 	mov	x0, x24
    1a80:	94000445 	bl	2b94 <_utee_open_ta_session>
/home/nk/optee/optee_os/lib/libutee/tee_api.c:161
    1a84:	aa1403e2 	mov	x2, x20
/home/nk/optee/optee_os/lib/libutee/tee_api.c:159
    1a88:	2a0003f3 	mov	w19, w0
/home/nk/optee/optee_os/lib/libutee/tee_api.c:161
    1a8c:	aa1603e1 	mov	x1, x22
    1a90:	aa1503e0 	mov	x0, x21
    1a94:	97fffeca 	bl	15bc <update_out_param>
/home/nk/optee/optee_os/lib/libutee/tee_api.c:162
    1a98:	f9402fe0 	ldr	x0, [sp, #88]
    1a9c:	b40000a0 	cbz	x0, 1ab0 <TEE_OpenTASession+0xa8>
/home/nk/optee/optee_os/lib/libutee/tee_api.c:163
    1aa0:	f94033e1 	ldr	x1, [sp, #96]
    1aa4:	94000407 	bl	2ac0 <tee_unmap>
/home/nk/optee/optee_os/lib/libutee/tee_api.c:165
    1aa8:	34000040 	cbz	w0, 1ab0 <TEE_OpenTASession+0xa8>
/home/nk/optee/optee_os/lib/libutee/tee_api.c:166
    1aac:	940003c4 	bl	29bc <TEE_Panic>
/home/nk/optee/optee_os/lib/libutee/tee_api.c:175
    1ab0:	34000053 	cbz	w19, 1ab8 <TEE_OpenTASession+0xb0>
/home/nk/optee/optee_os/lib/libutee/tee_api.c:176
    1ab4:	b90057ff 	str	wzr, [sp, #84]
/home/nk/optee/optee_os/lib/libutee/tee_api.c:178
    1ab8:	b94057e0 	ldr	w0, [sp, #84]
/home/nk/optee/optee_os/lib/libutee/tee_api.c:180
    1abc:	a9425bf5 	ldp	x21, x22, [sp, #32]
    1ac0:	a9446bf9 	ldp	x25, x26, [sp, #64]
/home/nk/optee/optee_os/lib/libutee/tee_api.c:178
    1ac4:	f90002e0 	str	x0, [x23]
/home/nk/optee/optee_os/lib/libutee/tee_api.c:180
    1ac8:	2a1303e0 	mov	w0, w19
    1acc:	a94153f3 	ldp	x19, x20, [sp, #16]
    1ad0:	a94363f7 	ldp	x23, x24, [sp, #48]
    1ad4:	a8cd7bfd 	ldp	x29, x30, [sp], #208
    1ad8:	d65f03c0 	ret
    1adc:	2a0003f3 	mov	w19, w0
    1ae0:	17fffff5 	b	1ab4 <TEE_OpenTASession+0xac>

0000000000001ae4 <TEE_SetInstanceData>:
TEE_SetInstanceData():
/home/nk/optee/optee_os/lib/libutee/tee_api.c:293
    1ae4:	90000061 	adrp	x1, d000 <_DYNAMIC>
    1ae8:	f9022420 	str	x0, [x1, #1096]
/home/nk/optee/optee_os/lib/libutee/tee_api.c:294
    1aec:	d65f03c0 	ret

0000000000001af0 <TEE_GetInstanceData>:
TEE_GetInstanceData():
/home/nk/optee/optee_os/lib/libutee/tee_api.c:299
    1af0:	90000060 	adrp	x0, d000 <_DYNAMIC>
    1af4:	f9422400 	ldr	x0, [x0, #1096]
    1af8:	d65f03c0 	ret

0000000000001afc <TEE_MemMove>:
TEE_MemMove():
/home/nk/optee/optee_os/lib/libutee/tee_api.c:303
    1afc:	2a0203e2 	mov	w2, w2
    1b00:	14001f0a 	b	9728 <memmove>

0000000000001b04 <TEE_MemCompare>:
TEE_MemCompare():
/home/nk/optee/optee_os/lib/libutee/tee_api.c:308
    1b04:	2a0203e2 	mov	w2, w2
    1b08:	14001f90 	b	9948 <consttime_memcmp>

0000000000001b0c <TEE_MemFill>:
TEE_MemFill():
/home/nk/optee/optee_os/lib/libutee/tee_api.c:313
    1b0c:	2a0203e2 	mov	w2, w2
    1b10:	14001f1d 	b	9784 <memset>

0000000000001b14 <TEE_GetSystemTime>:
TEE_GetSystemTime():
/home/nk/optee/optee_os/lib/libutee/tee_api.c:319
    1b14:	a9bf7bfd 	stp	x29, x30, [sp, #-16]!
/home/nk/optee/optee_os/lib/libutee/tee_api.c:320
    1b18:	aa0003e1 	mov	x1, x0
    1b1c:	d2800000 	mov	x0, #0x0                   	// #0
/home/nk/optee/optee_os/lib/libutee/tee_api.c:319
    1b20:	910003fd 	mov	x29, sp
/home/nk/optee/optee_os/lib/libutee/tee_api.c:320
    1b24:	94000434 	bl	2bf4 <_utee_get_time>
/home/nk/optee/optee_os/lib/libutee/tee_api.c:322
    1b28:	34000060 	cbz	w0, 1b34 <TEE_GetSystemTime+0x20>
/home/nk/optee/optee_os/lib/libutee/tee_api.c:324
    1b2c:	a8c17bfd 	ldp	x29, x30, [sp], #16
/home/nk/optee/optee_os/lib/libutee/tee_api.c:323
    1b30:	140003a3 	b	29bc <TEE_Panic>
/home/nk/optee/optee_os/lib/libutee/tee_api.c:324
    1b34:	a8c17bfd 	ldp	x29, x30, [sp], #16
    1b38:	d65f03c0 	ret

0000000000001b3c <TEE_Wait>:
TEE_Wait():
/home/nk/optee/optee_os/lib/libutee/tee_api.c:327
    1b3c:	a9be7bfd 	stp	x29, x30, [sp, #-32]!
/home/nk/optee/optee_os/lib/libutee/tee_api.c:328
    1b40:	2a0003e0 	mov	w0, w0
/home/nk/optee/optee_os/lib/libutee/tee_api.c:327
    1b44:	910003fd 	mov	x29, sp
    1b48:	f9000bf3 	str	x19, [sp, #16]
/home/nk/optee/optee_os/lib/libutee/tee_api.c:328
    1b4c:	94000427 	bl	2be8 <_utee_wait>
/home/nk/optee/optee_os/lib/libutee/tee_api.c:330
    1b50:	7100001f 	cmp	w0, #0x0
    1b54:	129fffa1 	mov	w1, #0xffff0002            	// #-65534
/home/nk/optee/optee_os/lib/libutee/tee_api.c:328
    1b58:	2a0003f3 	mov	w19, w0
/home/nk/optee/optee_os/lib/libutee/tee_api.c:330
    1b5c:	7a411004 	ccmp	w0, w1, #0x4, ne  // ne = any
    1b60:	54000040 	b.eq	1b68 <TEE_Wait+0x2c>  // b.none
/home/nk/optee/optee_os/lib/libutee/tee_api.c:331
    1b64:	94000396 	bl	29bc <TEE_Panic>
/home/nk/optee/optee_os/lib/libutee/tee_api.c:334
    1b68:	2a1303e0 	mov	w0, w19
    1b6c:	f9400bf3 	ldr	x19, [sp, #16]
    1b70:	a8c27bfd 	ldp	x29, x30, [sp], #32
    1b74:	d65f03c0 	ret

0000000000001b78 <TEE_GetTAPersistentTime>:
TEE_GetTAPersistentTime():
/home/nk/optee/optee_os/lib/libutee/tee_api.c:337
    1b78:	a9be7bfd 	stp	x29, x30, [sp, #-32]!
/home/nk/optee/optee_os/lib/libutee/tee_api.c:340
    1b7c:	aa0003e1 	mov	x1, x0
/home/nk/optee/optee_os/lib/libutee/tee_api.c:337
    1b80:	910003fd 	mov	x29, sp
    1b84:	a90153f3 	stp	x19, x20, [sp, #16]
    1b88:	aa0003f4 	mov	x20, x0
/home/nk/optee/optee_os/lib/libutee/tee_api.c:340
    1b8c:	d2800020 	mov	x0, #0x1                   	// #1
    1b90:	94000419 	bl	2bf4 <_utee_get_time>
/home/nk/optee/optee_os/lib/libutee/tee_api.c:342
    1b94:	7100001f 	cmp	w0, #0x0
/home/nk/optee/optee_os/lib/libutee/tee_api.c:340
    1b98:	2a0003f3 	mov	w19, w0
/home/nk/optee/optee_os/lib/libutee/tee_api.c:342
    1b9c:	1a9f07e2 	cset	w2, ne  // ne = any
    1ba0:	1299fe00 	mov	w0, #0xffff300f            	// #-53233
    1ba4:	6b00027f 	cmp	w19, w0
    1ba8:	1a9f1041 	csel	w1, w2, wzr, ne  // ne = any
    1bac:	34000041 	cbz	w1, 1bb4 <TEE_GetTAPersistentTime+0x3c>
/home/nk/optee/optee_os/lib/libutee/tee_api.c:344
    1bb0:	29007e9f 	stp	wzr, wzr, [x20]
/home/nk/optee/optee_os/lib/libutee/tee_api.c:348
    1bb4:	11402e60 	add	w0, w19, #0xb, lsl #12
/home/nk/optee/optee_os/lib/libutee/tee_api.c:347
    1bb8:	7100005f 	cmp	w2, #0x0
    1bbc:	7a411800 	ccmp	w0, #0x1, #0x0, ne  // ne = any
    1bc0:	540000e9 	b.ls	1bdc <TEE_GetTAPersistentTime+0x64>  // b.plast
/home/nk/optee/optee_os/lib/libutee/tee_api.c:349
    1bc4:	340000c1 	cbz	w1, 1bdc <TEE_GetTAPersistentTime+0x64>
/home/nk/optee/optee_os/lib/libutee/tee_api.c:350
    1bc8:	129ffe60 	mov	w0, #0xffff000c            	// #-65524
    1bcc:	6b00027f 	cmp	w19, w0
    1bd0:	54000060 	b.eq	1bdc <TEE_GetTAPersistentTime+0x64>  // b.none
/home/nk/optee/optee_os/lib/libutee/tee_api.c:352
    1bd4:	2a1303e0 	mov	w0, w19
    1bd8:	94000379 	bl	29bc <TEE_Panic>
/home/nk/optee/optee_os/lib/libutee/tee_api.c:355
    1bdc:	2a1303e0 	mov	w0, w19
    1be0:	a94153f3 	ldp	x19, x20, [sp, #16]
    1be4:	a8c27bfd 	ldp	x29, x30, [sp], #32
    1be8:	d65f03c0 	ret

0000000000001bec <TEE_SetTAPersistentTime>:
TEE_SetTAPersistentTime():
/home/nk/optee/optee_os/lib/libutee/tee_api.c:358
    1bec:	a9be7bfd 	stp	x29, x30, [sp, #-32]!
    1bf0:	910003fd 	mov	x29, sp
    1bf4:	f9000bf3 	str	x19, [sp, #16]
/home/nk/optee/optee_os/lib/libutee/tee_api.c:361
    1bf8:	94000402 	bl	2c00 <_utee_set_ta_time>
/home/nk/optee/optee_os/lib/libutee/tee_api.c:363
    1bfc:	7100001f 	cmp	w0, #0x0
    1c00:	129ffe61 	mov	w1, #0xffff000c            	// #-65524
/home/nk/optee/optee_os/lib/libutee/tee_api.c:361
    1c04:	2a0003f3 	mov	w19, w0
/home/nk/optee/optee_os/lib/libutee/tee_api.c:363
    1c08:	7a411004 	ccmp	w0, w1, #0x4, ne  // ne = any
    1c0c:	540000a0 	b.eq	1c20 <TEE_SetTAPersistentTime+0x34>  // b.none
/home/nk/optee/optee_os/lib/libutee/tee_api.c:364
    1c10:	1299f7c1 	mov	w1, #0xffff3041            	// #-53183
    1c14:	6b01001f 	cmp	w0, w1
    1c18:	54000040 	b.eq	1c20 <TEE_SetTAPersistentTime+0x34>  // b.none
/home/nk/optee/optee_os/lib/libutee/tee_api.c:366
    1c1c:	94000368 	bl	29bc <TEE_Panic>
/home/nk/optee/optee_os/lib/libutee/tee_api.c:369
    1c20:	2a1303e0 	mov	w0, w19
    1c24:	f9400bf3 	ldr	x19, [sp, #16]
    1c28:	a8c27bfd 	ldp	x29, x30, [sp], #32
    1c2c:	d65f03c0 	ret

0000000000001c30 <TEE_GetREETime>:
TEE_GetREETime():
/home/nk/optee/optee_os/lib/libutee/tee_api.c:372
    1c30:	a9bf7bfd 	stp	x29, x30, [sp, #-16]!
/home/nk/optee/optee_os/lib/libutee/tee_api.c:373
    1c34:	aa0003e1 	mov	x1, x0
    1c38:	d2800040 	mov	x0, #0x2                   	// #2
/home/nk/optee/optee_os/lib/libutee/tee_api.c:372
    1c3c:	910003fd 	mov	x29, sp
/home/nk/optee/optee_os/lib/libutee/tee_api.c:373
    1c40:	940003ed 	bl	2bf4 <_utee_get_time>
/home/nk/optee/optee_os/lib/libutee/tee_api.c:375
    1c44:	34000060 	cbz	w0, 1c50 <TEE_GetREETime+0x20>
/home/nk/optee/optee_os/lib/libutee/tee_api.c:377
    1c48:	a8c17bfd 	ldp	x29, x30, [sp], #16
/home/nk/optee/optee_os/lib/libutee/tee_api.c:376
    1c4c:	1400035c 	b	29bc <TEE_Panic>
/home/nk/optee/optee_os/lib/libutee/tee_api.c:377
    1c50:	a8c17bfd 	ldp	x29, x30, [sp], #16
    1c54:	d65f03c0 	ret

0000000000001c58 <TEE_Malloc>:
TEE_Malloc():
/home/nk/optee/optee_os/lib/libutee/tee_api.c:381
    1c58:	35000081 	cbnz	w1, 1c68 <TEE_Malloc+0x10>
/home/nk/optee/optee_os/lib/libutee/tee_api.c:382
    1c5c:	2a0003e1 	mov	w1, w0
    1c60:	d2800020 	mov	x0, #0x1                   	// #1
    1c64:	14001d83 	b	9270 <calloc>
/home/nk/optee/optee_os/lib/libutee/tee_api.c:383
    1c68:	52b00002 	mov	w2, #0x80000000            	// #-2147483648
    1c6c:	6b02003f 	cmp	w1, w2
    1c70:	54000061 	b.ne	1c7c <TEE_Malloc+0x24>  // b.any
/home/nk/optee/optee_os/lib/libutee/tee_api.c:384
    1c74:	2a0003e0 	mov	w0, w0
    1c78:	14001d6a 	b	9220 <malloc>
/home/nk/optee/optee_os/lib/libutee/tee_api.c:380
    1c7c:	a9bf7bfd 	stp	x29, x30, [sp, #-16]!
    1c80:	2a0103e5 	mov	w5, w1
/home/nk/optee/optee_os/lib/libutee/tee_api.c:386
    1c84:	52800023 	mov	w3, #0x1                   	// #1
/home/nk/optee/optee_os/lib/libutee/tee_api.c:380
    1c88:	910003fd 	mov	x29, sp
/home/nk/optee/optee_os/lib/libutee/tee_api.c:386
    1c8c:	52800022 	mov	w2, #0x1                   	// #1
    1c90:	52803041 	mov	w1, #0x182                 	// #386
    1c94:	d0000044 	adrp	x4, b000 <__text_end+0x15f0>
    1c98:	d0000040 	adrp	x0, b000 <__text_end+0x15f0>
    1c9c:	913f9c84 	add	x4, x4, #0xfe7
    1ca0:	91288c00 	add	x0, x0, #0xa23
    1ca4:	97fffa7b 	bl	690 <trace_printf>
/home/nk/optee/optee_os/lib/libutee/tee_api.c:389
    1ca8:	d2800000 	mov	x0, #0x0                   	// #0
    1cac:	a8c17bfd 	ldp	x29, x30, [sp], #16
    1cb0:	d65f03c0 	ret

0000000000001cb4 <TEE_Realloc>:
TEE_Realloc():
/home/nk/optee/optee_os/lib/libutee/tee_api.c:393
    1cb4:	2a0103e1 	mov	w1, w1
    1cb8:	14001d87 	b	92d4 <realloc>

0000000000001cbc <TEE_Free>:
TEE_Free():
/home/nk/optee/optee_os/lib/libutee/tee_api.c:398
    1cbc:	14001d9a 	b	9324 <free>

0000000000001cc0 <TEE_CacheClean>:
TEE_CacheClean():
/home/nk/optee/optee_os/lib/libutee/tee_api.c:404
    1cc0:	d2800002 	mov	x2, #0x0                   	// #0
    1cc4:	1400044a 	b	2dec <_utee_cache_operation>

0000000000001cc8 <TEE_CacheFlush>:
TEE_CacheFlush():
/home/nk/optee/optee_os/lib/libutee/tee_api.c:408
    1cc8:	d2800022 	mov	x2, #0x1                   	// #1
    1ccc:	14000448 	b	2dec <_utee_cache_operation>

0000000000001cd0 <TEE_CacheInvalidate>:
TEE_CacheInvalidate():
/home/nk/optee/optee_os/lib/libutee/tee_api.c:413
    1cd0:	d2800042 	mov	x2, #0x2                   	// #2
    1cd4:	14000446 	b	2dec <_utee_cache_operation>

0000000000001cd8 <__utee_from_attr>:
__utee_from_attr():
/home/nk/optee/optee_os/lib/libutee/tee_api_objects.c:22
    1cd8:	2a0203e2 	mov	w2, w2
    1cdc:	d2800003 	mov	x3, #0x0                   	// #0
/home/nk/optee/optee_os/lib/libutee/tee_api_objects.c:22 (discriminator 1)
    1ce0:	eb03005f 	cmp	x2, x3
    1ce4:	54000048 	b.hi	1cec <__utee_from_attr+0x14>  // b.pmore
/home/nk/optee/optee_os/lib/libutee/tee_api_objects.c:32
    1ce8:	d65f03c0 	ret
/home/nk/optee/optee_os/lib/libutee/tee_api_objects.c:23
    1cec:	b9400024 	ldr	w4, [x1]
    1cf0:	b9001004 	str	w4, [x0, #16]
/home/nk/optee/optee_os/lib/libutee/tee_api_objects.c:24
    1cf4:	36e80124 	tbz	w4, #29, 1d18 <__utee_from_attr+0x40>
/home/nk/optee/optee_os/lib/libutee/tee_api_objects.c:25
    1cf8:	b9400824 	ldr	w4, [x1, #8]
    1cfc:	f9000004 	str	x4, [x0]
/home/nk/optee/optee_os/lib/libutee/tee_api_objects.c:26
    1d00:	b9400c24 	ldr	w4, [x1, #12]
/home/nk/optee/optee_os/lib/libutee/tee_api_objects.c:22
    1d04:	91000463 	add	x3, x3, #0x1
    1d08:	91006021 	add	x1, x1, #0x18
    1d0c:	91006000 	add	x0, x0, #0x18
/home/nk/optee/optee_os/lib/libutee/tee_api_objects.c:29
    1d10:	f81f0004 	stur	x4, [x0, #-16]
    1d14:	17fffff3 	b	1ce0 <__utee_from_attr+0x8>
/home/nk/optee/optee_os/lib/libutee/tee_api_objects.c:28
    1d18:	f9400424 	ldr	x4, [x1, #8]
    1d1c:	f9000004 	str	x4, [x0]
/home/nk/optee/optee_os/lib/libutee/tee_api_objects.c:29
    1d20:	b9401024 	ldr	w4, [x1, #16]
    1d24:	17fffff8 	b	1d04 <__utee_from_attr+0x2c>

0000000000001d28 <TEE_GetObjectInfo>:
TEE_GetObjectInfo():
/home/nk/optee/optee_os/lib/libutee/tee_api_objects.c:42
    1d28:	a9be7bfd 	stp	x29, x30, [sp, #-32]!
    1d2c:	910003fd 	mov	x29, sp
    1d30:	f9000bf3 	str	x19, [sp, #16]
    1d34:	aa0103f3 	mov	x19, x1
/home/nk/optee/optee_os/lib/libutee/tee_api_objects.c:45
    1d38:	940003d0 	bl	2c78 <_utee_cryp_obj_get_info>
/home/nk/optee/optee_os/lib/libutee/tee_api_objects.c:47
    1d3c:	34000040 	cbz	w0, 1d44 <TEE_GetObjectInfo+0x1c>
/home/nk/optee/optee_os/lib/libutee/tee_api_objects.c:48
    1d40:	9400031f 	bl	29bc <TEE_Panic>
/home/nk/optee/optee_os/lib/libutee/tee_api_objects.c:50
    1d44:	b9400261 	ldr	w1, [x19]
    1d48:	528017c0 	mov	w0, #0xbe                  	// #190
    1d4c:	72b40000 	movk	w0, #0xa000, lsl #16
    1d50:	6b00003f 	cmp	w1, w0
    1d54:	54000081 	b.ne	1d64 <TEE_GetObjectInfo+0x3c>  // b.any
/home/nk/optee/optee_os/lib/libutee/tee_api_objects.c:52
    1d58:	2900fe7f 	stp	wzr, wzr, [x19, #4]
/home/nk/optee/optee_os/lib/libutee/tee_api_objects.c:54
    1d5c:	2901fe7f 	stp	wzr, wzr, [x19, #12]
/home/nk/optee/optee_os/lib/libutee/tee_api_objects.c:56
    1d60:	2902fe7f 	stp	wzr, wzr, [x19, #20]
/home/nk/optee/optee_os/lib/libutee/tee_api_objects.c:58
    1d64:	f9400bf3 	ldr	x19, [sp, #16]
    1d68:	a8c27bfd 	ldp	x29, x30, [sp], #32
    1d6c:	d65f03c0 	ret

0000000000001d70 <TEE_GetObjectInfo1>:
TEE_GetObjectInfo1():
/home/nk/optee/optee_os/lib/libutee/tee_api_objects.c:61
    1d70:	a9be7bfd 	stp	x29, x30, [sp, #-32]!
    1d74:	910003fd 	mov	x29, sp
    1d78:	f9000bf3 	str	x19, [sp, #16]
/home/nk/optee/optee_os/lib/libutee/tee_api_objects.c:64
    1d7c:	940003bf 	bl	2c78 <_utee_cryp_obj_get_info>
/home/nk/optee/optee_os/lib/libutee/tee_api_objects.c:66
    1d80:	52800021 	mov	w1, #0x1                   	// #1
/home/nk/optee/optee_os/lib/libutee/tee_api_objects.c:67
    1d84:	121e7802 	and	w2, w0, #0xfffffffd
/home/nk/optee/optee_os/lib/libutee/tee_api_objects.c:66
    1d88:	7100001f 	cmp	w0, #0x0
    1d8c:	72be0201 	movk	w1, #0xf010, lsl #16
/home/nk/optee/optee_os/lib/libutee/tee_api_objects.c:64
    1d90:	2a0003f3 	mov	w19, w0
/home/nk/optee/optee_os/lib/libutee/tee_api_objects.c:66
    1d94:	7a411044 	ccmp	w2, w1, #0x4, ne  // ne = any
    1d98:	54000040 	b.eq	1da0 <TEE_GetObjectInfo1+0x30>  // b.none
/home/nk/optee/optee_os/lib/libutee/tee_api_objects.c:69
    1d9c:	94000308 	bl	29bc <TEE_Panic>
/home/nk/optee/optee_os/lib/libutee/tee_api_objects.c:72
    1da0:	2a1303e0 	mov	w0, w19
    1da4:	f9400bf3 	ldr	x19, [sp, #16]
    1da8:	a8c27bfd 	ldp	x29, x30, [sp], #32
    1dac:	d65f03c0 	ret

0000000000001db0 <TEE_RestrictObjectUsage1>:
TEE_RestrictObjectUsage1():
/home/nk/optee/optee_os/lib/libutee/tee_api_objects.c:96
    1db0:	a9be7bfd 	stp	x29, x30, [sp, #-32]!
/home/nk/optee/optee_os/lib/libutee/tee_api_objects.c:99
    1db4:	2a0103e1 	mov	w1, w1
/home/nk/optee/optee_os/lib/libutee/tee_api_objects.c:96
    1db8:	910003fd 	mov	x29, sp
    1dbc:	f9000bf3 	str	x19, [sp, #16]
/home/nk/optee/optee_os/lib/libutee/tee_api_objects.c:99
    1dc0:	940003b1 	bl	2c84 <_utee_cryp_obj_restrict_usage>
/home/nk/optee/optee_os/lib/libutee/tee_api_objects.c:102
    1dc4:	52800021 	mov	w1, #0x1                   	// #1
/home/nk/optee/optee_os/lib/libutee/tee_api_objects.c:103
    1dc8:	121e7802 	and	w2, w0, #0xfffffffd
/home/nk/optee/optee_os/lib/libutee/tee_api_objects.c:102
    1dcc:	7100001f 	cmp	w0, #0x0
    1dd0:	72be0201 	movk	w1, #0xf010, lsl #16
/home/nk/optee/optee_os/lib/libutee/tee_api_objects.c:99
    1dd4:	2a0003f3 	mov	w19, w0
/home/nk/optee/optee_os/lib/libutee/tee_api_objects.c:102
    1dd8:	7a411044 	ccmp	w2, w1, #0x4, ne  // ne = any
    1ddc:	54000040 	b.eq	1de4 <TEE_RestrictObjectUsage1+0x34>  // b.none
/home/nk/optee/optee_os/lib/libutee/tee_api_objects.c:105
    1de0:	940002f7 	bl	29bc <TEE_Panic>
/home/nk/optee/optee_os/lib/libutee/tee_api_objects.c:108
    1de4:	2a1303e0 	mov	w0, w19
    1de8:	f9400bf3 	ldr	x19, [sp, #16]
    1dec:	a8c27bfd 	ldp	x29, x30, [sp], #32
    1df0:	d65f03c0 	ret

0000000000001df4 <TEE_RestrictObjectUsage>:
TEE_RestrictObjectUsage():
/home/nk/optee/optee_os/lib/libutee/tee_api_objects.c:81
    1df4:	a9bc7bfd 	stp	x29, x30, [sp, #-64]!
    1df8:	910003fd 	mov	x29, sp
    1dfc:	a90153f3 	stp	x19, x20, [sp, #16]
    1e00:	aa0003f3 	mov	x19, x0
    1e04:	2a0103f4 	mov	w20, w1
/home/nk/optee/optee_os/lib/libutee/tee_api_objects.c:85
    1e08:	910083e1 	add	x1, sp, #0x20
    1e0c:	9400039b 	bl	2c78 <_utee_cryp_obj_get_info>
/home/nk/optee/optee_os/lib/libutee/tee_api_objects.c:86
    1e10:	b94023e1 	ldr	w1, [sp, #32]
    1e14:	528017c0 	mov	w0, #0xbe                  	// #190
    1e18:	72b40000 	movk	w0, #0xa000, lsl #16
    1e1c:	6b00003f 	cmp	w1, w0
    1e20:	540000c0 	b.eq	1e38 <TEE_RestrictObjectUsage+0x44>  // b.none
/home/nk/optee/optee_os/lib/libutee/tee_api_objects.c:89
    1e24:	2a1403e1 	mov	w1, w20
    1e28:	aa1303e0 	mov	x0, x19
    1e2c:	97ffffe1 	bl	1db0 <TEE_RestrictObjectUsage1>
/home/nk/optee/optee_os/lib/libutee/tee_api_objects.c:91
    1e30:	34000040 	cbz	w0, 1e38 <TEE_RestrictObjectUsage+0x44>
/home/nk/optee/optee_os/lib/libutee/tee_api_objects.c:92
    1e34:	940002e2 	bl	29bc <TEE_Panic>
/home/nk/optee/optee_os/lib/libutee/tee_api_objects.c:93
    1e38:	a94153f3 	ldp	x19, x20, [sp, #16]
    1e3c:	a8c47bfd 	ldp	x29, x30, [sp], #64
    1e40:	d65f03c0 	ret

0000000000001e44 <TEE_GetObjectBufferAttribute>:
TEE_GetObjectBufferAttribute():
/home/nk/optee/optee_os/lib/libutee/tee_api_objects.c:113
    1e44:	a9b97bfd 	stp	x29, x30, [sp, #-112]!
    1e48:	910003fd 	mov	x29, sp
    1e4c:	a90153f3 	stp	x19, x20, [sp, #16]
    1e50:	aa0303f4 	mov	x20, x3
    1e54:	a9025bf5 	stp	x21, x22, [sp, #32]
    1e58:	aa0003f6 	mov	x22, x0
    1e5c:	2a0103f5 	mov	w21, w1
/home/nk/optee/optee_os/lib/libutee/tee_api_objects.c:118
    1e60:	910143e1 	add	x1, sp, #0x50
/home/nk/optee/optee_os/lib/libutee/tee_api_objects.c:113
    1e64:	f9001fe2 	str	x2, [sp, #56]
/home/nk/optee/optee_os/lib/libutee/tee_api_objects.c:118
    1e68:	94000384 	bl	2c78 <_utee_cryp_obj_get_info>
    1e6c:	2a0003f3 	mov	w19, w0
/home/nk/optee/optee_os/lib/libutee/tee_api_objects.c:119
    1e70:	35000180 	cbnz	w0, 1ea0 <TEE_GetObjectBufferAttribute+0x5c>
/home/nk/optee/optee_os/lib/libutee/tee_api_objects.c:123
    1e74:	37e803b5 	tbnz	w21, #29, 1ee8 <TEE_GetObjectBufferAttribute+0xa4>
/home/nk/optee/optee_os/lib/libutee/tee_api_objects.c:129
    1e78:	f9401fe2 	ldr	x2, [sp, #56]
    1e7c:	910123e3 	add	x3, sp, #0x48
/home/nk/optee/optee_os/lib/libutee/tee_api_objects.c:128
    1e80:	b9400280 	ldr	w0, [x20]
/home/nk/optee/optee_os/lib/libutee/tee_api_objects.c:129
    1e84:	2a1503e1 	mov	w1, w21
/home/nk/optee/optee_os/lib/libutee/tee_api_objects.c:128
    1e88:	f90027e0 	str	x0, [sp, #72]
/home/nk/optee/optee_os/lib/libutee/tee_api_objects.c:129
    1e8c:	aa1603e0 	mov	x0, x22
    1e90:	94000380 	bl	2c90 <_utee_cryp_obj_get_attr>
    1e94:	2a0003f3 	mov	w19, w0
/home/nk/optee/optee_os/lib/libutee/tee_api_objects.c:131
    1e98:	f94027e0 	ldr	x0, [sp, #72]
    1e9c:	b9000280 	str	w0, [x20]
/home/nk/optee/optee_os/lib/libutee/tee_api_objects.c:134
    1ea0:	7100027f 	cmp	w19, #0x0
    1ea4:	129ffee0 	mov	w0, #0xffff0008            	// #-65528
    1ea8:	7a401264 	ccmp	w19, w0, #0x4, ne  // ne = any
    1eac:	54000140 	b.eq	1ed4 <TEE_GetObjectBufferAttribute+0x90>  // b.none
/home/nk/optee/optee_os/lib/libutee/tee_api_objects.c:137
    1eb0:	121e7a61 	and	w1, w19, #0xfffffffd
/home/nk/optee/optee_os/lib/libutee/tee_api_objects.c:136
    1eb4:	52800020 	mov	w0, #0x1                   	// #1
    1eb8:	72be0200 	movk	w0, #0xf010, lsl #16
    1ebc:	6b00003f 	cmp	w1, w0
    1ec0:	129ffde0 	mov	w0, #0xffff0010            	// #-65520
    1ec4:	7a401264 	ccmp	w19, w0, #0x4, ne  // ne = any
    1ec8:	54000060 	b.eq	1ed4 <TEE_GetObjectBufferAttribute+0x90>  // b.none
/home/nk/optee/optee_os/lib/libutee/tee_api_objects.c:139
    1ecc:	2a1303e0 	mov	w0, w19
    1ed0:	940002bb 	bl	29bc <TEE_Panic>
/home/nk/optee/optee_os/lib/libutee/tee_api_objects.c:142
    1ed4:	2a1303e0 	mov	w0, w19
    1ed8:	a94153f3 	ldp	x19, x20, [sp, #16]
    1edc:	a9425bf5 	ldp	x21, x22, [sp, #32]
    1ee0:	a8c77bfd 	ldp	x29, x30, [sp], #112
    1ee4:	d65f03c0 	ret
/home/nk/optee/optee_os/lib/libutee/tee_api_objects.c:124
    1ee8:	129fff33 	mov	w19, #0xffff0006            	// #-65530
    1eec:	17ffffed 	b	1ea0 <TEE_GetObjectBufferAttribute+0x5c>

0000000000001ef0 <TEE_GetObjectValueAttribute>:
TEE_GetObjectValueAttribute():
/home/nk/optee/optee_os/lib/libutee/tee_api_objects.c:147
    1ef0:	a9b97bfd 	stp	x29, x30, [sp, #-112]!
    1ef4:	910003fd 	mov	x29, sp
    1ef8:	a9025bf5 	stp	x21, x22, [sp, #32]
    1efc:	2a0103f6 	mov	w22, w1
/home/nk/optee/optee_os/lib/libutee/tee_api_objects.c:151
    1f00:	d2800101 	mov	x1, #0x8                   	// #8
/home/nk/optee/optee_os/lib/libutee/tee_api_objects.c:147
    1f04:	aa0203f5 	mov	x21, x2
    1f08:	a90153f3 	stp	x19, x20, [sp, #16]
    1f0c:	aa0303f4 	mov	x20, x3
    1f10:	f9001bf7 	str	x23, [sp, #48]
    1f14:	aa0003f7 	mov	x23, x0
/home/nk/optee/optee_os/lib/libutee/tee_api_objects.c:151
    1f18:	f90027e1 	str	x1, [sp, #72]
/home/nk/optee/optee_os/lib/libutee/tee_api_objects.c:153
    1f1c:	910143e1 	add	x1, sp, #0x50
    1f20:	94000356 	bl	2c78 <_utee_cryp_obj_get_info>
    1f24:	2a0003f3 	mov	w19, w0
/home/nk/optee/optee_os/lib/libutee/tee_api_objects.c:154
    1f28:	35000100 	cbnz	w0, 1f48 <TEE_GetObjectValueAttribute+0x58>
/home/nk/optee/optee_os/lib/libutee/tee_api_objects.c:158
    1f2c:	36e80496 	tbz	w22, #29, 1fbc <TEE_GetObjectValueAttribute+0xcc>
/home/nk/optee/optee_os/lib/libutee/tee_api_objects.c:163
    1f30:	910123e3 	add	x3, sp, #0x48
    1f34:	910103e2 	add	x2, sp, #0x40
    1f38:	2a1603e1 	mov	w1, w22
    1f3c:	aa1703e0 	mov	x0, x23
    1f40:	94000354 	bl	2c90 <_utee_cryp_obj_get_attr>
    1f44:	2a0003f3 	mov	w19, w0
/home/nk/optee/optee_os/lib/libutee/tee_api_objects.c:167
    1f48:	7100027f 	cmp	w19, #0x0
    1f4c:	129ffee0 	mov	w0, #0xffff0008            	// #-65528
    1f50:	7a401264 	ccmp	w19, w0, #0x4, ne  // ne = any
    1f54:	54000100 	b.eq	1f74 <TEE_GetObjectValueAttribute+0x84>  // b.none
/home/nk/optee/optee_os/lib/libutee/tee_api_objects.c:169
    1f58:	121e7a61 	and	w1, w19, #0xfffffffd
    1f5c:	52800020 	mov	w0, #0x1                   	// #1
    1f60:	72be0200 	movk	w0, #0xf010, lsl #16
    1f64:	6b00003f 	cmp	w1, w0
    1f68:	54000060 	b.eq	1f74 <TEE_GetObjectValueAttribute+0x84>  // b.none
/home/nk/optee/optee_os/lib/libutee/tee_api_objects.c:171
    1f6c:	2a1303e0 	mov	w0, w19
    1f70:	94000293 	bl	29bc <TEE_Panic>
/home/nk/optee/optee_os/lib/libutee/tee_api_objects.c:173
    1f74:	f94027e0 	ldr	x0, [sp, #72]
    1f78:	f100201f 	cmp	x0, #0x8
    1f7c:	54000060 	b.eq	1f88 <TEE_GetObjectValueAttribute+0x98>  // b.none
/home/nk/optee/optee_os/lib/libutee/tee_api_objects.c:174
    1f80:	52800000 	mov	w0, #0x0                   	// #0
    1f84:	9400028e 	bl	29bc <TEE_Panic>
/home/nk/optee/optee_os/lib/libutee/tee_api_objects.c:176
    1f88:	350000f3 	cbnz	w19, 1fa4 <TEE_GetObjectValueAttribute+0xb4>
/home/nk/optee/optee_os/lib/libutee/tee_api_objects.c:177
    1f8c:	b4000075 	cbz	x21, 1f98 <TEE_GetObjectValueAttribute+0xa8>
/home/nk/optee/optee_os/lib/libutee/tee_api_objects.c:178
    1f90:	b94043e0 	ldr	w0, [sp, #64]
    1f94:	b90002a0 	str	w0, [x21]
/home/nk/optee/optee_os/lib/libutee/tee_api_objects.c:179
    1f98:	b4000074 	cbz	x20, 1fa4 <TEE_GetObjectValueAttribute+0xb4>
/home/nk/optee/optee_os/lib/libutee/tee_api_objects.c:180
    1f9c:	b94047e0 	ldr	w0, [sp, #68]
    1fa0:	b9000280 	str	w0, [x20]
/home/nk/optee/optee_os/lib/libutee/tee_api_objects.c:184
    1fa4:	2a1303e0 	mov	w0, w19
    1fa8:	a94153f3 	ldp	x19, x20, [sp, #16]
    1fac:	a9425bf5 	ldp	x21, x22, [sp, #32]
    1fb0:	f9401bf7 	ldr	x23, [sp, #48]
    1fb4:	a8c77bfd 	ldp	x29, x30, [sp], #112
    1fb8:	d65f03c0 	ret
/home/nk/optee/optee_os/lib/libutee/tee_api_objects.c:159
    1fbc:	129fff33 	mov	w19, #0xffff0006            	// #-65530
    1fc0:	17ffffe2 	b	1f48 <TEE_GetObjectValueAttribute+0x58>

0000000000001fc4 <TEE_CloseObject>:
TEE_CloseObject():
/home/nk/optee/optee_os/lib/libutee/tee_api_objects.c:190
    1fc4:	b4000120 	cbz	x0, 1fe8 <TEE_CloseObject+0x24>
/home/nk/optee/optee_os/lib/libutee/tee_api_objects.c:187
    1fc8:	a9bf7bfd 	stp	x29, x30, [sp, #-16]!
    1fcc:	910003fd 	mov	x29, sp
/home/nk/optee/optee_os/lib/libutee/tee_api_objects.c:193
    1fd0:	94000336 	bl	2ca8 <_utee_cryp_obj_close>
/home/nk/optee/optee_os/lib/libutee/tee_api_objects.c:194
    1fd4:	34000060 	cbz	w0, 1fe0 <TEE_CloseObject+0x1c>
/home/nk/optee/optee_os/lib/libutee/tee_api_objects.c:196
    1fd8:	a8c17bfd 	ldp	x29, x30, [sp], #16
/home/nk/optee/optee_os/lib/libutee/tee_api_objects.c:195
    1fdc:	14000278 	b	29bc <TEE_Panic>
/home/nk/optee/optee_os/lib/libutee/tee_api_objects.c:196
    1fe0:	a8c17bfd 	ldp	x29, x30, [sp], #16
    1fe4:	d65f03c0 	ret
    1fe8:	d65f03c0 	ret

0000000000001fec <TEE_AllocateTransientObject>:
TEE_AllocateTransientObject():
/home/nk/optee/optee_os/lib/libutee/tee_api_objects.c:203
    1fec:	a9bd7bfd 	stp	x29, x30, [sp, #-48]!
/home/nk/optee/optee_os/lib/libutee/tee_api_objects.c:207
    1ff0:	2a0103e1 	mov	w1, w1
    1ff4:	2a0003e0 	mov	w0, w0
/home/nk/optee/optee_os/lib/libutee/tee_api_objects.c:203
    1ff8:	910003fd 	mov	x29, sp
    1ffc:	a90153f3 	stp	x19, x20, [sp, #16]
    2000:	aa0203f4 	mov	x20, x2
/home/nk/optee/optee_os/lib/libutee/tee_api_objects.c:207
    2004:	9100b3e2 	add	x2, sp, #0x2c
    2008:	94000325 	bl	2c9c <_utee_cryp_obj_alloc>
/home/nk/optee/optee_os/lib/libutee/tee_api_objects.c:209
    200c:	7100001f 	cmp	w0, #0x0
    2010:	129ffe61 	mov	w1, #0xffff000c            	// #-65524
/home/nk/optee/optee_os/lib/libutee/tee_api_objects.c:207
    2014:	2a0003f3 	mov	w19, w0
/home/nk/optee/optee_os/lib/libutee/tee_api_objects.c:209
    2018:	7a411004 	ccmp	w0, w1, #0x4, ne  // ne = any
    201c:	54000120 	b.eq	2040 <TEE_AllocateTransientObject+0x54>  // b.none
/home/nk/optee/optee_os/lib/libutee/tee_api_objects.c:210
    2020:	129ffea1 	mov	w1, #0xffff000a            	// #-65526
    2024:	6b01001f 	cmp	w0, w1
    2028:	54000040 	b.eq	2030 <TEE_AllocateTransientObject+0x44>  // b.none
/home/nk/optee/optee_os/lib/libutee/tee_api_objects.c:212
    202c:	94000264 	bl	29bc <TEE_Panic>
/home/nk/optee/optee_os/lib/libutee/tee_api_objects.c:218
    2030:	2a1303e0 	mov	w0, w19
    2034:	a94153f3 	ldp	x19, x20, [sp, #16]
    2038:	a8c37bfd 	ldp	x29, x30, [sp], #48
    203c:	d65f03c0 	ret
/home/nk/optee/optee_os/lib/libutee/tee_api_objects.c:214
    2040:	35ffff80 	cbnz	w0, 2030 <TEE_AllocateTransientObject+0x44>
/home/nk/optee/optee_os/lib/libutee/tee_api_objects.c:215
    2044:	b9402fe0 	ldr	w0, [sp, #44]
    2048:	f9000280 	str	x0, [x20]
/home/nk/optee/optee_os/lib/libutee/tee_api_objects.c:217
    204c:	17fffff9 	b	2030 <TEE_AllocateTransientObject+0x44>

0000000000002050 <TEE_FreeTransientObject>:
TEE_FreeTransientObject():
/home/nk/optee/optee_os/lib/libutee/tee_api_objects.c:225
    2050:	b4000280 	cbz	x0, 20a0 <TEE_FreeTransientObject+0x50>
/home/nk/optee/optee_os/lib/libutee/tee_api_objects.c:221
    2054:	a9bc7bfd 	stp	x29, x30, [sp, #-64]!
    2058:	910003fd 	mov	x29, sp
/home/nk/optee/optee_os/lib/libutee/tee_api_objects.c:228
    205c:	910083e1 	add	x1, sp, #0x20
/home/nk/optee/optee_os/lib/libutee/tee_api_objects.c:221
    2060:	f9000bf3 	str	x19, [sp, #16]
    2064:	aa0003f3 	mov	x19, x0
/home/nk/optee/optee_os/lib/libutee/tee_api_objects.c:228
    2068:	94000304 	bl	2c78 <_utee_cryp_obj_get_info>
/home/nk/optee/optee_os/lib/libutee/tee_api_objects.c:229
    206c:	34000040 	cbz	w0, 2074 <TEE_FreeTransientObject+0x24>
/home/nk/optee/optee_os/lib/libutee/tee_api_objects.c:230
    2070:	94000253 	bl	29bc <TEE_Panic>
/home/nk/optee/optee_os/lib/libutee/tee_api_objects.c:232
    2074:	b9403be0 	ldr	w0, [sp, #56]
    2078:	36800060 	tbz	w0, #16, 2084 <TEE_FreeTransientObject+0x34>
/home/nk/optee/optee_os/lib/libutee/tee_api_objects.c:233
    207c:	52800000 	mov	w0, #0x0                   	// #0
    2080:	9400024f 	bl	29bc <TEE_Panic>
/home/nk/optee/optee_os/lib/libutee/tee_api_objects.c:235
    2084:	aa1303e0 	mov	x0, x19
    2088:	94000308 	bl	2ca8 <_utee_cryp_obj_close>
/home/nk/optee/optee_os/lib/libutee/tee_api_objects.c:236
    208c:	34000040 	cbz	w0, 2094 <TEE_FreeTransientObject+0x44>
/home/nk/optee/optee_os/lib/libutee/tee_api_objects.c:237
    2090:	9400024b 	bl	29bc <TEE_Panic>
/home/nk/optee/optee_os/lib/libutee/tee_api_objects.c:238
    2094:	f9400bf3 	ldr	x19, [sp, #16]
    2098:	a8c47bfd 	ldp	x29, x30, [sp], #64
    209c:	d65f03c0 	ret
    20a0:	d65f03c0 	ret

00000000000020a4 <TEE_ResetTransientObject>:
TEE_ResetTransientObject():
/home/nk/optee/optee_os/lib/libutee/tee_api_objects.c:245
    20a4:	b4000280 	cbz	x0, 20f4 <TEE_ResetTransientObject+0x50>
/home/nk/optee/optee_os/lib/libutee/tee_api_objects.c:241
    20a8:	a9bc7bfd 	stp	x29, x30, [sp, #-64]!
    20ac:	910003fd 	mov	x29, sp
/home/nk/optee/optee_os/lib/libutee/tee_api_objects.c:248
    20b0:	910083e1 	add	x1, sp, #0x20
/home/nk/optee/optee_os/lib/libutee/tee_api_objects.c:241
    20b4:	f9000bf3 	str	x19, [sp, #16]
    20b8:	aa0003f3 	mov	x19, x0
/home/nk/optee/optee_os/lib/libutee/tee_api_objects.c:248
    20bc:	940002ef 	bl	2c78 <_utee_cryp_obj_get_info>
/home/nk/optee/optee_os/lib/libutee/tee_api_objects.c:249
    20c0:	34000040 	cbz	w0, 20c8 <TEE_ResetTransientObject+0x24>
/home/nk/optee/optee_os/lib/libutee/tee_api_objects.c:250
    20c4:	9400023e 	bl	29bc <TEE_Panic>
/home/nk/optee/optee_os/lib/libutee/tee_api_objects.c:252
    20c8:	b9403be0 	ldr	w0, [sp, #56]
    20cc:	36800060 	tbz	w0, #16, 20d8 <TEE_ResetTransientObject+0x34>
/home/nk/optee/optee_os/lib/libutee/tee_api_objects.c:253
    20d0:	52800000 	mov	w0, #0x0                   	// #0
    20d4:	9400023a 	bl	29bc <TEE_Panic>
/home/nk/optee/optee_os/lib/libutee/tee_api_objects.c:255
    20d8:	aa1303e0 	mov	x0, x19
    20dc:	940002f6 	bl	2cb4 <_utee_cryp_obj_reset>
/home/nk/optee/optee_os/lib/libutee/tee_api_objects.c:256
    20e0:	34000040 	cbz	w0, 20e8 <TEE_ResetTransientObject+0x44>
/home/nk/optee/optee_os/lib/libutee/tee_api_objects.c:257
    20e4:	94000236 	bl	29bc <TEE_Panic>
/home/nk/optee/optee_os/lib/libutee/tee_api_objects.c:258
    20e8:	f9400bf3 	ldr	x19, [sp, #16]
    20ec:	a8c47bfd 	ldp	x29, x30, [sp], #64
    20f0:	d65f03c0 	ret
    20f4:	d65f03c0 	ret

00000000000020f8 <TEE_PopulateTransientObject>:
TEE_PopulateTransientObject():
/home/nk/optee/optee_os/lib/libutee/tee_api_objects.c:263
    20f8:	a9ba7bfd 	stp	x29, x30, [sp, #-96]!
    20fc:	910003fd 	mov	x29, sp
    2100:	a9025bf5 	stp	x21, x22, [sp, #32]
    2104:	2a0203f6 	mov	w22, w2
    2108:	aa0003f5 	mov	x21, x0
    210c:	f9001bf7 	str	x23, [sp, #48]
    2110:	aa0103f7 	mov	x23, x1
/home/nk/optee/optee_os/lib/libutee/tee_api_objects.c:266
    2114:	52800301 	mov	w1, #0x18                  	// #24
/home/nk/optee/optee_os/lib/libutee/tee_api_objects.c:263
    2118:	a90153f3 	stp	x19, x20, [sp, #16]
    211c:	aa1603f3 	mov	x19, x22
/home/nk/optee/optee_os/lib/libutee/tee_api_objects.c:266
    2120:	9ba17ec1 	umull	x1, w22, w1
    2124:	91003c21 	add	x1, x1, #0xf
    2128:	927c8421 	and	x1, x1, #0x3ffffffff0
    212c:	cb2163ff 	sub	sp, sp, x1
/home/nk/optee/optee_os/lib/libutee/tee_api_objects.c:268
    2130:	910103a1 	add	x1, x29, #0x40
/home/nk/optee/optee_os/lib/libutee/tee_api_objects.c:266
    2134:	910003f4 	mov	x20, sp
/home/nk/optee/optee_os/lib/libutee/tee_api_objects.c:268
    2138:	940002d0 	bl	2c78 <_utee_cryp_obj_get_info>
/home/nk/optee/optee_os/lib/libutee/tee_api_objects.c:269
    213c:	34000040 	cbz	w0, 2144 <TEE_PopulateTransientObject+0x4c>
/home/nk/optee/optee_os/lib/libutee/tee_api_objects.c:270
    2140:	9400021f 	bl	29bc <TEE_Panic>
/home/nk/optee/optee_os/lib/libutee/tee_api_objects.c:273
    2144:	b9405ba0 	ldr	w0, [x29, #88]
    2148:	36800060 	tbz	w0, #16, 2154 <TEE_PopulateTransientObject+0x5c>
/home/nk/optee/optee_os/lib/libutee/tee_api_objects.c:274
    214c:	52800000 	mov	w0, #0x0                   	// #0
    2150:	9400021b 	bl	29bc <TEE_Panic>
/home/nk/optee/optee_os/lib/libutee/tee_api_objects.c:277
    2154:	b9405ba0 	ldr	w0, [x29, #88]
    2158:	36880060 	tbz	w0, #17, 2164 <TEE_PopulateTransientObject+0x6c>
/home/nk/optee/optee_os/lib/libutee/tee_api_objects.c:278
    215c:	52800000 	mov	w0, #0x0                   	// #0
    2160:	94000217 	bl	29bc <TEE_Panic>
/home/nk/optee/optee_os/lib/libutee/tee_api_objects.c:280
    2164:	2a1303e2 	mov	w2, w19
    2168:	aa1703e1 	mov	x1, x23
    216c:	aa1403e0 	mov	x0, x20
    2170:	97fffeda 	bl	1cd8 <__utee_from_attr>
/home/nk/optee/optee_os/lib/libutee/tee_api_objects.c:281
    2174:	aa1403e1 	mov	x1, x20
    2178:	aa1603e2 	mov	x2, x22
    217c:	aa1503e0 	mov	x0, x21
    2180:	940002d0 	bl	2cc0 <_utee_cryp_obj_populate>
/home/nk/optee/optee_os/lib/libutee/tee_api_objects.c:282
    2184:	7100001f 	cmp	w0, #0x0
    2188:	129fff21 	mov	w1, #0xffff0006            	// #-65530
/home/nk/optee/optee_os/lib/libutee/tee_api_objects.c:281
    218c:	2a0003f3 	mov	w19, w0
/home/nk/optee/optee_os/lib/libutee/tee_api_objects.c:282
    2190:	7a411004 	ccmp	w0, w1, #0x4, ne  // ne = any
    2194:	54000040 	b.eq	219c <TEE_PopulateTransientObject+0xa4>  // b.none
/home/nk/optee/optee_os/lib/libutee/tee_api_objects.c:283
    2198:	94000209 	bl	29bc <TEE_Panic>
/home/nk/optee/optee_os/lib/libutee/tee_api_objects.c:285
    219c:	910003bf 	mov	sp, x29
    21a0:	2a1303e0 	mov	w0, w19
    21a4:	a94153f3 	ldp	x19, x20, [sp, #16]
    21a8:	a9425bf5 	ldp	x21, x22, [sp, #32]
    21ac:	f9401bf7 	ldr	x23, [sp, #48]
    21b0:	a8c67bfd 	ldp	x29, x30, [sp], #96
    21b4:	d65f03c0 	ret

00000000000021b8 <TEE_InitRefAttribute>:
TEE_InitRefAttribute():
/home/nk/optee/optee_os/lib/libutee/tee_api_objects.c:289
    21b8:	a9bd7bfd 	stp	x29, x30, [sp, #-48]!
    21bc:	910003fd 	mov	x29, sp
    21c0:	a90153f3 	stp	x19, x20, [sp, #16]
    21c4:	aa0003f3 	mov	x19, x0
    21c8:	2a0103f4 	mov	w20, w1
    21cc:	a9025bf5 	stp	x21, x22, [sp, #32]
    21d0:	aa0203f6 	mov	x22, x2
    21d4:	2a0303f5 	mov	w21, w3
/home/nk/optee/optee_os/lib/libutee/tee_api_objects.c:290
    21d8:	b5000060 	cbnz	x0, 21e4 <TEE_InitRefAttribute+0x2c>
/home/nk/optee/optee_os/lib/libutee/tee_api_objects.c:291
    21dc:	52800000 	mov	w0, #0x0                   	// #0
    21e0:	940001f7 	bl	29bc <TEE_Panic>
/home/nk/optee/optee_os/lib/libutee/tee_api_objects.c:292
    21e4:	36e80074 	tbz	w20, #29, 21f0 <TEE_InitRefAttribute+0x38>
/home/nk/optee/optee_os/lib/libutee/tee_api_objects.c:293
    21e8:	52800000 	mov	w0, #0x0                   	// #0
    21ec:	940001f4 	bl	29bc <TEE_Panic>
/home/nk/optee/optee_os/lib/libutee/tee_api_objects.c:294
    21f0:	b9000274 	str	w20, [x19]
/home/nk/optee/optee_os/lib/libutee/tee_api_objects.c:295
    21f4:	f9000676 	str	x22, [x19, #8]
/home/nk/optee/optee_os/lib/libutee/tee_api_objects.c:296
    21f8:	b9001275 	str	w21, [x19, #16]
/home/nk/optee/optee_os/lib/libutee/tee_api_objects.c:297
    21fc:	a94153f3 	ldp	x19, x20, [sp, #16]
    2200:	a9425bf5 	ldp	x21, x22, [sp, #32]
    2204:	a8c37bfd 	ldp	x29, x30, [sp], #48
    2208:	d65f03c0 	ret

000000000000220c <TEE_InitValueAttribute>:
TEE_InitValueAttribute():
/home/nk/optee/optee_os/lib/libutee/tee_api_objects.c:301
    220c:	a9bd7bfd 	stp	x29, x30, [sp, #-48]!
    2210:	910003fd 	mov	x29, sp
    2214:	a90153f3 	stp	x19, x20, [sp, #16]
    2218:	aa0003f3 	mov	x19, x0
    221c:	2a0103f4 	mov	w20, w1
    2220:	a9025bf5 	stp	x21, x22, [sp, #32]
    2224:	2a0203f6 	mov	w22, w2
    2228:	2a0303f5 	mov	w21, w3
/home/nk/optee/optee_os/lib/libutee/tee_api_objects.c:302
    222c:	b5000060 	cbnz	x0, 2238 <TEE_InitValueAttribute+0x2c>
/home/nk/optee/optee_os/lib/libutee/tee_api_objects.c:303
    2230:	52800000 	mov	w0, #0x0                   	// #0
    2234:	940001e2 	bl	29bc <TEE_Panic>
/home/nk/optee/optee_os/lib/libutee/tee_api_objects.c:304
    2238:	37e80074 	tbnz	w20, #29, 2244 <TEE_InitValueAttribute+0x38>
/home/nk/optee/optee_os/lib/libutee/tee_api_objects.c:305
    223c:	52800000 	mov	w0, #0x0                   	// #0
    2240:	940001df 	bl	29bc <TEE_Panic>
/home/nk/optee/optee_os/lib/libutee/tee_api_objects.c:306
    2244:	b9000274 	str	w20, [x19]
/home/nk/optee/optee_os/lib/libutee/tee_api_objects.c:308
    2248:	29015676 	stp	w22, w21, [x19, #8]
/home/nk/optee/optee_os/lib/libutee/tee_api_objects.c:309
    224c:	a94153f3 	ldp	x19, x20, [sp, #16]
    2250:	a9425bf5 	ldp	x21, x22, [sp, #32]
    2254:	a8c37bfd 	ldp	x29, x30, [sp], #48
    2258:	d65f03c0 	ret

000000000000225c <TEE_CopyObjectAttributes1>:
TEE_CopyObjectAttributes1():
/home/nk/optee/optee_os/lib/libutee/tee_api_objects.c:334
    225c:	a9b97bfd 	stp	x29, x30, [sp, #-112]!
    2260:	910003fd 	mov	x29, sp
    2264:	a90153f3 	stp	x19, x20, [sp, #16]
    2268:	aa0103f4 	mov	x20, x1
/home/nk/optee/optee_os/lib/libutee/tee_api_objects.c:339
    226c:	9100c3e1 	add	x1, sp, #0x30
/home/nk/optee/optee_os/lib/libutee/tee_api_objects.c:334
    2270:	f90013f5 	str	x21, [sp, #32]
    2274:	aa0003f5 	mov	x21, x0
/home/nk/optee/optee_os/lib/libutee/tee_api_objects.c:339
    2278:	94000280 	bl	2c78 <_utee_cryp_obj_get_info>
    227c:	2a0003f3 	mov	w19, w0
/home/nk/optee/optee_os/lib/libutee/tee_api_objects.c:340
    2280:	350002a0 	cbnz	w0, 22d4 <TEE_CopyObjectAttributes1+0x78>
/home/nk/optee/optee_os/lib/libutee/tee_api_objects.c:343
    2284:	910143e1 	add	x1, sp, #0x50
    2288:	aa1403e0 	mov	x0, x20
    228c:	9400027b 	bl	2c78 <_utee_cryp_obj_get_info>
    2290:	2a0003f3 	mov	w19, w0
/home/nk/optee/optee_os/lib/libutee/tee_api_objects.c:344
    2294:	35000200 	cbnz	w0, 22d4 <TEE_CopyObjectAttributes1+0x78>
/home/nk/optee/optee_os/lib/libutee/tee_api_objects.c:347
    2298:	b9406be1 	ldr	w1, [sp, #104]
    229c:	37880041 	tbnz	w1, #17, 22a4 <TEE_CopyObjectAttributes1+0x48>
/home/nk/optee/optee_os/lib/libutee/tee_api_objects.c:348
    22a0:	940001c7 	bl	29bc <TEE_Panic>
/home/nk/optee/optee_os/lib/libutee/tee_api_objects.c:350
    22a4:	b9404be0 	ldr	w0, [sp, #72]
    22a8:	36800060 	tbz	w0, #16, 22b4 <TEE_CopyObjectAttributes1+0x58>
/home/nk/optee/optee_os/lib/libutee/tee_api_objects.c:351
    22ac:	52800000 	mov	w0, #0x0                   	// #0
    22b0:	940001c3 	bl	29bc <TEE_Panic>
/home/nk/optee/optee_os/lib/libutee/tee_api_objects.c:353
    22b4:	b9404be0 	ldr	w0, [sp, #72]
    22b8:	36880060 	tbz	w0, #17, 22c4 <TEE_CopyObjectAttributes1+0x68>
/home/nk/optee/optee_os/lib/libutee/tee_api_objects.c:354
    22bc:	52800000 	mov	w0, #0x0                   	// #0
    22c0:	940001bf 	bl	29bc <TEE_Panic>
/home/nk/optee/optee_os/lib/libutee/tee_api_objects.c:356
    22c4:	aa1403e1 	mov	x1, x20
    22c8:	aa1503e0 	mov	x0, x21
    22cc:	94000280 	bl	2ccc <_utee_cryp_obj_copy>
    22d0:	2a0003f3 	mov	w19, w0
/home/nk/optee/optee_os/lib/libutee/tee_api_objects.c:361
    22d4:	121e7a60 	and	w0, w19, #0xfffffffd
/home/nk/optee/optee_os/lib/libutee/tee_api_objects.c:360
    22d8:	7100027f 	cmp	w19, #0x0
    22dc:	52800021 	mov	w1, #0x1                   	// #1
    22e0:	72be0201 	movk	w1, #0xf010, lsl #16
    22e4:	7a411004 	ccmp	w0, w1, #0x4, ne  // ne = any
    22e8:	54000060 	b.eq	22f4 <TEE_CopyObjectAttributes1+0x98>  // b.none
/home/nk/optee/optee_os/lib/libutee/tee_api_objects.c:363
    22ec:	2a1303e0 	mov	w0, w19
    22f0:	940001b3 	bl	29bc <TEE_Panic>
/home/nk/optee/optee_os/lib/libutee/tee_api_objects.c:366
    22f4:	2a1303e0 	mov	w0, w19
    22f8:	a94153f3 	ldp	x19, x20, [sp, #16]
    22fc:	f94013f5 	ldr	x21, [sp, #32]
    2300:	a8c77bfd 	ldp	x29, x30, [sp], #112
    2304:	d65f03c0 	ret

0000000000002308 <TEE_CopyObjectAttributes>:
TEE_CopyObjectAttributes():
/home/nk/optee/optee_os/lib/libutee/tee_api_objects.c:319
    2308:	a9bc7bfd 	stp	x29, x30, [sp, #-64]!
    230c:	910003fd 	mov	x29, sp
    2310:	a90153f3 	stp	x19, x20, [sp, #16]
    2314:	aa0103f3 	mov	x19, x1
    2318:	aa0003f4 	mov	x20, x0
/home/nk/optee/optee_os/lib/libutee/tee_api_objects.c:323
    231c:	910083e1 	add	x1, sp, #0x20
    2320:	aa1303e0 	mov	x0, x19
    2324:	94000255 	bl	2c78 <_utee_cryp_obj_get_info>
/home/nk/optee/optee_os/lib/libutee/tee_api_objects.c:324
    2328:	b94023e1 	ldr	w1, [sp, #32]
    232c:	528017c0 	mov	w0, #0xbe                  	// #190
    2330:	72b40000 	movk	w0, #0xa000, lsl #16
    2334:	6b00003f 	cmp	w1, w0
    2338:	540000c0 	b.eq	2350 <TEE_CopyObjectAttributes+0x48>  // b.none
/home/nk/optee/optee_os/lib/libutee/tee_api_objects.c:327
    233c:	aa1303e1 	mov	x1, x19
    2340:	aa1403e0 	mov	x0, x20
    2344:	97ffffc6 	bl	225c <TEE_CopyObjectAttributes1>
/home/nk/optee/optee_os/lib/libutee/tee_api_objects.c:328
    2348:	34000040 	cbz	w0, 2350 <TEE_CopyObjectAttributes+0x48>
/home/nk/optee/optee_os/lib/libutee/tee_api_objects.c:329
    234c:	9400019c 	bl	29bc <TEE_Panic>
/home/nk/optee/optee_os/lib/libutee/tee_api_objects.c:330
    2350:	a94153f3 	ldp	x19, x20, [sp, #16]
    2354:	a8c47bfd 	ldp	x29, x30, [sp], #64
    2358:	d65f03c0 	ret

000000000000235c <TEE_GenerateKey>:
TEE_GenerateKey():
/home/nk/optee/optee_os/lib/libutee/tee_api_objects.c:370
    235c:	a9bd7bfd 	stp	x29, x30, [sp, #-48]!
    2360:	910003fd 	mov	x29, sp
    2364:	a9025bf5 	stp	x21, x22, [sp, #32]
    2368:	aa0003f5 	mov	x21, x0
/home/nk/optee/optee_os/lib/libutee/tee_api_objects.c:372
    236c:	52800300 	mov	w0, #0x18                  	// #24
/home/nk/optee/optee_os/lib/libutee/tee_api_objects.c:370
    2370:	a90153f3 	stp	x19, x20, [sp, #16]
    2374:	2a0103f6 	mov	w22, w1
/home/nk/optee/optee_os/lib/libutee/tee_api_objects.c:372
    2378:	9ba07c60 	umull	x0, w3, w0
/home/nk/optee/optee_os/lib/libutee/tee_api_objects.c:370
    237c:	2a0303f3 	mov	w19, w3
    2380:	aa0203e1 	mov	x1, x2
/home/nk/optee/optee_os/lib/libutee/tee_api_objects.c:372
    2384:	91003c00 	add	x0, x0, #0xf
/home/nk/optee/optee_os/lib/libutee/tee_api_objects.c:374
    2388:	2a0303e2 	mov	w2, w3
/home/nk/optee/optee_os/lib/libutee/tee_api_objects.c:372
    238c:	927c8400 	and	x0, x0, #0x3ffffffff0
    2390:	cb2063ff 	sub	sp, sp, x0
    2394:	910003f4 	mov	x20, sp
/home/nk/optee/optee_os/lib/libutee/tee_api_objects.c:374
    2398:	aa1403e0 	mov	x0, x20
    239c:	97fffe4f 	bl	1cd8 <__utee_from_attr>
/home/nk/optee/optee_os/lib/libutee/tee_api_objects.c:375
    23a0:	2a1303e3 	mov	w3, w19
    23a4:	2a1603e1 	mov	w1, w22
    23a8:	aa1403e2 	mov	x2, x20
    23ac:	aa1503e0 	mov	x0, x21
    23b0:	9400028c 	bl	2de0 <_utee_cryp_obj_generate_key>
/home/nk/optee/optee_os/lib/libutee/tee_api_objects.c:378
    23b4:	7100001f 	cmp	w0, #0x0
    23b8:	129fff21 	mov	w1, #0xffff0006            	// #-65530
/home/nk/optee/optee_os/lib/libutee/tee_api_objects.c:375
    23bc:	2a0003f3 	mov	w19, w0
/home/nk/optee/optee_os/lib/libutee/tee_api_objects.c:378
    23c0:	7a411004 	ccmp	w0, w1, #0x4, ne  // ne = any
    23c4:	54000040 	b.eq	23cc <TEE_GenerateKey+0x70>  // b.none
/home/nk/optee/optee_os/lib/libutee/tee_api_objects.c:379
    23c8:	9400017d 	bl	29bc <TEE_Panic>
/home/nk/optee/optee_os/lib/libutee/tee_api_objects.c:382
    23cc:	910003bf 	mov	sp, x29
    23d0:	2a1303e0 	mov	w0, w19
    23d4:	a94153f3 	ldp	x19, x20, [sp, #16]
    23d8:	a9425bf5 	ldp	x21, x22, [sp, #32]
    23dc:	a8c37bfd 	ldp	x29, x30, [sp], #48
    23e0:	d65f03c0 	ret

00000000000023e4 <TEE_OpenPersistentObject>:
TEE_OpenPersistentObject():
/home/nk/optee/optee_os/lib/libutee/tee_api_objects.c:389
    23e4:	a9bd7bfd 	stp	x29, x30, [sp, #-48]!
    23e8:	910003fd 	mov	x29, sp
    23ec:	a90153f3 	stp	x19, x20, [sp, #16]
    23f0:	aa0403f4 	mov	x20, x4
/home/nk/optee/optee_os/lib/libutee/tee_api_objects.c:393
    23f4:	b40003c1 	cbz	x1, 246c <TEE_OpenPersistentObject+0x88>
/home/nk/optee/optee_os/lib/libutee/tee_api_objects.c:398
    23f8:	7101005f 	cmp	w2, #0x40
    23fc:	540003c8 	b.hi	2474 <TEE_OpenPersistentObject+0x90>  // b.pmore
/home/nk/optee/optee_os/lib/libutee/tee_api_objects.c:403
    2400:	9100b3e4 	add	x4, sp, #0x2c
    2404:	2a0303e3 	mov	w3, w3
    2408:	2a0203e2 	mov	w2, w2
    240c:	2a0003e0 	mov	w0, w0
    2410:	9400024d 	bl	2d44 <_utee_storage_obj_open>
    2414:	2a0003f3 	mov	w19, w0
/home/nk/optee/optee_os/lib/libutee/tee_api_objects.c:405
    2418:	35000060 	cbnz	w0, 2424 <TEE_OpenPersistentObject+0x40>
/home/nk/optee/optee_os/lib/libutee/tee_api_objects.c:406
    241c:	b9402fe0 	ldr	w0, [sp, #44]
    2420:	f9000280 	str	x0, [x20]
/home/nk/optee/optee_os/lib/libutee/tee_api_objects.c:409
    2424:	7100027f 	cmp	w19, #0x0
    2428:	129ffee0 	mov	w0, #0xffff0008            	// #-65528
    242c:	7a401264 	ccmp	w19, w0, #0x4, ne  // ne = any
    2430:	54000260 	b.eq	247c <TEE_OpenPersistentObject+0x98>  // b.none
/home/nk/optee/optee_os/lib/libutee/tee_api_objects.c:411
    2434:	129fff80 	mov	w0, #0xffff0003            	// #-65533
    2438:	6b00027f 	cmp	w19, w0
    243c:	129ffe60 	mov	w0, #0xffff000c            	// #-65524
    2440:	7a401264 	ccmp	w19, w0, #0x4, ne  // ne = any
    2444:	54000100 	b.eq	2464 <TEE_OpenPersistentObject+0x80>  // b.none
/home/nk/optee/optee_os/lib/libutee/tee_api_objects.c:413
    2448:	121e7a61 	and	w1, w19, #0xfffffffd
    244c:	52800020 	mov	w0, #0x1                   	// #1
    2450:	72be0200 	movk	w0, #0xf010, lsl #16
    2454:	6b00003f 	cmp	w1, w0
    2458:	54000060 	b.eq	2464 <TEE_OpenPersistentObject+0x80>  // b.none
/home/nk/optee/optee_os/lib/libutee/tee_api_objects.c:415
    245c:	2a1303e0 	mov	w0, w19
    2460:	94000157 	bl	29bc <TEE_Panic>
/home/nk/optee/optee_os/lib/libutee/tee_api_objects.c:418
    2464:	f900029f 	str	xzr, [x20]
/home/nk/optee/optee_os/lib/libutee/tee_api_objects.c:420
    2468:	14000006 	b	2480 <TEE_OpenPersistentObject+0x9c>
/home/nk/optee/optee_os/lib/libutee/tee_api_objects.c:394
    246c:	129ffef3 	mov	w19, #0xffff0008            	// #-65528
    2470:	17ffffed 	b	2424 <TEE_OpenPersistentObject+0x40>
/home/nk/optee/optee_os/lib/libutee/tee_api_objects.c:399
    2474:	129fff33 	mov	w19, #0xffff0006            	// #-65530
    2478:	17ffffeb 	b	2424 <TEE_OpenPersistentObject+0x40>
/home/nk/optee/optee_os/lib/libutee/tee_api_objects.c:417
    247c:	35ffff53 	cbnz	w19, 2464 <TEE_OpenPersistentObject+0x80>
/home/nk/optee/optee_os/lib/libutee/tee_api_objects.c:421
    2480:	2a1303e0 	mov	w0, w19
    2484:	a94153f3 	ldp	x19, x20, [sp, #16]
    2488:	a8c37bfd 	ldp	x29, x30, [sp], #48
    248c:	d65f03c0 	ret

0000000000002490 <TEE_CreatePersistentObject>:
TEE_CreatePersistentObject():
/home/nk/optee/optee_os/lib/libutee/tee_api_objects.c:429
    2490:	a9bd7bfd 	stp	x29, x30, [sp, #-48]!
    2494:	910003fd 	mov	x29, sp
    2498:	a90153f3 	stp	x19, x20, [sp, #16]
    249c:	aa0703f4 	mov	x20, x7
/home/nk/optee/optee_os/lib/libutee/tee_api_objects.c:433
    24a0:	b4000421 	cbz	x1, 2524 <TEE_CreatePersistentObject+0x94>
/home/nk/optee/optee_os/lib/libutee/tee_api_objects.c:438
    24a4:	7101005f 	cmp	w2, #0x40
    24a8:	54000428 	b.hi	252c <TEE_CreatePersistentObject+0x9c>  // b.pmore
/home/nk/optee/optee_os/lib/libutee/tee_api_objects.c:443
    24ac:	9100b3e7 	add	x7, sp, #0x2c
    24b0:	2a0603e6 	mov	w6, w6
    24b4:	2a0303e3 	mov	w3, w3
    24b8:	2a0203e2 	mov	w2, w2
    24bc:	2a0003e0 	mov	w0, w0
    24c0:	94000224 	bl	2d50 <_utee_storage_obj_create>
    24c4:	2a0003f3 	mov	w19, w0
/home/nk/optee/optee_os/lib/libutee/tee_api_objects.c:447
    24c8:	35000060 	cbnz	w0, 24d4 <TEE_CreatePersistentObject+0x44>
/home/nk/optee/optee_os/lib/libutee/tee_api_objects.c:448
    24cc:	b9402fe0 	ldr	w0, [sp, #44]
    24d0:	f9000280 	str	x0, [x20]
/home/nk/optee/optee_os/lib/libutee/tee_api_objects.c:451
    24d4:	7100027f 	cmp	w19, #0x0
    24d8:	129ffee0 	mov	w0, #0xffff0008            	// #-65528
    24dc:	7a401264 	ccmp	w19, w0, #0x4, ne  // ne = any
    24e0:	540002a0 	b.eq	2534 <TEE_CreatePersistentObject+0xa4>  // b.none
/home/nk/optee/optee_os/lib/libutee/tee_api_objects.c:453
    24e4:	129fff80 	mov	w0, #0xffff0003            	// #-65533
    24e8:	6b00027f 	cmp	w19, w0
    24ec:	129ffe60 	mov	w0, #0xffff000c            	// #-65524
    24f0:	7a401264 	ccmp	w19, w0, #0x4, ne  // ne = any
    24f4:	54000140 	b.eq	251c <TEE_CreatePersistentObject+0x8c>  // b.none
/home/nk/optee/optee_os/lib/libutee/tee_api_objects.c:456
    24f8:	121e7a61 	and	w1, w19, #0xfffffffd
/home/nk/optee/optee_os/lib/libutee/tee_api_objects.c:455
    24fc:	52800020 	mov	w0, #0x1                   	// #1
    2500:	72be0200 	movk	w0, #0xf010, lsl #16
    2504:	6b00003f 	cmp	w1, w0
    2508:	1299f7c0 	mov	w0, #0xffff3041            	// #-53183
    250c:	7a401264 	ccmp	w19, w0, #0x4, ne  // ne = any
    2510:	54000060 	b.eq	251c <TEE_CreatePersistentObject+0x8c>  // b.none
/home/nk/optee/optee_os/lib/libutee/tee_api_objects.c:458
    2514:	2a1303e0 	mov	w0, w19
    2518:	94000129 	bl	29bc <TEE_Panic>
/home/nk/optee/optee_os/lib/libutee/tee_api_objects.c:461
    251c:	f900029f 	str	xzr, [x20]
    2520:	14000006 	b	2538 <TEE_CreatePersistentObject+0xa8>
/home/nk/optee/optee_os/lib/libutee/tee_api_objects.c:434
    2524:	129ffef3 	mov	w19, #0xffff0008            	// #-65528
    2528:	17ffffeb 	b	24d4 <TEE_CreatePersistentObject+0x44>
/home/nk/optee/optee_os/lib/libutee/tee_api_objects.c:439
    252c:	129fff33 	mov	w19, #0xffff0006            	// #-65530
    2530:	17ffffe9 	b	24d4 <TEE_CreatePersistentObject+0x44>
/home/nk/optee/optee_os/lib/libutee/tee_api_objects.c:460
    2534:	35ffff53 	cbnz	w19, 251c <TEE_CreatePersistentObject+0x8c>
/home/nk/optee/optee_os/lib/libutee/tee_api_objects.c:464
    2538:	2a1303e0 	mov	w0, w19
    253c:	a94153f3 	ldp	x19, x20, [sp, #16]
    2540:	a8c37bfd 	ldp	x29, x30, [sp], #48
    2544:	d65f03c0 	ret

0000000000002548 <TEE_CloseAndDeletePersistentObject1>:
TEE_CloseAndDeletePersistentObject1():
/home/nk/optee/optee_os/lib/libutee/tee_api_objects.c:486
    2548:	a9be7bfd 	stp	x29, x30, [sp, #-32]!
    254c:	910003fd 	mov	x29, sp
    2550:	a90153f3 	stp	x19, x20, [sp, #16]
    2554:	52800074 	mov	w20, #0x3                   	// #3
    2558:	72be0214 	movk	w20, #0xf010, lsl #16
/home/nk/optee/optee_os/lib/libutee/tee_api_objects.c:489
    255c:	b4000160 	cbz	x0, 2588 <TEE_CloseAndDeletePersistentObject1+0x40>
/home/nk/optee/optee_os/lib/libutee/tee_api_objects.c:492
    2560:	940001ff 	bl	2d5c <_utee_storage_obj_del>
/home/nk/optee/optee_os/lib/libutee/tee_api_objects.c:494
    2564:	7100001f 	cmp	w0, #0x0
/home/nk/optee/optee_os/lib/libutee/tee_api_objects.c:492
    2568:	2a0003f3 	mov	w19, w0
/home/nk/optee/optee_os/lib/libutee/tee_api_objects.c:494
    256c:	7a541004 	ccmp	w0, w20, #0x4, ne  // ne = any
    2570:	54000040 	b.eq	2578 <TEE_CloseAndDeletePersistentObject1+0x30>  // b.none
/home/nk/optee/optee_os/lib/libutee/tee_api_objects.c:495
    2574:	94000112 	bl	29bc <TEE_Panic>
/home/nk/optee/optee_os/lib/libutee/tee_api_objects.c:498
    2578:	2a1303e0 	mov	w0, w19
    257c:	a94153f3 	ldp	x19, x20, [sp, #16]
    2580:	a8c27bfd 	ldp	x29, x30, [sp], #32
    2584:	d65f03c0 	ret
/home/nk/optee/optee_os/lib/libutee/tee_api_objects.c:490
    2588:	2a1403f3 	mov	w19, w20
    258c:	17fffffb 	b	2578 <TEE_CloseAndDeletePersistentObject1+0x30>

0000000000002590 <TEE_CloseAndDeletePersistentObject>:
TEE_CloseAndDeletePersistentObject():
/home/nk/optee/optee_os/lib/libutee/tee_api_objects.c:476
    2590:	b4000140 	cbz	x0, 25b8 <TEE_CloseAndDeletePersistentObject+0x28>
/home/nk/optee/optee_os/lib/libutee/tee_api_objects.c:473
    2594:	a9bf7bfd 	stp	x29, x30, [sp, #-16]!
    2598:	910003fd 	mov	x29, sp
/home/nk/optee/optee_os/lib/libutee/tee_api_objects.c:479
    259c:	97ffffeb 	bl	2548 <TEE_CloseAndDeletePersistentObject1>
/home/nk/optee/optee_os/lib/libutee/tee_api_objects.c:481
    25a0:	34000080 	cbz	w0, 25b0 <TEE_CloseAndDeletePersistentObject+0x20>
/home/nk/optee/optee_os/lib/libutee/tee_api_objects.c:483
    25a4:	a8c17bfd 	ldp	x29, x30, [sp], #16
/home/nk/optee/optee_os/lib/libutee/tee_api_objects.c:482
    25a8:	52800000 	mov	w0, #0x0                   	// #0
    25ac:	14000104 	b	29bc <TEE_Panic>
/home/nk/optee/optee_os/lib/libutee/tee_api_objects.c:483
    25b0:	a8c17bfd 	ldp	x29, x30, [sp], #16
    25b4:	d65f03c0 	ret
    25b8:	d65f03c0 	ret

00000000000025bc <TEE_RenamePersistentObject>:
TEE_RenamePersistentObject():
/home/nk/optee/optee_os/lib/libutee/tee_api_objects.c:504
    25bc:	a9be7bfd 	stp	x29, x30, [sp, #-32]!
    25c0:	910003fd 	mov	x29, sp
    25c4:	f9000bf3 	str	x19, [sp, #16]
/home/nk/optee/optee_os/lib/libutee/tee_api_objects.c:507
    25c8:	b40002c0 	cbz	x0, 2620 <TEE_RenamePersistentObject+0x64>
/home/nk/optee/optee_os/lib/libutee/tee_api_objects.c:512
    25cc:	b40002e1 	cbz	x1, 2628 <TEE_RenamePersistentObject+0x6c>
/home/nk/optee/optee_os/lib/libutee/tee_api_objects.c:517
    25d0:	7101005f 	cmp	w2, #0x40
    25d4:	540002a8 	b.hi	2628 <TEE_RenamePersistentObject+0x6c>  // b.pmore
/home/nk/optee/optee_os/lib/libutee/tee_api_objects.c:522
    25d8:	2a0203e2 	mov	w2, w2
    25dc:	940001e3 	bl	2d68 <_utee_storage_obj_rename>
    25e0:	2a0003f3 	mov	w19, w0
/home/nk/optee/optee_os/lib/libutee/tee_api_objects.c:526
    25e4:	7100027f 	cmp	w19, #0x0
    25e8:	129fff80 	mov	w0, #0xffff0003            	// #-65533
    25ec:	7a401264 	ccmp	w19, w0, #0x4, ne  // ne = any
    25f0:	54000100 	b.eq	2610 <TEE_RenamePersistentObject+0x54>  // b.none
/home/nk/optee/optee_os/lib/libutee/tee_api_objects.c:528
    25f4:	121e7a61 	and	w1, w19, #0xfffffffd
    25f8:	52800020 	mov	w0, #0x1                   	// #1
    25fc:	72be0200 	movk	w0, #0xf010, lsl #16
    2600:	6b00003f 	cmp	w1, w0
    2604:	54000060 	b.eq	2610 <TEE_RenamePersistentObject+0x54>  // b.none
/home/nk/optee/optee_os/lib/libutee/tee_api_objects.c:530
    2608:	2a1303e0 	mov	w0, w19
    260c:	940000ec 	bl	29bc <TEE_Panic>
/home/nk/optee/optee_os/lib/libutee/tee_api_objects.c:533
    2610:	2a1303e0 	mov	w0, w19
    2614:	f9400bf3 	ldr	x19, [sp, #16]
    2618:	a8c27bfd 	ldp	x29, x30, [sp], #32
    261c:	d65f03c0 	ret
/home/nk/optee/optee_os/lib/libutee/tee_api_objects.c:508
    2620:	129ffef3 	mov	w19, #0xffff0008            	// #-65528
    2624:	17fffff0 	b	25e4 <TEE_RenamePersistentObject+0x28>
/home/nk/optee/optee_os/lib/libutee/tee_api_objects.c:513
    2628:	129fff33 	mov	w19, #0xffff0006            	// #-65530
    262c:	17ffffee 	b	25e4 <TEE_RenamePersistentObject+0x28>

0000000000002630 <TEE_AllocatePersistentObjectEnumerator>:
TEE_AllocatePersistentObjectEnumerator():
/home/nk/optee/optee_os/lib/libutee/tee_api_objects.c:537
    2630:	a9bd7bfd 	stp	x29, x30, [sp, #-48]!
    2634:	910003fd 	mov	x29, sp
    2638:	a90153f3 	stp	x19, x20, [sp, #16]
/home/nk/optee/optee_os/lib/libutee/tee_api_objects.c:541
    263c:	b4000260 	cbz	x0, 2688 <TEE_AllocatePersistentObjectEnumerator+0x58>
    2640:	aa0003f4 	mov	x20, x0
/home/nk/optee/optee_os/lib/libutee/tee_api_objects.c:544
    2644:	9100b3e0 	add	x0, sp, #0x2c
    2648:	940001cb 	bl	2d74 <_utee_storage_alloc_enum>
    264c:	2a0003f3 	mov	w19, w0
/home/nk/optee/optee_os/lib/libutee/tee_api_objects.c:546
    2650:	34000040 	cbz	w0, 2658 <TEE_AllocatePersistentObjectEnumerator+0x28>
/home/nk/optee/optee_os/lib/libutee/tee_api_objects.c:547
    2654:	b9002fff 	str	wzr, [sp, #44]
/home/nk/optee/optee_os/lib/libutee/tee_api_objects.c:549
    2658:	b9402fe0 	ldr	w0, [sp, #44]
/home/nk/optee/optee_os/lib/libutee/tee_api_objects.c:551
    265c:	7100027f 	cmp	w19, #0x0
/home/nk/optee/optee_os/lib/libutee/tee_api_objects.c:549
    2660:	f9000280 	str	x0, [x20]
/home/nk/optee/optee_os/lib/libutee/tee_api_objects.c:551
    2664:	129fff80 	mov	w0, #0xffff0003            	// #-65533
    2668:	7a401264 	ccmp	w19, w0, #0x4, ne  // ne = any
    266c:	54000060 	b.eq	2678 <TEE_AllocatePersistentObjectEnumerator+0x48>  // b.none
/home/nk/optee/optee_os/lib/libutee/tee_api_objects.c:553
    2670:	2a1303e0 	mov	w0, w19
    2674:	940000d2 	bl	29bc <TEE_Panic>
/home/nk/optee/optee_os/lib/libutee/tee_api_objects.c:556
    2678:	2a1303e0 	mov	w0, w19
    267c:	a94153f3 	ldp	x19, x20, [sp, #16]
    2680:	a8c37bfd 	ldp	x29, x30, [sp], #48
    2684:	d65f03c0 	ret
/home/nk/optee/optee_os/lib/libutee/tee_api_objects.c:542
    2688:	129fff33 	mov	w19, #0xffff0006            	// #-65530
    268c:	17fffffb 	b	2678 <TEE_AllocatePersistentObjectEnumerator+0x48>

0000000000002690 <TEE_FreePersistentObjectEnumerator>:
TEE_FreePersistentObjectEnumerator():
/home/nk/optee/optee_os/lib/libutee/tee_api_objects.c:562
    2690:	b4000120 	cbz	x0, 26b4 <TEE_FreePersistentObjectEnumerator+0x24>
/home/nk/optee/optee_os/lib/libutee/tee_api_objects.c:559
    2694:	a9bf7bfd 	stp	x29, x30, [sp, #-16]!
    2698:	910003fd 	mov	x29, sp
/home/nk/optee/optee_os/lib/libutee/tee_api_objects.c:565
    269c:	940001b9 	bl	2d80 <_utee_storage_free_enum>
/home/nk/optee/optee_os/lib/libutee/tee_api_objects.c:567
    26a0:	34000060 	cbz	w0, 26ac <TEE_FreePersistentObjectEnumerator+0x1c>
/home/nk/optee/optee_os/lib/libutee/tee_api_objects.c:569
    26a4:	a8c17bfd 	ldp	x29, x30, [sp], #16
/home/nk/optee/optee_os/lib/libutee/tee_api_objects.c:568
    26a8:	140000c5 	b	29bc <TEE_Panic>
/home/nk/optee/optee_os/lib/libutee/tee_api_objects.c:569
    26ac:	a8c17bfd 	ldp	x29, x30, [sp], #16
    26b0:	d65f03c0 	ret
    26b4:	d65f03c0 	ret

00000000000026b8 <TEE_ResetPersistentObjectEnumerator>:
TEE_ResetPersistentObjectEnumerator():
/home/nk/optee/optee_os/lib/libutee/tee_api_objects.c:575
    26b8:	b4000120 	cbz	x0, 26dc <TEE_ResetPersistentObjectEnumerator+0x24>
/home/nk/optee/optee_os/lib/libutee/tee_api_objects.c:572
    26bc:	a9bf7bfd 	stp	x29, x30, [sp, #-16]!
    26c0:	910003fd 	mov	x29, sp
/home/nk/optee/optee_os/lib/libutee/tee_api_objects.c:578
    26c4:	940001b2 	bl	2d8c <_utee_storage_reset_enum>
/home/nk/optee/optee_os/lib/libutee/tee_api_objects.c:580
    26c8:	34000060 	cbz	w0, 26d4 <TEE_ResetPersistentObjectEnumerator+0x1c>
/home/nk/optee/optee_os/lib/libutee/tee_api_objects.c:582
    26cc:	a8c17bfd 	ldp	x29, x30, [sp], #16
/home/nk/optee/optee_os/lib/libutee/tee_api_objects.c:581
    26d0:	140000bb 	b	29bc <TEE_Panic>
/home/nk/optee/optee_os/lib/libutee/tee_api_objects.c:582
    26d4:	a8c17bfd 	ldp	x29, x30, [sp], #16
    26d8:	d65f03c0 	ret
    26dc:	d65f03c0 	ret

00000000000026e0 <TEE_StartPersistentObjectEnumerator>:
TEE_StartPersistentObjectEnumerator():
/home/nk/optee/optee_os/lib/libutee/tee_api_objects.c:587
    26e0:	a9be7bfd 	stp	x29, x30, [sp, #-32]!
/home/nk/optee/optee_os/lib/libutee/tee_api_objects.c:590
    26e4:	2a0103e1 	mov	w1, w1
/home/nk/optee/optee_os/lib/libutee/tee_api_objects.c:587
    26e8:	910003fd 	mov	x29, sp
    26ec:	f9000bf3 	str	x19, [sp, #16]
/home/nk/optee/optee_os/lib/libutee/tee_api_objects.c:590
    26f0:	940001aa 	bl	2d98 <_utee_storage_start_enum>
/home/nk/optee/optee_os/lib/libutee/tee_api_objects.c:593
    26f4:	7100001f 	cmp	w0, #0x0
    26f8:	129ffee1 	mov	w1, #0xffff0008            	// #-65528
/home/nk/optee/optee_os/lib/libutee/tee_api_objects.c:590
    26fc:	2a0003f3 	mov	w19, w0
/home/nk/optee/optee_os/lib/libutee/tee_api_objects.c:593
    2700:	7a411004 	ccmp	w0, w1, #0x4, ne  // ne = any
    2704:	540000e0 	b.eq	2720 <TEE_StartPersistentObjectEnumerator+0x40>  // b.none
/home/nk/optee/optee_os/lib/libutee/tee_api_objects.c:595
    2708:	121e7802 	and	w2, w0, #0xfffffffd
    270c:	52800021 	mov	w1, #0x1                   	// #1
    2710:	72be0201 	movk	w1, #0xf010, lsl #16
    2714:	6b01005f 	cmp	w2, w1
    2718:	54000040 	b.eq	2720 <TEE_StartPersistentObjectEnumerator+0x40>  // b.none
/home/nk/optee/optee_os/lib/libutee/tee_api_objects.c:597
    271c:	940000a8 	bl	29bc <TEE_Panic>
/home/nk/optee/optee_os/lib/libutee/tee_api_objects.c:600
    2720:	2a1303e0 	mov	w0, w19
    2724:	f9400bf3 	ldr	x19, [sp, #16]
    2728:	a8c27bfd 	ldp	x29, x30, [sp], #32
    272c:	d65f03c0 	ret

0000000000002730 <TEE_GetNextPersistentObject>:
TEE_GetNextPersistentObject():
/home/nk/optee/optee_os/lib/libutee/tee_api_objects.c:605
    2730:	a9bb7bfd 	stp	x29, x30, [sp, #-80]!
    2734:	910003fd 	mov	x29, sp
    2738:	a90153f3 	stp	x19, x20, [sp, #16]
/home/nk/optee/optee_os/lib/libutee/tee_api_objects.c:611
    273c:	b4000362 	cbz	x2, 27a8 <TEE_GetNextPersistentObject+0x78>
    2740:	aa0303f4 	mov	x20, x3
/home/nk/optee/optee_os/lib/libutee/tee_api_objects.c:616
    2744:	b4000323 	cbz	x3, 27a8 <TEE_GetNextPersistentObject+0x78>
/home/nk/optee/optee_os/lib/libutee/tee_api_objects.c:621
    2748:	b5000041 	cbnz	x1, 2750 <TEE_GetNextPersistentObject+0x20>
/home/nk/optee/optee_os/lib/libutee/tee_api_objects.c:624
    274c:	9100c3e1 	add	x1, sp, #0x30
/home/nk/optee/optee_os/lib/libutee/tee_api_objects.c:625
    2750:	b9400283 	ldr	w3, [x20]
    2754:	f90017e3 	str	x3, [sp, #40]
/home/nk/optee/optee_os/lib/libutee/tee_api_objects.c:626
    2758:	9100a3e3 	add	x3, sp, #0x28
    275c:	94000192 	bl	2da4 <_utee_storage_next_enum>
    2760:	2a0003f3 	mov	w19, w0
/home/nk/optee/optee_os/lib/libutee/tee_api_objects.c:628
    2764:	f94017e0 	ldr	x0, [sp, #40]
    2768:	b9000280 	str	w0, [x20]
/home/nk/optee/optee_os/lib/libutee/tee_api_objects.c:631
    276c:	7100027f 	cmp	w19, #0x0
    2770:	129ffee0 	mov	w0, #0xffff0008            	// #-65528
    2774:	7a401264 	ccmp	w19, w0, #0x4, ne  // ne = any
    2778:	54000100 	b.eq	2798 <TEE_GetNextPersistentObject+0x68>  // b.none
/home/nk/optee/optee_os/lib/libutee/tee_api_objects.c:633
    277c:	121e7a61 	and	w1, w19, #0xfffffffd
    2780:	52800020 	mov	w0, #0x1                   	// #1
    2784:	72be0200 	movk	w0, #0xf010, lsl #16
    2788:	6b00003f 	cmp	w1, w0
    278c:	54000060 	b.eq	2798 <TEE_GetNextPersistentObject+0x68>  // b.none
/home/nk/optee/optee_os/lib/libutee/tee_api_objects.c:635
    2790:	2a1303e0 	mov	w0, w19
    2794:	9400008a 	bl	29bc <TEE_Panic>
/home/nk/optee/optee_os/lib/libutee/tee_api_objects.c:638
    2798:	2a1303e0 	mov	w0, w19
    279c:	a94153f3 	ldp	x19, x20, [sp, #16]
    27a0:	a8c57bfd 	ldp	x29, x30, [sp], #80
    27a4:	d65f03c0 	ret
/home/nk/optee/optee_os/lib/libutee/tee_api_objects.c:612
    27a8:	129fff33 	mov	w19, #0xffff0006            	// #-65530
    27ac:	17fffff0 	b	276c <TEE_GetNextPersistentObject+0x3c>

00000000000027b0 <TEE_ReadObjectData>:
TEE_ReadObjectData():
/home/nk/optee/optee_os/lib/libutee/tee_api_objects.c:644
    27b0:	a9bd7bfd 	stp	x29, x30, [sp, #-48]!
    27b4:	910003fd 	mov	x29, sp
    27b8:	a90153f3 	stp	x19, x20, [sp, #16]
/home/nk/optee/optee_os/lib/libutee/tee_api_objects.c:648
    27bc:	b40002c0 	cbz	x0, 2814 <TEE_ReadObjectData+0x64>
    27c0:	aa0303f4 	mov	x20, x3
/home/nk/optee/optee_os/lib/libutee/tee_api_objects.c:653
    27c4:	b9400063 	ldr	w3, [x3]
/home/nk/optee/optee_os/lib/libutee/tee_api_objects.c:654
    27c8:	2a0203e2 	mov	w2, w2
/home/nk/optee/optee_os/lib/libutee/tee_api_objects.c:653
    27cc:	f90017e3 	str	x3, [sp, #40]
/home/nk/optee/optee_os/lib/libutee/tee_api_objects.c:654
    27d0:	9100a3e3 	add	x3, sp, #0x28
    27d4:	94000177 	bl	2db0 <_utee_storage_obj_read>
    27d8:	2a0003f3 	mov	w19, w0
/home/nk/optee/optee_os/lib/libutee/tee_api_objects.c:656
    27dc:	f94017e0 	ldr	x0, [sp, #40]
    27e0:	b9000280 	str	w0, [x20]
/home/nk/optee/optee_os/lib/libutee/tee_api_objects.c:660
    27e4:	121e7a60 	and	w0, w19, #0xfffffffd
/home/nk/optee/optee_os/lib/libutee/tee_api_objects.c:659
    27e8:	7100027f 	cmp	w19, #0x0
    27ec:	52800021 	mov	w1, #0x1                   	// #1
    27f0:	72be0201 	movk	w1, #0xf010, lsl #16
    27f4:	7a411004 	ccmp	w0, w1, #0x4, ne  // ne = any
    27f8:	54000060 	b.eq	2804 <TEE_ReadObjectData+0x54>  // b.none
/home/nk/optee/optee_os/lib/libutee/tee_api_objects.c:662
    27fc:	2a1303e0 	mov	w0, w19
    2800:	9400006f 	bl	29bc <TEE_Panic>
/home/nk/optee/optee_os/lib/libutee/tee_api_objects.c:665
    2804:	2a1303e0 	mov	w0, w19
    2808:	a94153f3 	ldp	x19, x20, [sp, #16]
    280c:	a8c37bfd 	ldp	x29, x30, [sp], #48
    2810:	d65f03c0 	ret
/home/nk/optee/optee_os/lib/libutee/tee_api_objects.c:649
    2814:	129fff33 	mov	w19, #0xffff0006            	// #-65530
    2818:	17fffff3 	b	27e4 <TEE_ReadObjectData+0x34>

000000000000281c <TEE_WriteObjectData>:
TEE_WriteObjectData():
/home/nk/optee/optee_os/lib/libutee/tee_api_objects.c:669
    281c:	a9be7bfd 	stp	x29, x30, [sp, #-32]!
    2820:	910003fd 	mov	x29, sp
    2824:	f9000bf3 	str	x19, [sp, #16]
/home/nk/optee/optee_os/lib/libutee/tee_api_objects.c:672
    2828:	b40002a0 	cbz	x0, 287c <TEE_WriteObjectData+0x60>
/home/nk/optee/optee_os/lib/libutee/tee_api_objects.c:682
    282c:	2a0203e2 	mov	w2, w2
    2830:	94000163 	bl	2dbc <_utee_storage_obj_write>
    2834:	2a0003f3 	mov	w19, w0
/home/nk/optee/optee_os/lib/libutee/tee_api_objects.c:685
    2838:	7100027f 	cmp	w19, #0x0
    283c:	1299f7c0 	mov	w0, #0xffff3041            	// #-53183
    2840:	7a401264 	ccmp	w19, w0, #0x4, ne  // ne = any
    2844:	54000140 	b.eq	286c <TEE_WriteObjectData+0x50>  // b.none
/home/nk/optee/optee_os/lib/libutee/tee_api_objects.c:688
    2848:	121e7a61 	and	w1, w19, #0xfffffffd
/home/nk/optee/optee_os/lib/libutee/tee_api_objects.c:687
    284c:	52800020 	mov	w0, #0x1                   	// #1
    2850:	72be0200 	movk	w0, #0xf010, lsl #16
    2854:	6b00003f 	cmp	w1, w0
    2858:	1299fe00 	mov	w0, #0xffff300f            	// #-53233
    285c:	7a401264 	ccmp	w19, w0, #0x4, ne  // ne = any
    2860:	54000060 	b.eq	286c <TEE_WriteObjectData+0x50>  // b.none
/home/nk/optee/optee_os/lib/libutee/tee_api_objects.c:690
    2864:	2a1303e0 	mov	w0, w19
    2868:	94000055 	bl	29bc <TEE_Panic>
/home/nk/optee/optee_os/lib/libutee/tee_api_objects.c:693
    286c:	2a1303e0 	mov	w0, w19
    2870:	f9400bf3 	ldr	x19, [sp, #16]
    2874:	a8c27bfd 	ldp	x29, x30, [sp], #32
    2878:	d65f03c0 	ret
/home/nk/optee/optee_os/lib/libutee/tee_api_objects.c:673
    287c:	129fff33 	mov	w19, #0xffff0006            	// #-65530
    2880:	17ffffee 	b	2838 <TEE_WriteObjectData+0x1c>

0000000000002884 <TEE_TruncateObjectData>:
TEE_TruncateObjectData():
/home/nk/optee/optee_os/lib/libutee/tee_api_objects.c:696
    2884:	a9be7bfd 	stp	x29, x30, [sp, #-32]!
    2888:	910003fd 	mov	x29, sp
    288c:	f9000bf3 	str	x19, [sp, #16]
/home/nk/optee/optee_os/lib/libutee/tee_api_objects.c:699
    2890:	b4000260 	cbz	x0, 28dc <TEE_TruncateObjectData+0x58>
/home/nk/optee/optee_os/lib/libutee/tee_api_objects.c:704
    2894:	2a0103e1 	mov	w1, w1
    2898:	9400014c 	bl	2dc8 <_utee_storage_obj_trunc>
    289c:	2a0003f3 	mov	w19, w0
/home/nk/optee/optee_os/lib/libutee/tee_api_objects.c:707
    28a0:	7100027f 	cmp	w19, #0x0
    28a4:	1299f7c0 	mov	w0, #0xffff3041            	// #-53183
    28a8:	7a401264 	ccmp	w19, w0, #0x4, ne  // ne = any
    28ac:	54000100 	b.eq	28cc <TEE_TruncateObjectData+0x48>  // b.none
/home/nk/optee/optee_os/lib/libutee/tee_api_objects.c:709
    28b0:	121e7a61 	and	w1, w19, #0xfffffffd
    28b4:	52800020 	mov	w0, #0x1                   	// #1
    28b8:	72be0200 	movk	w0, #0xf010, lsl #16
    28bc:	6b00003f 	cmp	w1, w0
    28c0:	54000060 	b.eq	28cc <TEE_TruncateObjectData+0x48>  // b.none
/home/nk/optee/optee_os/lib/libutee/tee_api_objects.c:711
    28c4:	2a1303e0 	mov	w0, w19
    28c8:	9400003d 	bl	29bc <TEE_Panic>
/home/nk/optee/optee_os/lib/libutee/tee_api_objects.c:714
    28cc:	2a1303e0 	mov	w0, w19
    28d0:	f9400bf3 	ldr	x19, [sp, #16]
    28d4:	a8c27bfd 	ldp	x29, x30, [sp], #32
    28d8:	d65f03c0 	ret
/home/nk/optee/optee_os/lib/libutee/tee_api_objects.c:700
    28dc:	129fff33 	mov	w19, #0xffff0006            	// #-65530
    28e0:	17fffff0 	b	28a0 <TEE_TruncateObjectData+0x1c>

00000000000028e4 <TEE_SeekObjectData>:
TEE_SeekObjectData():
/home/nk/optee/optee_os/lib/libutee/tee_api_objects.c:718
    28e4:	a9bb7bfd 	stp	x29, x30, [sp, #-80]!
    28e8:	910003fd 	mov	x29, sp
    28ec:	a90153f3 	stp	x19, x20, [sp, #16]
    28f0:	a9025bf5 	stp	x21, x22, [sp, #32]
/home/nk/optee/optee_os/lib/libutee/tee_api_objects.c:722
    28f4:	b40005c0 	cbz	x0, 29ac <TEE_SeekObjectData+0xc8>
    28f8:	aa0003f6 	mov	x22, x0
    28fc:	2a0103f4 	mov	w20, w1
    2900:	2a0203f5 	mov	w21, w2
/home/nk/optee/optee_os/lib/libutee/tee_api_objects.c:727
    2904:	9100c3e1 	add	x1, sp, #0x30
    2908:	940000dc 	bl	2c78 <_utee_cryp_obj_get_info>
    290c:	2a0003f3 	mov	w19, w0
/home/nk/optee/optee_os/lib/libutee/tee_api_objects.c:728
    2910:	350000e0 	cbnz	w0, 292c <TEE_SeekObjectData+0x48>
/home/nk/optee/optee_os/lib/libutee/tee_api_objects.c:731
    2914:	710006bf 	cmp	w21, #0x1
    2918:	540002a0 	b.eq	296c <TEE_SeekObjectData+0x88>  // b.none
    291c:	34000355 	cbz	w21, 2984 <TEE_SeekObjectData+0xa0>
    2920:	71000abf 	cmp	w21, #0x2
    2924:	540003c0 	b.eq	299c <TEE_SeekObjectData+0xb8>  // b.none
/home/nk/optee/optee_os/lib/libutee/tee_api_objects.c:757
    2928:	129ffef3 	mov	w19, #0xffff0008            	// #-65528
/home/nk/optee/optee_os/lib/libutee/tee_api_objects.c:764
    292c:	7100027f 	cmp	w19, #0x0
    2930:	1299fe00 	mov	w0, #0xffff300f            	// #-53233
    2934:	7a401264 	ccmp	w19, w0, #0x4, ne  // ne = any
    2938:	54000100 	b.eq	2958 <TEE_SeekObjectData+0x74>  // b.none
/home/nk/optee/optee_os/lib/libutee/tee_api_objects.c:766
    293c:	121e7a61 	and	w1, w19, #0xfffffffd
    2940:	52800020 	mov	w0, #0x1                   	// #1
    2944:	72be0200 	movk	w0, #0xf010, lsl #16
    2948:	6b00003f 	cmp	w1, w0
    294c:	54000060 	b.eq	2958 <TEE_SeekObjectData+0x74>  // b.none
/home/nk/optee/optee_os/lib/libutee/tee_api_objects.c:768
    2950:	2a1303e0 	mov	w0, w19
    2954:	9400001a 	bl	29bc <TEE_Panic>
/home/nk/optee/optee_os/lib/libutee/tee_api_objects.c:771
    2958:	2a1303e0 	mov	w0, w19
    295c:	a94153f3 	ldp	x19, x20, [sp, #16]
    2960:	a9425bf5 	ldp	x21, x22, [sp, #32]
    2964:	a8c57bfd 	ldp	x29, x30, [sp], #80
    2968:	d65f03c0 	ret
/home/nk/optee/optee_os/lib/libutee/tee_api_objects.c:739
    296c:	7100029f 	cmp	w20, #0x0
    2970:	540000ad 	b.le	2984 <TEE_SeekObjectData+0xa0>
/home/nk/optee/optee_os/lib/libutee/tee_api_objects.c:742 (discriminator 1)
    2974:	b94047e0 	ldr	w0, [sp, #68]
/home/nk/optee/optee_os/lib/libutee/tee_api_objects.c:751 (discriminator 1)
    2978:	0b000281 	add	w1, w20, w0
/home/nk/optee/optee_os/lib/libutee/tee_api_objects.c:749 (discriminator 1)
    297c:	6b01001f 	cmp	w0, w1
    2980:	540001a8 	b.hi	29b4 <TEE_SeekObjectData+0xd0>  // b.pmore
/home/nk/optee/optee_os/lib/libutee/tee_api_objects.c:761
    2984:	2a1503e2 	mov	w2, w21
    2988:	2a1403e1 	mov	w1, w20
    298c:	aa1603e0 	mov	x0, x22
    2990:	94000111 	bl	2dd4 <_utee_storage_obj_seek>
    2994:	2a0003f3 	mov	w19, w0
    2998:	17ffffe5 	b	292c <TEE_SeekObjectData+0x48>
/home/nk/optee/optee_os/lib/libutee/tee_api_objects.c:749
    299c:	7100029f 	cmp	w20, #0x0
    29a0:	54ffff2d 	b.le	2984 <TEE_SeekObjectData+0xa0>
/home/nk/optee/optee_os/lib/libutee/tee_api_objects.c:751 (discriminator 1)
    29a4:	b94043e0 	ldr	w0, [sp, #64]
    29a8:	17fffff4 	b	2978 <TEE_SeekObjectData+0x94>
/home/nk/optee/optee_os/lib/libutee/tee_api_objects.c:723
    29ac:	129fff33 	mov	w19, #0xffff0006            	// #-65530
    29b0:	17ffffdf 	b	292c <TEE_SeekObjectData+0x48>
/home/nk/optee/optee_os/lib/libutee/tee_api_objects.c:744
    29b4:	1299fe13 	mov	w19, #0xffff300f            	// #-53233
    29b8:	17ffffdd 	b	292c <TEE_SeekObjectData+0x48>

00000000000029bc <TEE_Panic>:
TEE_Panic():
/home/nk/optee/optee_os/lib/libutee/tee_api_panic.c:12
    29bc:	2a0003e0 	mov	w0, w0
    29c0:	14000063 	b	2b4c <_utee_panic>

00000000000029c4 <invoke_system_pta>:
invoke_system_pta():
/home/nk/optee/optee_os/lib/libutee/tee_system_pta.c:15
    29c4:	a9bd7bfd 	stp	x29, x30, [sp, #-48]!
    29c8:	910003fd 	mov	x29, sp
    29cc:	a90153f3 	stp	x19, x20, [sp, #16]
    29d0:	2a0003f4 	mov	w20, w0
/home/nk/optee/optee_os/lib/libutee/tee_system_pta.c:19
    29d4:	f0000040 	adrp	x0, d000 <_DYNAMIC>
/home/nk/optee/optee_os/lib/libutee/tee_system_pta.c:15
    29d8:	a9025bf5 	stp	x21, x22, [sp, #32]
    29dc:	2a0103f5 	mov	w21, w1
    29e0:	aa0203f6 	mov	x22, x2
/home/nk/optee/optee_os/lib/libutee/tee_system_pta.c:19
    29e4:	f9422801 	ldr	x1, [x0, #1104]
    29e8:	aa0003f3 	mov	x19, x0
    29ec:	b4000161 	cbz	x1, 2a18 <invoke_system_pta+0x54>
/home/nk/optee/optee_os/lib/libutee/tee_system_pta.c:27
    29f0:	aa1603e4 	mov	x4, x22
    29f4:	2a1503e3 	mov	w3, w21
    29f8:	2a1403e2 	mov	w2, w20
    29fc:	d2800005 	mov	x5, #0x0                   	// #0
    2a00:	f9422a60 	ldr	x0, [x19, #1104]
    2a04:	12800001 	mov	w1, #0xffffffff            	// #-1
/home/nk/optee/optee_os/lib/libutee/tee_system_pta.c:29
    2a08:	a94153f3 	ldp	x19, x20, [sp, #16]
    2a0c:	a9425bf5 	ldp	x21, x22, [sp, #32]
    2a10:	a8c37bfd 	ldp	x29, x30, [sp], #48
/home/nk/optee/optee_os/lib/libutee/tee_system_pta.c:27
    2a14:	17fffbbc 	b	1904 <TEE_InvokeTACommand>
    2a18:	91114004 	add	x4, x0, #0x450
/home/nk/optee/optee_os/lib/libutee/tee_system_pta.c:20
    2a1c:	d2800005 	mov	x5, #0x0                   	// #0
    2a20:	b0000040 	adrp	x0, b000 <__text_end+0x15f0>
    2a24:	d2800003 	mov	x3, #0x0                   	// #0
    2a28:	52800002 	mov	w2, #0x0                   	// #0
    2a2c:	12800001 	mov	w1, #0xffffffff            	// #-1
    2a30:	9128c000 	add	x0, x0, #0xa30
    2a34:	97fffbf5 	bl	1a08 <TEE_OpenTASession>
/home/nk/optee/optee_os/lib/libutee/tee_system_pta.c:23
    2a38:	34fffdc0 	cbz	w0, 29f0 <invoke_system_pta+0x2c>
/home/nk/optee/optee_os/lib/libutee/tee_system_pta.c:29
    2a3c:	a94153f3 	ldp	x19, x20, [sp, #16]
    2a40:	a9425bf5 	ldp	x21, x22, [sp, #32]
    2a44:	a8c37bfd 	ldp	x29, x30, [sp], #48
    2a48:	d65f03c0 	ret

0000000000002a4c <tee_map_zi>:
tee_map_zi():
/home/nk/optee/optee_os/lib/libutee/tee_system_pta.c:32
    2a4c:	a9ba7bfd 	stp	x29, x30, [sp, #-96]!
/home/nk/optee/optee_os/lib/libutee/tee_system_pta.c:37
    2a50:	d2800782 	mov	x2, #0x3c                  	// #60
/home/nk/optee/optee_os/lib/libutee/tee_system_pta.c:32
    2a54:	910003fd 	mov	x29, sp
    2a58:	a90153f3 	stp	x19, x20, [sp, #16]
    2a5c:	aa0003f4 	mov	x20, x0
    2a60:	2a0103f3 	mov	w19, w1
/home/nk/optee/optee_os/lib/libutee/tee_system_pta.c:37
    2a64:	910093e0 	add	x0, sp, #0x24
    2a68:	52800001 	mov	w1, #0x0                   	// #0
    2a6c:	94001b46 	bl	9784 <memset>
/home/nk/optee/optee_os/lib/libutee/tee_system_pta.c:40
    2a70:	b90023f4 	str	w20, [sp, #32]
/home/nk/optee/optee_os/lib/libutee/tee_system_pta.c:41
    2a74:	f2607e9f 	tst	x20, #0xffffffff00000000
    2a78:	54000060 	b.eq	2a84 <tee_map_zi+0x38>  // b.none
/home/nk/optee/optee_os/lib/libutee/tee_system_pta.c:50
    2a7c:	d2800000 	mov	x0, #0x0                   	// #0
    2a80:	1400000d 	b	2ab4 <tee_map_zi+0x68>
/home/nk/optee/optee_os/lib/libutee/tee_system_pta.c:43
    2a84:	340000b3 	cbz	w19, 2a98 <tee_map_zi+0x4c>
    2a88:	7100127f 	cmp	w19, #0x4
    2a8c:	54ffff81 	b.ne	2a7c <tee_map_zi+0x30>  // b.any
/home/nk/optee/optee_os/lib/libutee/tee_system_pta.c:47
    2a90:	52800020 	mov	w0, #0x1                   	// #1
    2a94:	b90027e0 	str	w0, [sp, #36]
/home/nk/optee/optee_os/lib/libutee/tee_system_pta.c:53
    2a98:	910083e2 	add	x2, sp, #0x20
    2a9c:	52802621 	mov	w1, #0x131                 	// #305
    2aa0:	52800040 	mov	w0, #0x2                   	// #2
    2aa4:	97ffffc8 	bl	29c4 <invoke_system_pta>
/home/nk/optee/optee_os/lib/libutee/tee_system_pta.c:54
    2aa8:	35fffea0 	cbnz	w0, 2a7c <tee_map_zi+0x30>
reg_pair_to_64():
/home/nk/optee/optee_os/lib/libutils/ext/include/util.h:154
    2aac:	294607e0 	ldp	w0, w1, [sp, #48]
    2ab0:	aa008020 	orr	x0, x1, x0, lsl #32
tee_map_zi():
/home/nk/optee/optee_os/lib/libutee/tee_system_pta.c:59
    2ab4:	a94153f3 	ldp	x19, x20, [sp, #16]
    2ab8:	a8c67bfd 	ldp	x29, x30, [sp], #96
    2abc:	d65f03c0 	ret

0000000000002ac0 <tee_unmap>:
tee_unmap():
/home/nk/optee/optee_os/lib/libutee/tee_system_pta.c:62
    2ac0:	a9b97bfd 	stp	x29, x30, [sp, #-112]!
/home/nk/optee/optee_os/lib/libutee/tee_system_pta.c:68
    2ac4:	d2800782 	mov	x2, #0x3c                  	// #60
/home/nk/optee/optee_os/lib/libutee/tee_system_pta.c:62
    2ac8:	910003fd 	mov	x29, sp
    2acc:	a90153f3 	stp	x19, x20, [sp, #16]
    2ad0:	aa0003f3 	mov	x19, x0
/home/nk/optee/optee_os/lib/libutee/tee_system_pta.c:68
    2ad4:	9100d3e0 	add	x0, sp, #0x34
/home/nk/optee/optee_os/lib/libutee/tee_system_pta.c:62
    2ad8:	f90013f5 	str	x21, [sp, #32]
    2adc:	aa0103f5 	mov	x21, x1
/home/nk/optee/optee_os/lib/libutee/tee_system_pta.c:68
    2ae0:	52800001 	mov	w1, #0x0                   	// #0
    2ae4:	94001b28 	bl	9784 <memset>
reg_pair_from_64():
/home/nk/optee/optee_os/lib/libutils/ext/include/util.h:160
    2ae8:	d360fe60 	lsr	x0, x19, #32
tee_unmap():
/home/nk/optee/optee_os/lib/libutee/tee_system_pta.c:73
    2aec:	9100c3e2 	add	x2, sp, #0x30
    2af0:	52800221 	mov	w1, #0x11                  	// #17
/home/nk/optee/optee_os/lib/libutee/tee_system_pta.c:70
    2af4:	b90033f5 	str	w21, [sp, #48]
reg_pair_from_64():
/home/nk/optee/optee_os/lib/libutils/ext/include/util.h:161
    2af8:	29084fe0 	stp	w0, w19, [sp, #64]
tee_unmap():
/home/nk/optee/optee_os/lib/libutee/tee_system_pta.c:73
    2afc:	52800060 	mov	w0, #0x3                   	// #3
    2b00:	97ffffb1 	bl	29c4 <invoke_system_pta>
    2b04:	2a0003f4 	mov	w20, w0
/home/nk/optee/optee_os/lib/libutee/tee_system_pta.c:74
    2b08:	34000180 	cbz	w0, 2b38 <tee_unmap+0x78>
/home/nk/optee/optee_os/lib/libutee/tee_system_pta.c:75
    2b0c:	b0000040 	adrp	x0, b000 <__text_end+0x15f0>
    2b10:	9128c000 	add	x0, x0, #0xa30
    2b14:	b0000044 	adrp	x4, b000 <__text_end+0x15f0>
    2b18:	aa1503e6 	mov	x6, x21
    2b1c:	aa1303e5 	mov	x5, x19
    2b20:	913fe084 	add	x4, x4, #0xff8
    2b24:	52800023 	mov	w3, #0x1                   	// #1
    2b28:	52800022 	mov	w2, #0x1                   	// #1
    2b2c:	52800961 	mov	w1, #0x4b                  	// #75
    2b30:	91004000 	add	x0, x0, #0x10
    2b34:	97fff6d7 	bl	690 <trace_printf>
/home/nk/optee/optee_os/lib/libutee/tee_system_pta.c:78
    2b38:	2a1403e0 	mov	w0, w20
    2b3c:	a94153f3 	ldp	x19, x20, [sp, #16]
    2b40:	f94013f5 	ldr	x21, [sp, #32]
    2b44:	a8c77bfd 	ldp	x29, x30, [sp], #112
    2b48:	d65f03c0 	ret

0000000000002b4c <_utee_panic>:
_utee_panic():
/home/nk/optee/optee_os/lib/libutee/arch/arm/utee_syscalls_a64.S:41
    2b4c:	a9bf7bfd 	stp	x29, x30, [sp, #-16]!
/home/nk/optee/optee_os/lib/libutee/arch/arm/utee_syscalls_a64.S:42
    2b50:	910003e1 	mov	x1, sp
/home/nk/optee/optee_os/lib/libutee/arch/arm/utee_syscalls_a64.S:43
    2b54:	94000007 	bl	2b70 <__utee_panic>

0000000000002b58 <_utee_return>:
_utee_return():
/home/nk/optee/optee_os/lib/libutee/arch/arm/utee_syscalls_asm.S:8
    2b58:	d2800008 	mov	x8, #0x0                   	// #0
    2b5c:	d4000001 	svc	#0x0
    2b60:	d65f03c0 	ret

0000000000002b64 <_utee_log>:
_utee_log():
/home/nk/optee/optee_os/lib/libutee/arch/arm/utee_syscalls_asm.S:10
    2b64:	d2800028 	mov	x8, #0x1                   	// #1
    2b68:	d4000001 	svc	#0x0
    2b6c:	d65f03c0 	ret

0000000000002b70 <__utee_panic>:
__utee_panic():
/home/nk/optee/optee_os/lib/libutee/arch/arm/utee_syscalls_asm.S:12
    2b70:	d2800048 	mov	x8, #0x2                   	// #2
    2b74:	d4000001 	svc	#0x0
    2b78:	d65f03c0 	ret

0000000000002b7c <_utee_get_property>:
_utee_get_property():
/home/nk/optee/optee_os/lib/libutee/arch/arm/utee_syscalls_asm.S:14
    2b7c:	d2800068 	mov	x8, #0x3                   	// #3
    2b80:	d4000001 	svc	#0x0
    2b84:	d65f03c0 	ret

0000000000002b88 <_utee_get_property_name_to_index>:
_utee_get_property_name_to_index():
/home/nk/optee/optee_os/lib/libutee/arch/arm/utee_syscalls_asm.S:16
    2b88:	d2800088 	mov	x8, #0x4                   	// #4
    2b8c:	d4000001 	svc	#0x0
    2b90:	d65f03c0 	ret

0000000000002b94 <_utee_open_ta_session>:
_utee_open_ta_session():
/home/nk/optee/optee_os/lib/libutee/arch/arm/utee_syscalls_asm.S:19
    2b94:	d28000a8 	mov	x8, #0x5                   	// #5
    2b98:	d4000001 	svc	#0x0
    2b9c:	d65f03c0 	ret

0000000000002ba0 <_utee_close_ta_session>:
_utee_close_ta_session():
/home/nk/optee/optee_os/lib/libutee/arch/arm/utee_syscalls_asm.S:21
    2ba0:	d28000c8 	mov	x8, #0x6                   	// #6
    2ba4:	d4000001 	svc	#0x0
    2ba8:	d65f03c0 	ret

0000000000002bac <_utee_invoke_ta_command>:
_utee_invoke_ta_command():
/home/nk/optee/optee_os/lib/libutee/arch/arm/utee_syscalls_asm.S:23
    2bac:	d28000e8 	mov	x8, #0x7                   	// #7
    2bb0:	d4000001 	svc	#0x0
    2bb4:	d65f03c0 	ret

0000000000002bb8 <_utee_get_cancellation_flag>:
_utee_get_cancellation_flag():
/home/nk/optee/optee_os/lib/libutee/arch/arm/utee_syscalls_asm.S:25
    2bb8:	d2800128 	mov	x8, #0x9                   	// #9
    2bbc:	d4000001 	svc	#0x0
    2bc0:	d65f03c0 	ret

0000000000002bc4 <_utee_check_access_rights>:
_utee_check_access_rights():
/home/nk/optee/optee_os/lib/libutee/arch/arm/utee_syscalls_asm.S:28
    2bc4:	d2800108 	mov	x8, #0x8                   	// #8
    2bc8:	d4000001 	svc	#0x0
    2bcc:	d65f03c0 	ret

0000000000002bd0 <_utee_unmask_cancellation>:
_utee_unmask_cancellation():
/home/nk/optee/optee_os/lib/libutee/arch/arm/utee_syscalls_asm.S:30
    2bd0:	d2800148 	mov	x8, #0xa                   	// #10
    2bd4:	d4000001 	svc	#0x0
    2bd8:	d65f03c0 	ret

0000000000002bdc <_utee_mask_cancellation>:
_utee_mask_cancellation():
/home/nk/optee/optee_os/lib/libutee/arch/arm/utee_syscalls_asm.S:32
    2bdc:	d2800168 	mov	x8, #0xb                   	// #11
    2be0:	d4000001 	svc	#0x0
    2be4:	d65f03c0 	ret

0000000000002be8 <_utee_wait>:
_utee_wait():
/home/nk/optee/optee_os/lib/libutee/arch/arm/utee_syscalls_asm.S:34
    2be8:	d2800188 	mov	x8, #0xc                   	// #12
    2bec:	d4000001 	svc	#0x0
    2bf0:	d65f03c0 	ret

0000000000002bf4 <_utee_get_time>:
_utee_get_time():
/home/nk/optee/optee_os/lib/libutee/arch/arm/utee_syscalls_asm.S:36
    2bf4:	d28001a8 	mov	x8, #0xd                   	// #13
    2bf8:	d4000001 	svc	#0x0
    2bfc:	d65f03c0 	ret

0000000000002c00 <_utee_set_ta_time>:
_utee_set_ta_time():
/home/nk/optee/optee_os/lib/libutee/arch/arm/utee_syscalls_asm.S:38
    2c00:	d28001c8 	mov	x8, #0xe                   	// #14
    2c04:	d4000001 	svc	#0x0
    2c08:	d65f03c0 	ret

0000000000002c0c <_utee_cryp_state_alloc>:
_utee_cryp_state_alloc():
/home/nk/optee/optee_os/lib/libutee/arch/arm/utee_syscalls_asm.S:40
    2c0c:	d28001e8 	mov	x8, #0xf                   	// #15
    2c10:	d4000001 	svc	#0x0
    2c14:	d65f03c0 	ret

0000000000002c18 <_utee_cryp_state_copy>:
_utee_cryp_state_copy():
/home/nk/optee/optee_os/lib/libutee/arch/arm/utee_syscalls_asm.S:42
    2c18:	d2800208 	mov	x8, #0x10                  	// #16
    2c1c:	d4000001 	svc	#0x0
    2c20:	d65f03c0 	ret

0000000000002c24 <_utee_cryp_state_free>:
_utee_cryp_state_free():
/home/nk/optee/optee_os/lib/libutee/arch/arm/utee_syscalls_asm.S:44
    2c24:	d2800228 	mov	x8, #0x11                  	// #17
    2c28:	d4000001 	svc	#0x0
    2c2c:	d65f03c0 	ret

0000000000002c30 <_utee_hash_init>:
_utee_hash_init():
/home/nk/optee/optee_os/lib/libutee/arch/arm/utee_syscalls_asm.S:46
    2c30:	d2800248 	mov	x8, #0x12                  	// #18
    2c34:	d4000001 	svc	#0x0
    2c38:	d65f03c0 	ret

0000000000002c3c <_utee_hash_update>:
_utee_hash_update():
/home/nk/optee/optee_os/lib/libutee/arch/arm/utee_syscalls_asm.S:48
    2c3c:	d2800268 	mov	x8, #0x13                  	// #19
    2c40:	d4000001 	svc	#0x0
    2c44:	d65f03c0 	ret

0000000000002c48 <_utee_hash_final>:
_utee_hash_final():
/home/nk/optee/optee_os/lib/libutee/arch/arm/utee_syscalls_asm.S:50
    2c48:	d2800288 	mov	x8, #0x14                  	// #20
    2c4c:	d4000001 	svc	#0x0
    2c50:	d65f03c0 	ret

0000000000002c54 <_utee_cipher_init>:
_utee_cipher_init():
/home/nk/optee/optee_os/lib/libutee/arch/arm/utee_syscalls_asm.S:52
    2c54:	d28002a8 	mov	x8, #0x15                  	// #21
    2c58:	d4000001 	svc	#0x0
    2c5c:	d65f03c0 	ret

0000000000002c60 <_utee_cipher_update>:
_utee_cipher_update():
/home/nk/optee/optee_os/lib/libutee/arch/arm/utee_syscalls_asm.S:54
    2c60:	d28002c8 	mov	x8, #0x16                  	// #22
    2c64:	d4000001 	svc	#0x0
    2c68:	d65f03c0 	ret

0000000000002c6c <_utee_cipher_final>:
_utee_cipher_final():
/home/nk/optee/optee_os/lib/libutee/arch/arm/utee_syscalls_asm.S:56
    2c6c:	d28002e8 	mov	x8, #0x17                  	// #23
    2c70:	d4000001 	svc	#0x0
    2c74:	d65f03c0 	ret

0000000000002c78 <_utee_cryp_obj_get_info>:
_utee_cryp_obj_get_info():
/home/nk/optee/optee_os/lib/libutee/arch/arm/utee_syscalls_asm.S:58
    2c78:	d2800308 	mov	x8, #0x18                  	// #24
    2c7c:	d4000001 	svc	#0x0
    2c80:	d65f03c0 	ret

0000000000002c84 <_utee_cryp_obj_restrict_usage>:
_utee_cryp_obj_restrict_usage():
/home/nk/optee/optee_os/lib/libutee/arch/arm/utee_syscalls_asm.S:60
    2c84:	d2800328 	mov	x8, #0x19                  	// #25
    2c88:	d4000001 	svc	#0x0
    2c8c:	d65f03c0 	ret

0000000000002c90 <_utee_cryp_obj_get_attr>:
_utee_cryp_obj_get_attr():
/home/nk/optee/optee_os/lib/libutee/arch/arm/utee_syscalls_asm.S:63
    2c90:	d2800348 	mov	x8, #0x1a                  	// #26
    2c94:	d4000001 	svc	#0x0
    2c98:	d65f03c0 	ret

0000000000002c9c <_utee_cryp_obj_alloc>:
_utee_cryp_obj_alloc():
/home/nk/optee/optee_os/lib/libutee/arch/arm/utee_syscalls_asm.S:65
    2c9c:	d2800368 	mov	x8, #0x1b                  	// #27
    2ca0:	d4000001 	svc	#0x0
    2ca4:	d65f03c0 	ret

0000000000002ca8 <_utee_cryp_obj_close>:
_utee_cryp_obj_close():
/home/nk/optee/optee_os/lib/libutee/arch/arm/utee_syscalls_asm.S:67
    2ca8:	d2800388 	mov	x8, #0x1c                  	// #28
    2cac:	d4000001 	svc	#0x0
    2cb0:	d65f03c0 	ret

0000000000002cb4 <_utee_cryp_obj_reset>:
_utee_cryp_obj_reset():
/home/nk/optee/optee_os/lib/libutee/arch/arm/utee_syscalls_asm.S:69
    2cb4:	d28003a8 	mov	x8, #0x1d                  	// #29
    2cb8:	d4000001 	svc	#0x0
    2cbc:	d65f03c0 	ret

0000000000002cc0 <_utee_cryp_obj_populate>:
_utee_cryp_obj_populate():
/home/nk/optee/optee_os/lib/libutee/arch/arm/utee_syscalls_asm.S:71
    2cc0:	d28003c8 	mov	x8, #0x1e                  	// #30
    2cc4:	d4000001 	svc	#0x0
    2cc8:	d65f03c0 	ret

0000000000002ccc <_utee_cryp_obj_copy>:
_utee_cryp_obj_copy():
/home/nk/optee/optee_os/lib/libutee/arch/arm/utee_syscalls_asm.S:73
    2ccc:	d28003e8 	mov	x8, #0x1f                  	// #31
    2cd0:	d4000001 	svc	#0x0
    2cd4:	d65f03c0 	ret

0000000000002cd8 <_utee_cryp_derive_key>:
_utee_cryp_derive_key():
/home/nk/optee/optee_os/lib/libutee/arch/arm/utee_syscalls_asm.S:75
    2cd8:	d2800408 	mov	x8, #0x20                  	// #32
    2cdc:	d4000001 	svc	#0x0
    2ce0:	d65f03c0 	ret

0000000000002ce4 <_utee_cryp_random_number_generate>:
_utee_cryp_random_number_generate():
/home/nk/optee/optee_os/lib/libutee/arch/arm/utee_syscalls_asm.S:77
    2ce4:	d2800428 	mov	x8, #0x21                  	// #33
    2ce8:	d4000001 	svc	#0x0
    2cec:	d65f03c0 	ret

0000000000002cf0 <_utee_authenc_init>:
_utee_authenc_init():
/home/nk/optee/optee_os/lib/libutee/arch/arm/utee_syscalls_asm.S:80
    2cf0:	d2800448 	mov	x8, #0x22                  	// #34
    2cf4:	d4000001 	svc	#0x0
    2cf8:	d65f03c0 	ret

0000000000002cfc <_utee_authenc_update_aad>:
_utee_authenc_update_aad():
/home/nk/optee/optee_os/lib/libutee/arch/arm/utee_syscalls_asm.S:82
    2cfc:	d2800468 	mov	x8, #0x23                  	// #35
    2d00:	d4000001 	svc	#0x0
    2d04:	d65f03c0 	ret

0000000000002d08 <_utee_authenc_update_payload>:
_utee_authenc_update_payload():
/home/nk/optee/optee_os/lib/libutee/arch/arm/utee_syscalls_asm.S:84
    2d08:	d2800488 	mov	x8, #0x24                  	// #36
    2d0c:	d4000001 	svc	#0x0
    2d10:	d65f03c0 	ret

0000000000002d14 <_utee_authenc_enc_final>:
_utee_authenc_enc_final():
/home/nk/optee/optee_os/lib/libutee/arch/arm/utee_syscalls_asm.S:87
    2d14:	d28004a8 	mov	x8, #0x25                  	// #37
    2d18:	d4000001 	svc	#0x0
    2d1c:	d65f03c0 	ret

0000000000002d20 <_utee_authenc_dec_final>:
_utee_authenc_dec_final():
/home/nk/optee/optee_os/lib/libutee/arch/arm/utee_syscalls_asm.S:89
    2d20:	d28004c8 	mov	x8, #0x26                  	// #38
    2d24:	d4000001 	svc	#0x0
    2d28:	d65f03c0 	ret

0000000000002d2c <_utee_asymm_operate>:
_utee_asymm_operate():
/home/nk/optee/optee_os/lib/libutee/arch/arm/utee_syscalls_asm.S:91
    2d2c:	d28004e8 	mov	x8, #0x27                  	// #39
    2d30:	d4000001 	svc	#0x0
    2d34:	d65f03c0 	ret

0000000000002d38 <_utee_asymm_verify>:
_utee_asymm_verify():
/home/nk/optee/optee_os/lib/libutee/arch/arm/utee_syscalls_asm.S:93
    2d38:	d2800508 	mov	x8, #0x28                  	// #40
    2d3c:	d4000001 	svc	#0x0
    2d40:	d65f03c0 	ret

0000000000002d44 <_utee_storage_obj_open>:
_utee_storage_obj_open():
/home/nk/optee/optee_os/lib/libutee/arch/arm/utee_syscalls_asm.S:95
    2d44:	d2800528 	mov	x8, #0x29                  	// #41
    2d48:	d4000001 	svc	#0x0
    2d4c:	d65f03c0 	ret

0000000000002d50 <_utee_storage_obj_create>:
_utee_storage_obj_create():
/home/nk/optee/optee_os/lib/libutee/arch/arm/utee_syscalls_asm.S:97
    2d50:	d2800548 	mov	x8, #0x2a                  	// #42
    2d54:	d4000001 	svc	#0x0
    2d58:	d65f03c0 	ret

0000000000002d5c <_utee_storage_obj_del>:
_utee_storage_obj_del():
/home/nk/optee/optee_os/lib/libutee/arch/arm/utee_syscalls_asm.S:99
    2d5c:	d2800568 	mov	x8, #0x2b                  	// #43
    2d60:	d4000001 	svc	#0x0
    2d64:	d65f03c0 	ret

0000000000002d68 <_utee_storage_obj_rename>:
_utee_storage_obj_rename():
/home/nk/optee/optee_os/lib/libutee/arch/arm/utee_syscalls_asm.S:101
    2d68:	d2800588 	mov	x8, #0x2c                  	// #44
    2d6c:	d4000001 	svc	#0x0
    2d70:	d65f03c0 	ret

0000000000002d74 <_utee_storage_alloc_enum>:
_utee_storage_alloc_enum():
/home/nk/optee/optee_os/lib/libutee/arch/arm/utee_syscalls_asm.S:103
    2d74:	d28005a8 	mov	x8, #0x2d                  	// #45
    2d78:	d4000001 	svc	#0x0
    2d7c:	d65f03c0 	ret

0000000000002d80 <_utee_storage_free_enum>:
_utee_storage_free_enum():
/home/nk/optee/optee_os/lib/libutee/arch/arm/utee_syscalls_asm.S:105
    2d80:	d28005c8 	mov	x8, #0x2e                  	// #46
    2d84:	d4000001 	svc	#0x0
    2d88:	d65f03c0 	ret

0000000000002d8c <_utee_storage_reset_enum>:
_utee_storage_reset_enum():
/home/nk/optee/optee_os/lib/libutee/arch/arm/utee_syscalls_asm.S:107
    2d8c:	d28005e8 	mov	x8, #0x2f                  	// #47
    2d90:	d4000001 	svc	#0x0
    2d94:	d65f03c0 	ret

0000000000002d98 <_utee_storage_start_enum>:
_utee_storage_start_enum():
/home/nk/optee/optee_os/lib/libutee/arch/arm/utee_syscalls_asm.S:109
    2d98:	d2800608 	mov	x8, #0x30                  	// #48
    2d9c:	d4000001 	svc	#0x0
    2da0:	d65f03c0 	ret

0000000000002da4 <_utee_storage_next_enum>:
_utee_storage_next_enum():
/home/nk/optee/optee_os/lib/libutee/arch/arm/utee_syscalls_asm.S:111
    2da4:	d2800628 	mov	x8, #0x31                  	// #49
    2da8:	d4000001 	svc	#0x0
    2dac:	d65f03c0 	ret

0000000000002db0 <_utee_storage_obj_read>:
_utee_storage_obj_read():
/home/nk/optee/optee_os/lib/libutee/arch/arm/utee_syscalls_asm.S:113
    2db0:	d2800648 	mov	x8, #0x32                  	// #50
    2db4:	d4000001 	svc	#0x0
    2db8:	d65f03c0 	ret

0000000000002dbc <_utee_storage_obj_write>:
_utee_storage_obj_write():
/home/nk/optee/optee_os/lib/libutee/arch/arm/utee_syscalls_asm.S:115
    2dbc:	d2800668 	mov	x8, #0x33                  	// #51
    2dc0:	d4000001 	svc	#0x0
    2dc4:	d65f03c0 	ret

0000000000002dc8 <_utee_storage_obj_trunc>:
_utee_storage_obj_trunc():
/home/nk/optee/optee_os/lib/libutee/arch/arm/utee_syscalls_asm.S:117
    2dc8:	d2800688 	mov	x8, #0x34                  	// #52
    2dcc:	d4000001 	svc	#0x0
    2dd0:	d65f03c0 	ret

0000000000002dd4 <_utee_storage_obj_seek>:
_utee_storage_obj_seek():
/home/nk/optee/optee_os/lib/libutee/arch/arm/utee_syscalls_asm.S:119
    2dd4:	d28006a8 	mov	x8, #0x35                  	// #53
    2dd8:	d4000001 	svc	#0x0
    2ddc:	d65f03c0 	ret

0000000000002de0 <_utee_cryp_obj_generate_key>:
_utee_cryp_obj_generate_key():
/home/nk/optee/optee_os/lib/libutee/arch/arm/utee_syscalls_asm.S:121
    2de0:	d28006c8 	mov	x8, #0x36                  	// #54
    2de4:	d4000001 	svc	#0x0
    2de8:	d65f03c0 	ret

0000000000002dec <_utee_cache_operation>:
_utee_cache_operation():
/home/nk/optee/optee_os/lib/libutee/arch/arm/utee_syscalls_asm.S:124
    2dec:	d28008c8 	mov	x8, #0x46                  	// #70
    2df0:	d4000001 	svc	#0x0
    2df4:	d65f03c0 	ret

0000000000002df8 <ta_header_get_session>:
ta_header_get_session():
/home/nk/optee/optee_os/lib/libutee/arch/arm/user_ta_entry.c:102
    2df8:	2a0003e1 	mov	w1, w0
/home/nk/optee/optee_os/lib/libutee/arch/arm/user_ta_entry.c:105
    2dfc:	f0000040 	adrp	x0, d000 <_DYNAMIC>
    2e00:	f941d400 	ldr	x0, [x0, #936]
/home/nk/optee/optee_os/lib/libutee/arch/arm/user_ta_entry.c:105 (discriminator 1)
    2e04:	b5000040 	cbnz	x0, 2e0c <ta_header_get_session+0x14>
/home/nk/optee/optee_os/lib/libutee/arch/arm/user_ta_entry.c:110
    2e08:	d65f03c0 	ret
/home/nk/optee/optee_os/lib/libutee/arch/arm/user_ta_entry.c:106
    2e0c:	b9400002 	ldr	w2, [x0]
    2e10:	6b01005f 	cmp	w2, w1
    2e14:	54ffffa0 	b.eq	2e08 <ta_header_get_session+0x10>  // b.none
/home/nk/optee/optee_os/lib/libutee/arch/arm/user_ta_entry.c:105 (discriminator 2)
    2e18:	f9400800 	ldr	x0, [x0, #16]
    2e1c:	17fffffa 	b	2e04 <ta_header_get_session+0xc>

0000000000002e20 <to_utee_params>:
to_utee_params():
/home/nk/optee/optee_os/lib/libutee/arch/arm/user_ta_entry.c:166
    2e20:	b0000045 	adrp	x5, b000 <__text_end+0x15f0>
    2e24:	912930a5 	add	x5, x5, #0xa4c
/home/nk/optee/optee_os/lib/libutee/arch/arm/user_ta_entry.c:164
    2e28:	2a0103e3 	mov	w3, w1
    2e2c:	52800004 	mov	w4, #0x0                   	// #0
    2e30:	f8008403 	str	x3, [x0], #8
/home/nk/optee/optee_os/lib/libutee/arch/arm/user_ta_entry.c:166
    2e34:	1ac42423 	lsr	w3, w1, w4
    2e38:	12000c63 	and	w3, w3, #0xf
    2e3c:	51000463 	sub	w3, w3, #0x1
    2e40:	7100187f 	cmp	w3, #0x6
    2e44:	54000268 	b.hi	2e90 <to_utee_params+0x70>  // b.pmore
    2e48:	386348a3 	ldrb	w3, [x5, w3, uxtw]
    2e4c:	10000066 	adr	x6, 2e58 <to_utee_params+0x38>
    2e50:	8b2388c3 	add	x3, x6, w3, sxtb #2
    2e54:	d61f0060 	br	x3
/home/nk/optee/optee_os/lib/libutee/arch/arm/user_ta_entry.c:170
    2e58:	b9400043 	ldr	w3, [x2]
    2e5c:	f9000003 	str	x3, [x0]
/home/nk/optee/optee_os/lib/libutee/arch/arm/user_ta_entry.c:171
    2e60:	b9400443 	ldr	w3, [x2, #4]
/home/nk/optee/optee_os/lib/libutee/arch/arm/user_ta_entry.c:177
    2e64:	f9000403 	str	x3, [x0, #8]
/home/nk/optee/optee_os/lib/libutee/arch/arm/user_ta_entry.c:178
    2e68:	11001084 	add	w4, w4, #0x4
    2e6c:	91004042 	add	x2, x2, #0x10
    2e70:	91004000 	add	x0, x0, #0x10
/home/nk/optee/optee_os/lib/libutee/arch/arm/user_ta_entry.c:165 (discriminator 2)
    2e74:	7100409f 	cmp	w4, #0x10
    2e78:	54fffde1 	b.ne	2e34 <to_utee_params+0x14>  // b.any
/home/nk/optee/optee_os/lib/libutee/arch/arm/user_ta_entry.c:185
    2e7c:	d65f03c0 	ret
/home/nk/optee/optee_os/lib/libutee/arch/arm/user_ta_entry.c:176
    2e80:	f9400043 	ldr	x3, [x2]
    2e84:	f9000003 	str	x3, [x0]
/home/nk/optee/optee_os/lib/libutee/arch/arm/user_ta_entry.c:177
    2e88:	b9400843 	ldr	w3, [x2, #8]
    2e8c:	17fffff6 	b	2e64 <to_utee_params+0x44>
/home/nk/optee/optee_os/lib/libutee/arch/arm/user_ta_entry.c:181
    2e90:	a9007c1f 	stp	xzr, xzr, [x0]
/home/nk/optee/optee_os/lib/libutee/arch/arm/user_ta_entry.c:182
    2e94:	17fffff5 	b	2e68 <to_utee_params+0x48>

0000000000002e98 <from_utee_params>:
from_utee_params():
/home/nk/optee/optee_os/lib/libutee/arch/arm/user_ta_entry.c:192
    2e98:	f8408446 	ldr	x6, [x2], #8
/home/nk/optee/optee_os/lib/libutee/arch/arm/user_ta_entry.c:198
    2e9c:	b0000045 	adrp	x5, b000 <__text_end+0x15f0>
    2ea0:	912950a5 	add	x5, x5, #0xa54
/home/nk/optee/optee_os/lib/libutee/arch/arm/user_ta_entry.c:192
    2ea4:	52800004 	mov	w4, #0x0                   	// #0
    2ea8:	2a0603e9 	mov	w9, w6
/home/nk/optee/optee_os/lib/libutee/arch/arm/user_ta_entry.c:198
    2eac:	1ac42523 	lsr	w3, w9, w4
    2eb0:	12000c63 	and	w3, w3, #0xf
    2eb4:	51000463 	sub	w3, w3, #0x1
    2eb8:	7100187f 	cmp	w3, #0x6
/home/nk/optee/optee_os/lib/libutee/arch/arm/user_ta_entry.c:196
    2ebc:	a9401c48 	ldp	x8, x7, [x2]
/home/nk/optee/optee_os/lib/libutee/arch/arm/user_ta_entry.c:198
    2ec0:	540000c8 	b.hi	2ed8 <from_utee_params+0x40>  // b.pmore
    2ec4:	386348a3 	ldrb	w3, [x5, w3, uxtw]
    2ec8:	1000006a 	adr	x10, 2ed4 <from_utee_params+0x3c>
    2ecc:	8b238943 	add	x3, x10, w3, sxtb #2
    2ed0:	d61f0060 	br	x3
/home/nk/optee/optee_os/lib/libutee/arch/arm/user_ta_entry.c:203
    2ed4:	29001c08 	stp	w8, w7, [x0]
/home/nk/optee/optee_os/lib/libutee/arch/arm/user_ta_entry.c:204
    2ed8:	11001084 	add	w4, w4, #0x4
    2edc:	91004042 	add	x2, x2, #0x10
    2ee0:	91004000 	add	x0, x0, #0x10
/home/nk/optee/optee_os/lib/libutee/arch/arm/user_ta_entry.c:194 (discriminator 2)
    2ee4:	7100409f 	cmp	w4, #0x10
    2ee8:	54fffe21 	b.ne	2eac <from_utee_params+0x14>  // b.any
/home/nk/optee/optee_os/lib/libutee/arch/arm/user_ta_entry.c:217
    2eec:	b9000026 	str	w6, [x1]
/home/nk/optee/optee_os/lib/libutee/arch/arm/user_ta_entry.c:218
    2ef0:	d65f03c0 	ret
/home/nk/optee/optee_os/lib/libutee/arch/arm/user_ta_entry.c:208
    2ef4:	f9000008 	str	x8, [x0]
/home/nk/optee/optee_os/lib/libutee/arch/arm/user_ta_entry.c:209
    2ef8:	b9000807 	str	w7, [x0, #8]
/home/nk/optee/optee_os/lib/libutee/arch/arm/user_ta_entry.c:210
    2efc:	17fffff7 	b	2ed8 <from_utee_params+0x40>

0000000000002f00 <ta_header_save_params.part.0>:
ta_header_save_params():
/home/nk/optee/optee_os/lib/libutee/arch/arm/user_ta_entry.c:98
    2f00:	f0000040 	adrp	x0, d000 <_DYNAMIC>
    2f04:	d2800802 	mov	x2, #0x40                  	// #64
    2f08:	52800001 	mov	w1, #0x0                   	// #0
    2f0c:	f940c000 	ldr	x0, [x0, #384]
    2f10:	14001a1d 	b	9784 <memset>

0000000000002f14 <__utee_call_elf_init_fn>:
__utee_call_elf_init_fn():
/home/nk/optee/optee_os/lib/libutee/arch/arm/user_ta_entry.c:39
    2f14:	a9ba7bfd 	stp	x29, x30, [sp, #-96]!
/home/nk/optee/optee_os/lib/libutee/arch/arm/user_ta_entry.c:40
    2f18:	f0000041 	adrp	x1, d000 <_DYNAMIC>
/home/nk/optee/optee_os/lib/libutee/arch/arm/user_ta_entry.c:39
    2f1c:	910003fd 	mov	x29, sp
/home/nk/optee/optee_os/lib/libutee/arch/arm/user_ta_entry.c:40
    2f20:	f940b421 	ldr	x1, [x1, #360]
/home/nk/optee/optee_os/lib/libutee/arch/arm/user_ta_entry.c:39
    2f24:	a90153f3 	stp	x19, x20, [sp, #16]
    2f28:	52800314 	mov	w20, #0x18                  	// #24
    2f2c:	a9025bf5 	stp	x21, x22, [sp, #32]
/home/nk/optee/optee_os/lib/libutee/arch/arm/user_ta_entry.c:46
    2f30:	aa0103f5 	mov	x21, x1
/home/nk/optee/optee_os/lib/libutee/arch/arm/user_ta_entry.c:40
    2f34:	79400820 	ldrh	w0, [x1, #4]
/home/nk/optee/optee_os/lib/libutee/arch/arm/user_ta_entry.c:39
    2f38:	a9046bf9 	stp	x25, x26, [sp, #64]
/home/nk/optee/optee_os/lib/libutee/arch/arm/user_ta_entry.c:44
    2f3c:	d2800033 	mov	x19, #0x1                   	// #1
/home/nk/optee/optee_os/lib/libutee/arch/arm/user_ta_entry.c:40
    2f40:	92403c1a 	and	x26, x0, #0xffff
/home/nk/optee/optee_os/lib/libutee/arch/arm/user_ta_entry.c:39
    2f44:	a90363f7 	stp	x23, x24, [sp, #48]
    2f48:	9bb47c14 	umull	x20, w0, w20
    2f4c:	f9002bfb 	str	x27, [sp, #80]
/home/nk/optee/optee_os/lib/libutee/arch/arm/user_ta_entry.c:46
    2f50:	928002fb 	mov	x27, #0xffffffffffffffe8    	// #-24
/home/nk/optee/optee_os/lib/libutee/arch/arm/user_ta_entry.c:44 (discriminator 1)
    2f54:	eb1a027f 	cmp	x19, x26
    2f58:	54000109 	b.ls	2f78 <__utee_call_elf_init_fn+0x64>  // b.plast
/home/nk/optee/optee_os/lib/libutee/arch/arm/user_ta_entry.c:54
    2f5c:	a94153f3 	ldp	x19, x20, [sp, #16]
    2f60:	a9425bf5 	ldp	x21, x22, [sp, #32]
    2f64:	a94363f7 	ldp	x23, x24, [sp, #48]
    2f68:	a9446bf9 	ldp	x25, x26, [sp, #64]
    2f6c:	f9402bfb 	ldr	x27, [sp, #80]
    2f70:	a8c67bfd 	ldp	x29, x30, [sp], #96
    2f74:	d65f03c0 	ret
/home/nk/optee/optee_os/lib/libutee/arch/arm/user_ta_entry.c:46
    2f78:	9b1b5276 	madd	x22, x19, x27, x20
    2f7c:	f94006b7 	ldr	x23, [x21, #8]
    2f80:	8b1602f9 	add	x25, x23, x22
/home/nk/optee/optee_os/lib/libutee/arch/arm/user_ta_entry.c:48
    2f84:	b8766ae0 	ldr	w0, [x23, x22]
    2f88:	360801c0 	tbz	w0, #1, 2fc0 <__utee_call_elf_init_fn+0xac>
/home/nk/optee/optee_os/lib/libutee/arch/arm/user_ta_entry.c:52
    2f8c:	b8766ae0 	ldr	w0, [x23, x22]
/home/nk/optee/optee_os/lib/libutee/arch/arm/user_ta_entry.c:44
    2f90:	91000673 	add	x19, x19, #0x1
/home/nk/optee/optee_os/lib/libutee/arch/arm/user_ta_entry.c:52
    2f94:	321f0000 	orr	w0, w0, #0x2
    2f98:	b8366ae0 	str	w0, [x23, x22]
    2f9c:	17ffffee 	b	2f54 <__utee_call_elf_init_fn+0x40>
/home/nk/optee/optee_os/lib/libutee/arch/arm/user_ta_entry.c:50 (discriminator 3)
    2fa0:	f9400720 	ldr	x0, [x25, #8]
    2fa4:	f8787800 	ldr	x0, [x0, x24, lsl #3]
/home/nk/optee/optee_os/lib/libutee/arch/arm/user_ta_entry.c:49 (discriminator 3)
    2fa8:	91000718 	add	x24, x24, #0x1
/home/nk/optee/optee_os/lib/libutee/arch/arm/user_ta_entry.c:50 (discriminator 3)
    2fac:	d63f0000 	blr	x0
/home/nk/optee/optee_os/lib/libutee/arch/arm/user_ta_entry.c:49 (discriminator 1)
    2fb0:	79400b20 	ldrh	w0, [x25, #4]
    2fb4:	eb18001f 	cmp	x0, x24
    2fb8:	54ffff48 	b.hi	2fa0 <__utee_call_elf_init_fn+0x8c>  // b.pmore
    2fbc:	17fffff4 	b	2f8c <__utee_call_elf_init_fn+0x78>
/home/nk/optee/optee_os/lib/libutee/arch/arm/user_ta_entry.c:49
    2fc0:	d2800018 	mov	x24, #0x0                   	// #0
    2fc4:	17fffffb 	b	2fb0 <__utee_call_elf_init_fn+0x9c>

0000000000002fc8 <__utee_call_elf_fini_fn>:
__utee_call_elf_fini_fn():
/home/nk/optee/optee_os/lib/libutee/arch/arm/user_ta_entry.c:57
    2fc8:	a9bb7bfd 	stp	x29, x30, [sp, #-80]!
/home/nk/optee/optee_os/lib/libutee/arch/arm/user_ta_entry.c:58
    2fcc:	f0000040 	adrp	x0, d000 <_DYNAMIC>
/home/nk/optee/optee_os/lib/libutee/arch/arm/user_ta_entry.c:57
    2fd0:	910003fd 	mov	x29, sp
/home/nk/optee/optee_os/lib/libutee/arch/arm/user_ta_entry.c:58
    2fd4:	f940b400 	ldr	x0, [x0, #360]
/home/nk/optee/optee_os/lib/libutee/arch/arm/user_ta_entry.c:57
    2fd8:	a9046bf9 	stp	x25, x26, [sp, #64]
/home/nk/optee/optee_os/lib/libutee/arch/arm/user_ta_entry.c:63
    2fdc:	d280031a 	mov	x26, #0x18                  	// #24
/home/nk/optee/optee_os/lib/libutee/arch/arm/user_ta_entry.c:57
    2fe0:	a90153f3 	stp	x19, x20, [sp, #16]
/home/nk/optee/optee_os/lib/libutee/arch/arm/user_ta_entry.c:63
    2fe4:	aa0003f4 	mov	x20, x0
/home/nk/optee/optee_os/lib/libutee/arch/arm/user_ta_entry.c:58
    2fe8:	79400819 	ldrh	w25, [x0, #4]
/home/nk/optee/optee_os/lib/libutee/arch/arm/user_ta_entry.c:62
    2fec:	d2800013 	mov	x19, #0x0                   	// #0
/home/nk/optee/optee_os/lib/libutee/arch/arm/user_ta_entry.c:57
    2ff0:	a9025bf5 	stp	x21, x22, [sp, #32]
    2ff4:	a90363f7 	stp	x23, x24, [sp, #48]
/home/nk/optee/optee_os/lib/libutee/arch/arm/user_ta_entry.c:62 (discriminator 1)
    2ff8:	eb19027f 	cmp	x19, x25
    2ffc:	540000e3 	b.cc	3018 <__utee_call_elf_fini_fn+0x50>  // b.lo, b.ul, b.last
/home/nk/optee/optee_os/lib/libutee/arch/arm/user_ta_entry.c:71
    3000:	a94153f3 	ldp	x19, x20, [sp, #16]
    3004:	a9425bf5 	ldp	x21, x22, [sp, #32]
    3008:	a94363f7 	ldp	x23, x24, [sp, #48]
    300c:	a9446bf9 	ldp	x25, x26, [sp, #64]
    3010:	a8c57bfd 	ldp	x29, x30, [sp], #80
    3014:	d65f03c0 	ret
/home/nk/optee/optee_os/lib/libutee/arch/arm/user_ta_entry.c:63
    3018:	9b1a7e75 	mul	x21, x19, x26
    301c:	f9400696 	ldr	x22, [x20, #8]
    3020:	8b1502d8 	add	x24, x22, x21
/home/nk/optee/optee_os/lib/libutee/arch/arm/user_ta_entry.c:65
    3024:	b8756ac0 	ldr	w0, [x22, x21]
    3028:	361001e0 	tbz	w0, #2, 3064 <__utee_call_elf_fini_fn+0x9c>
/home/nk/optee/optee_os/lib/libutee/arch/arm/user_ta_entry.c:69
    302c:	b8756ac0 	ldr	w0, [x22, x21]
/home/nk/optee/optee_os/lib/libutee/arch/arm/user_ta_entry.c:62
    3030:	91000673 	add	x19, x19, #0x1
/home/nk/optee/optee_os/lib/libutee/arch/arm/user_ta_entry.c:69
    3034:	321e0000 	orr	w0, w0, #0x4
    3038:	b8356ac0 	str	w0, [x22, x21]
    303c:	17ffffef 	b	2ff8 <__utee_call_elf_fini_fn+0x30>
/home/nk/optee/optee_os/lib/libutee/arch/arm/user_ta_entry.c:67 (discriminator 3)
    3040:	f9400b01 	ldr	x1, [x24, #16]
    3044:	cb170000 	sub	x0, x0, x23
/home/nk/optee/optee_os/lib/libutee/arch/arm/user_ta_entry.c:66 (discriminator 3)
    3048:	910006f7 	add	x23, x23, #0x1
/home/nk/optee/optee_os/lib/libutee/arch/arm/user_ta_entry.c:67 (discriminator 3)
    304c:	f8607820 	ldr	x0, [x1, x0, lsl #3]
    3050:	d63f0000 	blr	x0
/home/nk/optee/optee_os/lib/libutee/arch/arm/user_ta_entry.c:66 (discriminator 1)
    3054:	79400f00 	ldrh	w0, [x24, #6]
    3058:	eb17001f 	cmp	x0, x23
    305c:	54ffff22 	b.cs	3040 <__utee_call_elf_fini_fn+0x78>  // b.hs, b.nlast
    3060:	17fffff3 	b	302c <__utee_call_elf_fini_fn+0x64>
/home/nk/optee/optee_os/lib/libutee/arch/arm/user_ta_entry.c:66
    3064:	d2800037 	mov	x23, #0x1                   	// #1
    3068:	17fffffb 	b	3054 <__utee_call_elf_fini_fn+0x8c>

000000000000306c <ta_header_remove_session>:
ta_header_remove_session():
/home/nk/optee/optee_os/lib/libutee/arch/arm/user_ta_entry.c:139
    306c:	a9be7bfd 	stp	x29, x30, [sp, #-32]!
    3070:	2a0003e2 	mov	w2, w0
    3074:	910003fd 	mov	x29, sp
    3078:	f9000bf3 	str	x19, [sp, #16]
/home/nk/optee/optee_os/lib/libutee/arch/arm/user_ta_entry.c:143
    307c:	d0000053 	adrp	x19, d000 <_DYNAMIC>
    3080:	f941d660 	ldr	x0, [x19, #936]
/home/nk/optee/optee_os/lib/libutee/arch/arm/user_ta_entry.c:143 (discriminator 1)
    3084:	b5000080 	cbnz	x0, 3094 <ta_header_remove_session+0x28>
/home/nk/optee/optee_os/lib/libutee/arch/arm/user_ta_entry.c:157
    3088:	f9400bf3 	ldr	x19, [sp, #16]
    308c:	a8c27bfd 	ldp	x29, x30, [sp], #32
    3090:	d65f03c0 	ret
/home/nk/optee/optee_os/lib/libutee/arch/arm/user_ta_entry.c:144
    3094:	b9400003 	ldr	w3, [x0]
    3098:	f9400801 	ldr	x1, [x0, #16]
    309c:	6b02007f 	cmp	w3, w2
    30a0:	540002e1 	b.ne	30fc <ta_header_remove_session+0x90>  // b.any
/home/nk/optee/optee_os/lib/libutee/arch/arm/user_ta_entry.c:145
    30a4:	f9400c02 	ldr	x2, [x0, #24]
    30a8:	b4000241 	cbz	x1, 30f0 <ta_header_remove_session+0x84>
/home/nk/optee/optee_os/lib/libutee/arch/arm/user_ta_entry.c:145 (discriminator 1)
    30ac:	f9000c22 	str	x2, [x1, #24]
/home/nk/optee/optee_os/lib/libutee/arch/arm/user_ta_entry.c:145 (discriminator 4)
    30b0:	f9400c02 	ldr	x2, [x0, #24]
    30b4:	f9000041 	str	x1, [x2]
/home/nk/optee/optee_os/lib/libutee/arch/arm/user_ta_entry.c:146 (discriminator 4)
    30b8:	97fffb01 	bl	1cbc <TEE_Free>
/home/nk/optee/optee_os/lib/libutee/arch/arm/user_ta_entry.c:151 (discriminator 4)
    30bc:	f941d660 	ldr	x0, [x19, #936]
    30c0:	b5fffe40 	cbnz	x0, 3088 <ta_header_remove_session+0x1c>
/home/nk/optee/optee_os/lib/libutee/arch/arm/user_ta_entry.c:149 (discriminator 1)
    30c4:	d0000040 	adrp	x0, d000 <_DYNAMIC>
    30c8:	52800281 	mov	w1, #0x14                  	// #20
    30cc:	f940c400 	ldr	x0, [x0, #392]
    30d0:	b9401400 	ldr	w0, [x0, #20]
    30d4:	0a010000 	and	w0, w0, w1
/home/nk/optee/optee_os/lib/libutee/arch/arm/user_ta_entry.c:151 (discriminator 1)
    30d8:	6b01001f 	cmp	w0, w1
    30dc:	54fffd60 	b.eq	3088 <ta_header_remove_session+0x1c>  // b.none
uninit_instance():
/home/nk/optee/optee_os/lib/libutee/arch/arm/user_ta_entry.c:86
    30e0:	97fff40d 	bl	114 <TA_DestroyEntryPoint>
ta_header_remove_session():
/home/nk/optee/optee_os/lib/libutee/arch/arm/user_ta_entry.c:157
    30e4:	f9400bf3 	ldr	x19, [sp, #16]
    30e8:	a8c27bfd 	ldp	x29, x30, [sp], #32
uninit_instance():
/home/nk/optee/optee_os/lib/libutee/arch/arm/user_ta_entry.c:87
    30ec:	17ffffb7 	b	2fc8 <__utee_call_elf_fini_fn>
ta_header_remove_session():
/home/nk/optee/optee_os/lib/libutee/arch/arm/user_ta_entry.c:145 (discriminator 2)
    30f0:	910ea263 	add	x3, x19, #0x3a8
    30f4:	f9000462 	str	x2, [x3, #8]
    30f8:	17ffffee 	b	30b0 <ta_header_remove_session+0x44>
    30fc:	aa0103e0 	mov	x0, x1
    3100:	17ffffe1 	b	3084 <ta_header_remove_session+0x18>

0000000000003104 <__utee_entry>:
__utee_entry():
/home/nk/optee/optee_os/lib/libutee/arch/arm/user_ta_entry.c:285
    3104:	a9b77bfd 	stp	x29, x30, [sp, #-144]!
/home/nk/optee/optee_os/lib/libutee/arch/arm/user_ta_entry.c:288
    3108:	f100041f 	cmp	x0, #0x1
/home/nk/optee/optee_os/lib/libutee/arch/arm/user_ta_entry.c:285
    310c:	910003fd 	mov	x29, sp
    3110:	a90153f3 	stp	x19, x20, [sp, #16]
    3114:	d0000054 	adrp	x20, d000 <_DYNAMIC>
    3118:	a9025bf5 	stp	x21, x22, [sp, #32]
    311c:	aa0103f5 	mov	x21, x1
    3120:	a90363f7 	stp	x23, x24, [sp, #48]
/home/nk/optee/optee_os/lib/libutee/arch/arm/user_ta_entry.c:288
    3124:	54000a20 	b.eq	3268 <__utee_entry+0x164>  // b.none
    3128:	aa0203f7 	mov	x23, x2
    312c:	b40000e0 	cbz	x0, 3148 <__utee_entry+0x44>
    3130:	f100081f 	cmp	x0, #0x2
    3134:	54000ac0 	b.eq	328c <__utee_entry+0x188>  // b.none
/home/nk/optee/optee_os/lib/libutee/arch/arm/user_ta_entry.c:300
    3138:	52800000 	mov	w0, #0x0                   	// #0
/home/nk/optee/optee_os/lib/libutee/arch/arm/user_ta_entry.c:299
    313c:	12800013 	mov	w19, #0xffffffff            	// #-1
/home/nk/optee/optee_os/lib/libutee/arch/arm/user_ta_entry.c:300
    3140:	97fffe1f 	bl	29bc <TEE_Panic>
/home/nk/optee/optee_os/lib/libutee/arch/arm/user_ta_entry.c:301
    3144:	1400001a 	b	31ac <__utee_entry+0xa8>
ta_header_add_session():
/home/nk/optee/optee_os/lib/libutee/arch/arm/user_ta_entry.c:114
    3148:	2a0103e0 	mov	w0, w1
    314c:	97ffff2b 	bl	2df8 <ta_header_get_session>
/home/nk/optee/optee_os/lib/libutee/arch/arm/user_ta_entry.c:117
    3150:	b5000520 	cbnz	x0, 31f4 <__utee_entry+0xf0>
/home/nk/optee/optee_os/lib/libutee/arch/arm/user_ta_entry.c:120
    3154:	b00000a0 	adrp	x0, 18000 <ta_heap+0x7b48>
    3158:	3952e001 	ldrb	w1, [x0, #1208]
    315c:	340000e1 	cbz	w1, 3178 <__utee_entry+0x74>
/home/nk/optee/optee_os/lib/libutee/arch/arm/user_ta_entry.c:127
    3160:	52b00001 	mov	w1, #0x80000000            	// #-2147483648
    3164:	52800400 	mov	w0, #0x20                  	// #32
    3168:	97fffabc 	bl	1c58 <TEE_Malloc>
/home/nk/optee/optee_os/lib/libutee/arch/arm/user_ta_entry.c:129
    316c:	b5000320 	cbnz	x0, 31d0 <__utee_entry+0xcc>
/home/nk/optee/optee_os/lib/libutee/arch/arm/user_ta_entry.c:130
    3170:	129ffe73 	mov	w19, #0xffff000c            	// #-65524
    3174:	1400000e 	b	31ac <__utee_entry+0xa8>
/home/nk/optee/optee_os/lib/libutee/arch/arm/user_ta_entry.c:121
    3178:	52800021 	mov	w1, #0x1                   	// #1
    317c:	3912e001 	strb	w1, [x0, #1208]
init_instance():
/home/nk/optee/optee_os/lib/libutee/arch/arm/user_ta_entry.c:75
    3180:	97fff4bb 	bl	46c <tahead_get_trace_level>
    3184:	97fff4bc 	bl	474 <trace_set_level>
/home/nk/optee/optee_os/lib/libutee/arch/arm/user_ta_entry.c:77
    3188:	f9409a80 	ldr	x0, [x20, #304]
    318c:	f9400001 	ldr	x1, [x0]
    3190:	f940ae80 	ldr	x0, [x20, #344]
    3194:	94001870 	bl	9354 <malloc_add_pool>
/home/nk/optee/optee_os/lib/libutee/arch/arm/user_ta_entry.c:78
    3198:	9400025d 	bl	3b0c <_TEE_MathAPI_Init>
/home/nk/optee/optee_os/lib/libutee/arch/arm/user_ta_entry.c:79
    319c:	97ffff5e 	bl	2f14 <__utee_call_elf_init_fn>
/home/nk/optee/optee_os/lib/libutee/arch/arm/user_ta_entry.c:80
    31a0:	97fff3db 	bl	10c <TA_CreateEntryPoint>
    31a4:	2a0003f3 	mov	w19, w0
ta_header_add_session():
/home/nk/optee/optee_os/lib/libutee/arch/arm/user_ta_entry.c:123
    31a8:	34fffdc0 	cbz	w0, 3160 <__utee_entry+0x5c>
ta_header_save_params():
/home/nk/optee/optee_os/lib/libutee/arch/arm/user_ta_entry.c:93
    31ac:	f940ba94 	ldr	x20, [x20, #368]
    31b0:	b900029f 	str	wzr, [x20]
/home/nk/optee/optee_os/lib/libutee/arch/arm/user_ta_entry.c:95
    31b4:	97ffff53 	bl	2f00 <ta_header_save_params.part.0>
__utee_entry():
/home/nk/optee/optee_os/lib/libutee/arch/arm/user_ta_entry.c:306
    31b8:	2a1303e0 	mov	w0, w19
    31bc:	a94153f3 	ldp	x19, x20, [sp, #16]
    31c0:	a9425bf5 	ldp	x21, x22, [sp, #32]
    31c4:	a94363f7 	ldp	x23, x24, [sp, #48]
    31c8:	a8c97bfd 	ldp	x29, x30, [sp], #144
    31cc:	d65f03c0 	ret
ta_header_add_session():
/home/nk/optee/optee_os/lib/libutee/arch/arm/user_ta_entry.c:133
    31d0:	d0000041 	adrp	x1, d000 <_DYNAMIC>
    31d4:	910ea021 	add	x1, x1, #0x3a8
    31d8:	f9400422 	ldr	x2, [x1, #8]
/home/nk/optee/optee_os/lib/libutee/arch/arm/user_ta_entry.c:131
    31dc:	b9000015 	str	w21, [x0]
/home/nk/optee/optee_os/lib/libutee/arch/arm/user_ta_entry.c:133
    31e0:	a900fc1f 	stp	xzr, xzr, [x0, #8]
    31e4:	f9000c02 	str	x2, [x0, #24]
    31e8:	f9000040 	str	x0, [x2]
    31ec:	91004000 	add	x0, x0, #0x10
    31f0:	f9000420 	str	x0, [x1, #8]
entry_open_session():
/home/nk/optee/optee_os/lib/libutee/arch/arm/user_ta_entry.c:232
    31f4:	2a1503e0 	mov	w0, w21
    31f8:	97ffff00 	bl	2df8 <ta_header_get_session>
    31fc:	aa0003f8 	mov	x24, x0
/home/nk/optee/optee_os/lib/libutee/arch/arm/user_ta_entry.c:233
    3200:	b40007e0 	cbz	x0, 32fc <__utee_entry+0x1f8>
/home/nk/optee/optee_os/lib/libutee/arch/arm/user_ta_entry.c:236
    3204:	910143f6 	add	x22, sp, #0x50
    3208:	aa1703e2 	mov	x2, x23
    320c:	910133e1 	add	x1, sp, #0x4c
    3210:	aa1603e0 	mov	x0, x22
    3214:	97ffff21 	bl	2e98 <from_utee_params>
/home/nk/optee/optee_os/lib/libutee/arch/arm/user_ta_entry.c:237
    3218:	b9404ff3 	ldr	w19, [sp, #76]
ta_header_save_params():
/home/nk/optee/optee_os/lib/libutee/arch/arm/user_ta_entry.c:93
    321c:	f940ba80 	ldr	x0, [x20, #368]
/home/nk/optee/optee_os/lib/libutee/arch/arm/user_ta_entry.c:96
    3220:	d2800802 	mov	x2, #0x40                  	// #64
    3224:	aa1603e1 	mov	x1, x22
/home/nk/optee/optee_os/lib/libutee/arch/arm/user_ta_entry.c:93
    3228:	b9000013 	str	w19, [x0]
/home/nk/optee/optee_os/lib/libutee/arch/arm/user_ta_entry.c:96
    322c:	f940c280 	ldr	x0, [x20, #384]
    3230:	97fff37c 	bl	20 <memcpy>
entry_open_session():
/home/nk/optee/optee_os/lib/libutee/arch/arm/user_ta_entry.c:239
    3234:	91002302 	add	x2, x24, #0x8
    3238:	aa1603e1 	mov	x1, x22
    323c:	2a1303e0 	mov	w0, w19
    3240:	97fff3b6 	bl	118 <TA_OpenSessionEntryPoint>
/home/nk/optee/optee_os/lib/libutee/arch/arm/user_ta_entry.c:242
    3244:	b9404fe1 	ldr	w1, [sp, #76]
/home/nk/optee/optee_os/lib/libutee/arch/arm/user_ta_entry.c:239
    3248:	2a0003f3 	mov	w19, w0
/home/nk/optee/optee_os/lib/libutee/arch/arm/user_ta_entry.c:242
    324c:	aa1603e2 	mov	x2, x22
    3250:	aa1703e0 	mov	x0, x23
    3254:	97fffef3 	bl	2e20 <to_utee_params>
/home/nk/optee/optee_os/lib/libutee/arch/arm/user_ta_entry.c:244
    3258:	34fffab3 	cbz	w19, 31ac <__utee_entry+0xa8>
/home/nk/optee/optee_os/lib/libutee/arch/arm/user_ta_entry.c:245
    325c:	2a1503e0 	mov	w0, w21
    3260:	97ffff83 	bl	306c <ta_header_remove_session>
    3264:	17ffffd2 	b	31ac <__utee_entry+0xa8>
entry_close_session():
/home/nk/optee/optee_os/lib/libutee/arch/arm/user_ta_entry.c:251
    3268:	2a0103e0 	mov	w0, w1
    326c:	97fffee3 	bl	2df8 <ta_header_get_session>
/home/nk/optee/optee_os/lib/libutee/arch/arm/user_ta_entry.c:253
    3270:	b4000460 	cbz	x0, 32fc <__utee_entry+0x1f8>
/home/nk/optee/optee_os/lib/libutee/arch/arm/user_ta_entry.c:256
    3274:	f9400400 	ldr	x0, [x0, #8]
/home/nk/optee/optee_os/lib/libutee/arch/arm/user_ta_entry.c:259
    3278:	52800013 	mov	w19, #0x0                   	// #0
/home/nk/optee/optee_os/lib/libutee/arch/arm/user_ta_entry.c:256
    327c:	97fff3a9 	bl	120 <TA_CloseSessionEntryPoint>
/home/nk/optee/optee_os/lib/libutee/arch/arm/user_ta_entry.c:258
    3280:	2a1503e0 	mov	w0, w21
    3284:	97ffff7a 	bl	306c <ta_header_remove_session>
/home/nk/optee/optee_os/lib/libutee/arch/arm/user_ta_entry.c:259
    3288:	17ffffc9 	b	31ac <__utee_entry+0xa8>
entry_invoke_command():
/home/nk/optee/optee_os/lib/libutee/arch/arm/user_ta_entry.c:268
    328c:	2a0103e0 	mov	w0, w1
    3290:	97fffeda 	bl	2df8 <ta_header_get_session>
    3294:	aa0003f3 	mov	x19, x0
/home/nk/optee/optee_os/lib/libutee/arch/arm/user_ta_entry.c:270
    3298:	b4000320 	cbz	x0, 32fc <__utee_entry+0x1f8>
/home/nk/optee/optee_os/lib/libutee/arch/arm/user_ta_entry.c:273
    329c:	910143f5 	add	x21, sp, #0x50
    32a0:	aa0303f8 	mov	x24, x3
    32a4:	aa1703e2 	mov	x2, x23
    32a8:	910133e1 	add	x1, sp, #0x4c
    32ac:	aa1503e0 	mov	x0, x21
    32b0:	97fffefa 	bl	2e98 <from_utee_params>
ta_header_save_params():
/home/nk/optee/optee_os/lib/libutee/arch/arm/user_ta_entry.c:93
    32b4:	f940ba80 	ldr	x0, [x20, #368]
/home/nk/optee/optee_os/lib/libutee/arch/arm/user_ta_entry.c:96
    32b8:	aa1503e1 	mov	x1, x21
entry_invoke_command():
/home/nk/optee/optee_os/lib/libutee/arch/arm/user_ta_entry.c:274
    32bc:	b9404ff6 	ldr	w22, [sp, #76]
ta_header_save_params():
/home/nk/optee/optee_os/lib/libutee/arch/arm/user_ta_entry.c:96
    32c0:	d2800802 	mov	x2, #0x40                  	// #64
/home/nk/optee/optee_os/lib/libutee/arch/arm/user_ta_entry.c:93
    32c4:	b9000016 	str	w22, [x0]
/home/nk/optee/optee_os/lib/libutee/arch/arm/user_ta_entry.c:96
    32c8:	f940c280 	ldr	x0, [x20, #384]
    32cc:	97fff355 	bl	20 <memcpy>
entry_invoke_command():
/home/nk/optee/optee_os/lib/libutee/arch/arm/user_ta_entry.c:276
    32d0:	f9400660 	ldr	x0, [x19, #8]
    32d4:	2a1603e2 	mov	w2, w22
    32d8:	2a1803e1 	mov	w1, w24
    32dc:	aa1503e3 	mov	x3, x21
    32e0:	97fff391 	bl	124 <TA_InvokeCommandEntryPoint>
    32e4:	2a0003f3 	mov	w19, w0
/home/nk/optee/optee_os/lib/libutee/arch/arm/user_ta_entry.c:279
    32e8:	b9404fe1 	ldr	w1, [sp, #76]
    32ec:	aa1503e2 	mov	x2, x21
    32f0:	aa1703e0 	mov	x0, x23
    32f4:	97fffecb 	bl	2e20 <to_utee_params>
/home/nk/optee/optee_os/lib/libutee/arch/arm/user_ta_entry.c:280
    32f8:	17ffffad 	b	31ac <__utee_entry+0xa8>
entry_close_session():
/home/nk/optee/optee_os/lib/libutee/arch/arm/user_ta_entry.c:254
    32fc:	129fff13 	mov	w19, #0xffff0007            	// #-65529
    3300:	17ffffab 	b	31ac <__utee_entry+0xa8>

0000000000003304 <api_panic>:
api_panic():
/home/nk/optee/optee_os/lib/libutee/tee_api_arith_mpi.c:19
    3304:	a9bf7bfd 	stp	x29, x30, [sp, #-16]!
/home/nk/optee/optee_os/lib/libutee/tee_api_arith_mpi.c:20
    3308:	aa0203e3 	mov	x3, x2
    330c:	2a0103e2 	mov	w2, w1
    3310:	aa0003e1 	mov	x1, x0
/home/nk/optee/optee_os/lib/libutee/tee_api_arith_mpi.c:19
    3314:	910003fd 	mov	x29, sp
/home/nk/optee/optee_os/lib/libutee/tee_api_arith_mpi.c:20
    3318:	b0000040 	adrp	x0, c000 <HEXDIGITS+0x62>
    331c:	91057c00 	add	x0, x0, #0x15f
    3320:	97fff856 	bl	1478 <printf>
/home/nk/optee/optee_os/lib/libutee/tee_api_arith_mpi.c:21
    3324:	528c24e0 	mov	w0, #0x6127                	// #24871
    3328:	72a01620 	movk	w0, #0xb1, lsl #16
    332c:	97fffda4 	bl	29bc <TEE_Panic>
/home/nk/optee/optee_os/lib/libutee/tee_api_arith_mpi.c:23 (discriminator 1)
    3330:	14000000 	b	3330 <api_panic+0x2c>

0000000000003334 <mpi_panic>:
mpi_panic():
/home/nk/optee/optee_os/lib/libutee/tee_api_arith_mpi.c:29
    3334:	a9bf7bfd 	stp	x29, x30, [sp, #-16]!
/home/nk/optee/optee_os/lib/libutee/tee_api_arith_mpi.c:30
    3338:	2a0203e3 	mov	w3, w2
    333c:	2a0103e2 	mov	w2, w1
    3340:	aa0003e1 	mov	x1, x0
/home/nk/optee/optee_os/lib/libutee/tee_api_arith_mpi.c:29
    3344:	910003fd 	mov	x29, sp
/home/nk/optee/optee_os/lib/libutee/tee_api_arith_mpi.c:30
    3348:	b0000040 	adrp	x0, c000 <HEXDIGITS+0x62>
    334c:	9105fc00 	add	x0, x0, #0x17f
    3350:	97fff84a 	bl	1478 <printf>
/home/nk/optee/optee_os/lib/libutee/tee_api_arith_mpi.c:31
    3354:	528c24e0 	mov	w0, #0x6127                	// #24871
    3358:	72a01620 	movk	w0, #0xb1, lsl #16
    335c:	97fffd98 	bl	29bc <TEE_Panic>
/home/nk/optee/optee_os/lib/libutee/tee_api_arith_mpi.c:33 (discriminator 1)
    3360:	14000000 	b	3360 <mpi_panic+0x2c>

0000000000003364 <get_mpi>:
get_mpi():
/home/nk/optee/optee_os/lib/libutee/tee_api_arith_mpi.c:86
    3364:	a9bd7bfd 	stp	x29, x30, [sp, #-48]!
    3368:	910003fd 	mov	x29, sp
    336c:	a90153f3 	stp	x19, x20, [sp, #16]
    3370:	aa0103f4 	mov	x20, x1
    3374:	a9025bf5 	stp	x21, x22, [sp, #32]
    3378:	aa0003f5 	mov	x21, x0
/home/nk/optee/optee_os/lib/libutee/tee_api_arith_mpi.c:101
    337c:	940007ba 	bl	5264 <mbedtls_mpi_init_mempool>
/home/nk/optee/optee_os/lib/libutee/tee_api_arith_mpi.c:103
    3380:	b4000374 	cbz	x20, 33ec <get_mpi+0x88>
/home/nk/optee/optee_os/lib/libutee/tee_api_arith_mpi.c:106
    3384:	79400e93 	ldrh	w19, [x20, #6]
/home/nk/optee/optee_os/lib/libutee/tee_api_arith_mpi.c:105
    3388:	91002296 	add	x22, x20, #0x8
/home/nk/optee/optee_os/lib/libutee/tee_api_arith_mpi.c:109
    338c:	91001281 	add	x1, x20, #0x4
    3390:	b4000073 	cbz	x19, 339c <get_mpi+0x38>
/home/nk/optee/optee_os/lib/libutee/tee_api_arith_mpi.c:109 (discriminator 1)
    3394:	b8737820 	ldr	w0, [x1, x19, lsl #2]
    3398:	34000140 	cbz	w0, 33c0 <get_mpi+0x5c>
/home/nk/optee/optee_os/lib/libutee/tee_api_arith_mpi.c:112
    339c:	aa1303e1 	mov	x1, x19
    33a0:	aa1503e0 	mov	x0, x21
    33a4:	940007d5 	bl	52f8 <mbedtls_mpi_grow>
    33a8:	34000100 	cbz	w0, 33c8 <get_mpi+0x64>
/home/nk/optee/optee_os/lib/libutee/tee_api_arith_mpi.c:112 (discriminator 1)
    33ac:	2a0003e2 	mov	w2, w0
    33b0:	52800e01 	mov	w1, #0x70                  	// #112
    33b4:	b0000040 	adrp	x0, c000 <HEXDIGITS+0x62>
    33b8:	91008800 	add	x0, x0, #0x22
    33bc:	97ffffde 	bl	3334 <mpi_panic>
/home/nk/optee/optee_os/lib/libutee/tee_api_arith_mpi.c:110
    33c0:	d1000673 	sub	x19, x19, #0x1
    33c4:	17fffff3 	b	3390 <get_mpi+0x2c>
/home/nk/optee/optee_os/lib/libutee/tee_api_arith_mpi.c:113
    33c8:	b9400280 	ldr	w0, [x20]
/home/nk/optee/optee_os/lib/libutee/tee_api_arith_mpi.c:114
    33cc:	d37ef662 	lsl	x2, x19, #2
/home/nk/optee/optee_os/lib/libutee/tee_api_arith_mpi.c:113
    33d0:	790002a0 	strh	w0, [x21]
/home/nk/optee/optee_os/lib/libutee/tee_api_arith_mpi.c:114
    33d4:	aa1603e1 	mov	x1, x22
/home/nk/optee/optee_os/lib/libutee/tee_api_arith_mpi.c:116
    33d8:	a94153f3 	ldp	x19, x20, [sp, #16]
/home/nk/optee/optee_os/lib/libutee/tee_api_arith_mpi.c:114
    33dc:	f9400aa0 	ldr	x0, [x21, #16]
/home/nk/optee/optee_os/lib/libutee/tee_api_arith_mpi.c:116
    33e0:	a9425bf5 	ldp	x21, x22, [sp, #32]
    33e4:	a8c37bfd 	ldp	x29, x30, [sp], #48
/home/nk/optee/optee_os/lib/libutee/tee_api_arith_mpi.c:114
    33e8:	17fff30e 	b	20 <memcpy>
/home/nk/optee/optee_os/lib/libutee/tee_api_arith_mpi.c:116
    33ec:	a94153f3 	ldp	x19, x20, [sp, #16]
    33f0:	a9425bf5 	ldp	x21, x22, [sp, #32]
    33f4:	a8c37bfd 	ldp	x29, x30, [sp], #48
    33f8:	d65f03c0 	ret

00000000000033fc <copy_mpi_to_bigint>:
copy_mpi_to_bigint():
/home/nk/optee/optee_os/lib/libutee/tee_api_arith_mpi.c:61
    33fc:	aa0103e3 	mov	x3, x1
/home/nk/optee/optee_os/lib/libutee/tee_api_arith_mpi.c:63
    3400:	a9408402 	ldp	x2, x1, [x0, #8]
    3404:	aa0203e4 	mov	x4, x2
/home/nk/optee/optee_os/lib/libutee/tee_api_arith_mpi.c:66
    3408:	b40000e4 	cbz	x4, 3424 <copy_mpi_to_bigint+0x28>
/home/nk/optee/optee_os/lib/libutee/tee_api_arith_mpi.c:66 (discriminator 1)
    340c:	8b040825 	add	x5, x1, x4, lsl #2
    3410:	b85fc0a5 	ldur	w5, [x5, #-4]
    3414:	340001e5 	cbz	w5, 3450 <copy_mpi_to_bigint+0x54>
/home/nk/optee/optee_os/lib/libutee/tee_api_arith_mpi.c:69
    3418:	79400865 	ldrh	w5, [x3, #4]
    341c:	eb0400bf 	cmp	x5, x4
    3420:	540001c3 	b.cc	3458 <copy_mpi_to_bigint+0x5c>  // b.lo, b.ul, b.last
/home/nk/optee/optee_os/lib/libutee/tee_api_arith_mpi.c:61
    3424:	a9bf7bfd 	stp	x29, x30, [sp, #-16]!
/home/nk/optee/optee_os/lib/libutee/tee_api_arith_mpi.c:74
    3428:	d37ef442 	lsl	x2, x2, #2
/home/nk/optee/optee_os/lib/libutee/tee_api_arith_mpi.c:61
    342c:	910003fd 	mov	x29, sp
/home/nk/optee/optee_os/lib/libutee/tee_api_arith_mpi.c:72
    3430:	79000c64 	strh	w4, [x3, #6]
/home/nk/optee/optee_os/lib/libutee/tee_api_arith_mpi.c:73
    3434:	79c00004 	ldrsh	w4, [x0]
    3438:	aa0303e0 	mov	x0, x3
    343c:	b8008404 	str	w4, [x0], #8
/home/nk/optee/optee_os/lib/libutee/tee_api_arith_mpi.c:74
    3440:	97fff2f8 	bl	20 <memcpy>
/home/nk/optee/optee_os/lib/libutee/tee_api_arith_mpi.c:76
    3444:	52800000 	mov	w0, #0x0                   	// #0
/home/nk/optee/optee_os/lib/libutee/tee_api_arith_mpi.c:77
    3448:	a8c17bfd 	ldp	x29, x30, [sp], #16
    344c:	d65f03c0 	ret
/home/nk/optee/optee_os/lib/libutee/tee_api_arith_mpi.c:67
    3450:	d1000484 	sub	x4, x4, #0x1
    3454:	17ffffed 	b	3408 <copy_mpi_to_bigint+0xc>
/home/nk/optee/optee_os/lib/libutee/tee_api_arith_mpi.c:70
    3458:	1299fe00 	mov	w0, #0xffff300f            	// #-53233
/home/nk/optee/optee_os/lib/libutee/tee_api_arith_mpi.c:77
    345c:	d65f03c0 	ret

0000000000003460 <bigint_binary>:
bigint_binary():
/home/nk/optee/optee_os/lib/libutee/tee_api_arith_mpi.c:321
    3460:	a9b67bfd 	stp	x29, x30, [sp, #-160]!
    3464:	910003fd 	mov	x29, sp
    3468:	a90153f3 	stp	x19, x20, [sp, #16]
/home/nk/optee/optee_os/lib/libutee/tee_api_arith_mpi.c:328
    346c:	910163f3 	add	x19, sp, #0x58
/home/nk/optee/optee_os/lib/libutee/tee_api_arith_mpi.c:321
    3470:	aa0203f4 	mov	x20, x2
    3474:	a9025bf5 	stp	x21, x22, [sp, #32]
    3478:	aa0003f6 	mov	x22, x0
    347c:	a90363f7 	stp	x23, x24, [sp, #48]
    3480:	9101c3f8 	add	x24, sp, #0x70
    3484:	a9046bf9 	stp	x25, x26, [sp, #64]
    3488:	aa0103f9 	mov	x25, x1
    348c:	aa0303fa 	mov	x26, x3
/home/nk/optee/optee_os/lib/libutee/tee_api_arith_mpi.c:328
    3490:	aa0003e1 	mov	x1, x0
    3494:	aa1303e0 	mov	x0, x19
    3498:	97ffffb3 	bl	3364 <get_mpi>
/home/nk/optee/optee_os/lib/libutee/tee_api_arith_mpi.c:330
    349c:	eb1902df 	cmp	x22, x25
    34a0:	54000320 	b.eq	3504 <bigint_binary+0xa4>  // b.none
/home/nk/optee/optee_os/lib/libutee/tee_api_arith_mpi.c:325
    34a4:	aa1803f5 	mov	x21, x24
/home/nk/optee/optee_os/lib/libutee/tee_api_arith_mpi.c:333
    34a8:	aa1903e1 	mov	x1, x25
    34ac:	aa1803e0 	mov	x0, x24
    34b0:	97ffffad 	bl	3364 <get_mpi>
/home/nk/optee/optee_os/lib/libutee/tee_api_arith_mpi.c:335
    34b4:	eb1402df 	cmp	x22, x20
    34b8:	910223f7 	add	x23, sp, #0x88
    34bc:	54000280 	b.eq	350c <bigint_binary+0xac>  // b.none
/home/nk/optee/optee_os/lib/libutee/tee_api_arith_mpi.c:337
    34c0:	eb14033f 	cmp	x25, x20
    34c4:	54000280 	b.eq	3514 <bigint_binary+0xb4>  // b.none
/home/nk/optee/optee_os/lib/libutee/tee_api_arith_mpi.c:340
    34c8:	aa1403e1 	mov	x1, x20
/home/nk/optee/optee_os/lib/libutee/tee_api_arith_mpi.c:326
    34cc:	aa1703f4 	mov	x20, x23
/home/nk/optee/optee_os/lib/libutee/tee_api_arith_mpi.c:340
    34d0:	aa1703e0 	mov	x0, x23
    34d4:	97ffffa4 	bl	3364 <get_mpi>
/home/nk/optee/optee_os/lib/libutee/tee_api_arith_mpi.c:342
    34d8:	aa1403e2 	mov	x2, x20
    34dc:	aa1503e1 	mov	x1, x21
    34e0:	aa1303e0 	mov	x0, x19
    34e4:	d63f0340 	blr	x26
    34e8:	340001a0 	cbz	w0, 351c <bigint_binary+0xbc>
/home/nk/optee/optee_os/lib/libutee/tee_api_arith_mpi.c:342 (discriminator 1)
    34ec:	2a0003e2 	mov	w2, w0
    34f0:	52802ac1 	mov	w1, #0x156                 	// #342
/home/nk/optee/optee_os/lib/libutee/tee_api_arith_mpi.c:344 (discriminator 1)
    34f4:	b0000040 	adrp	x0, c000 <HEXDIGITS+0x62>
    34f8:	91008800 	add	x0, x0, #0x22
    34fc:	91002000 	add	x0, x0, #0x8
    3500:	97ffff8d 	bl	3334 <mpi_panic>
/home/nk/optee/optee_os/lib/libutee/tee_api_arith_mpi.c:331
    3504:	aa1303f5 	mov	x21, x19
    3508:	17ffffeb 	b	34b4 <bigint_binary+0x54>
/home/nk/optee/optee_os/lib/libutee/tee_api_arith_mpi.c:336
    350c:	aa1303f4 	mov	x20, x19
    3510:	17fffff2 	b	34d8 <bigint_binary+0x78>
/home/nk/optee/optee_os/lib/libutee/tee_api_arith_mpi.c:338
    3514:	aa1503f4 	mov	x20, x21
    3518:	17fffff0 	b	34d8 <bigint_binary+0x78>
/home/nk/optee/optee_os/lib/libutee/tee_api_arith_mpi.c:344
    351c:	aa1603e1 	mov	x1, x22
    3520:	aa1303e0 	mov	x0, x19
    3524:	97ffffb6 	bl	33fc <copy_mpi_to_bigint>
    3528:	34000080 	cbz	w0, 3538 <bigint_binary+0xd8>
/home/nk/optee/optee_os/lib/libutee/tee_api_arith_mpi.c:344 (discriminator 1)
    352c:	2a0003e2 	mov	w2, w0
    3530:	52802b01 	mov	w1, #0x158                 	// #344
    3534:	17fffff0 	b	34f4 <bigint_binary+0x94>
/home/nk/optee/optee_os/lib/libutee/tee_api_arith_mpi.c:345
    3538:	aa1303e0 	mov	x0, x19
    353c:	94000754 	bl	528c <mbedtls_mpi_free>
/home/nk/optee/optee_os/lib/libutee/tee_api_arith_mpi.c:346
    3540:	eb1802bf 	cmp	x21, x24
    3544:	54000061 	b.ne	3550 <bigint_binary+0xf0>  // b.any
/home/nk/optee/optee_os/lib/libutee/tee_api_arith_mpi.c:347
    3548:	aa1503e0 	mov	x0, x21
    354c:	94000750 	bl	528c <mbedtls_mpi_free>
/home/nk/optee/optee_os/lib/libutee/tee_api_arith_mpi.c:348
    3550:	eb17029f 	cmp	x20, x23
    3554:	54000061 	b.ne	3560 <bigint_binary+0x100>  // b.any
/home/nk/optee/optee_os/lib/libutee/tee_api_arith_mpi.c:349
    3558:	aa1403e0 	mov	x0, x20
    355c:	9400074c 	bl	528c <mbedtls_mpi_free>
/home/nk/optee/optee_os/lib/libutee/tee_api_arith_mpi.c:350
    3560:	a94153f3 	ldp	x19, x20, [sp, #16]
    3564:	a9425bf5 	ldp	x21, x22, [sp, #32]
    3568:	a94363f7 	ldp	x23, x24, [sp, #48]
    356c:	a9446bf9 	ldp	x25, x26, [sp, #64]
    3570:	a8ca7bfd 	ldp	x29, x30, [sp], #160
    3574:	d65f03c0 	ret

0000000000003578 <mpi_is_odd>:
mpi_is_odd():
/home/nk/optee/optee_os/lib/libutee/tee_api_arith_mpi.c:590
    3578:	a9bf7bfd 	stp	x29, x30, [sp, #-16]!
/home/nk/optee/optee_os/lib/libutee/tee_api_arith_mpi.c:591
    357c:	d2800001 	mov	x1, #0x0                   	// #0
/home/nk/optee/optee_os/lib/libutee/tee_api_arith_mpi.c:590
    3580:	910003fd 	mov	x29, sp
/home/nk/optee/optee_os/lib/libutee/tee_api_arith_mpi.c:591
    3584:	940008ab 	bl	5830 <mbedtls_mpi_get_bit>
    3588:	7100001f 	cmp	w0, #0x0
/home/nk/optee/optee_os/lib/libutee/tee_api_arith_mpi.c:592
    358c:	1a9f07e0 	cset	w0, ne  // ne = any
    3590:	a8c17bfd 	ldp	x29, x30, [sp], #16
    3594:	d65f03c0 	ret

0000000000003598 <rng_read>:
rng_read():
/home/nk/optee/optee_os/lib/libutee/tee_api_arith_mpi.c:757
    3598:	a9bf7bfd 	stp	x29, x30, [sp, #-16]!
    359c:	aa0103e0 	mov	x0, x1
/home/nk/optee/optee_os/lib/libutee/tee_api_arith_mpi.c:758
    35a0:	aa0203e1 	mov	x1, x2
/home/nk/optee/optee_os/lib/libutee/tee_api_arith_mpi.c:757
    35a4:	910003fd 	mov	x29, sp
/home/nk/optee/optee_os/lib/libutee/tee_api_arith_mpi.c:758
    35a8:	97fffdcf 	bl	2ce4 <_utee_cryp_random_number_generate>
/home/nk/optee/optee_os/lib/libutee/tee_api_arith_mpi.c:759
    35ac:	7100001f 	cmp	w0, #0x0
/home/nk/optee/optee_os/lib/libutee/tee_api_arith_mpi.c:761
    35b0:	a8c17bfd 	ldp	x29, x30, [sp], #16
    35b4:	12800020 	mov	w0, #0xfffffffe            	// #-2
    35b8:	1a9f1000 	csel	w0, w0, wzr, ne  // ne = any
    35bc:	d65f03c0 	ret

00000000000035c0 <mpi_egcd>:
mpi_egcd():
/home/nk/optee/optee_os/lib/libutee/tee_api_arith_mpi.c:605
    35c0:	a9ae7bfd 	stp	x29, x30, [sp, #-288]!
    35c4:	910003fd 	mov	x29, sp
    35c8:	6d0627e8 	stp	d8, d9, [sp, #96]
    35cc:	9e670028 	fmov	d8, x1
    35d0:	9e670069 	fmov	d9, x3
    35d4:	a90363f7 	stp	x23, x24, [sp, #48]
get_mpi():
/home/nk/optee/optee_os/lib/libutee/tee_api_arith_mpi.c:101
    35d8:	9101e3f7 	add	x23, sp, #0x78
mpi_egcd():
/home/nk/optee/optee_os/lib/libutee/tee_api_arith_mpi.c:605
    35dc:	aa0003f8 	mov	x24, x0
get_mpi():
/home/nk/optee/optee_os/lib/libutee/tee_api_arith_mpi.c:101
    35e0:	aa1703e0 	mov	x0, x23
mpi_egcd():
/home/nk/optee/optee_os/lib/libutee/tee_api_arith_mpi.c:605
    35e4:	a90153f3 	stp	x19, x20, [sp, #16]
get_mpi():
/home/nk/optee/optee_os/lib/libutee/tee_api_arith_mpi.c:101
    35e8:	9102a3f4 	add	x20, sp, #0xa8
mpi_egcd():
/home/nk/optee/optee_os/lib/libutee/tee_api_arith_mpi.c:605
    35ec:	a9025bf5 	stp	x21, x22, [sp, #32]
get_mpi():
/home/nk/optee/optee_os/lib/libutee/tee_api_arith_mpi.c:101
    35f0:	910243f6 	add	x22, sp, #0x90
    35f4:	910303f3 	add	x19, sp, #0xc0
mpi_egcd():
/home/nk/optee/optee_os/lib/libutee/tee_api_arith_mpi.c:605
    35f8:	a9046bf9 	stp	x25, x26, [sp, #64]
get_mpi():
/home/nk/optee/optee_os/lib/libutee/tee_api_arith_mpi.c:101
    35fc:	910363fa 	add	x26, sp, #0xd8
    3600:	9103c3f9 	add	x25, sp, #0xf0
mpi_egcd():
/home/nk/optee/optee_os/lib/libutee/tee_api_arith_mpi.c:605
    3604:	a90573fb 	stp	x27, x28, [sp, #80]
    3608:	aa0403fb 	mov	x27, x4
    360c:	aa0203fc 	mov	x28, x2
get_mpi():
/home/nk/optee/optee_os/lib/libutee/tee_api_arith_mpi.c:101
    3610:	94000715 	bl	5264 <mbedtls_mpi_init_mempool>
    3614:	910423f5 	add	x21, sp, #0x108
    3618:	aa1603e0 	mov	x0, x22
    361c:	94000712 	bl	5264 <mbedtls_mpi_init_mempool>
    3620:	aa1403e0 	mov	x0, x20
    3624:	94000710 	bl	5264 <mbedtls_mpi_init_mempool>
    3628:	aa1303e0 	mov	x0, x19
    362c:	9400070e 	bl	5264 <mbedtls_mpi_init_mempool>
    3630:	aa1a03e0 	mov	x0, x26
    3634:	9400070c 	bl	5264 <mbedtls_mpi_init_mempool>
    3638:	aa1903e0 	mov	x0, x25
    363c:	9400070a 	bl	5264 <mbedtls_mpi_init_mempool>
    3640:	aa1503e0 	mov	x0, x21
    3644:	94000708 	bl	5264 <mbedtls_mpi_init_mempool>
mpi_egcd():
/home/nk/optee/optee_os/lib/libutee/tee_api_arith_mpi.c:624
    3648:	52800001 	mov	w1, #0x0                   	// #0
    364c:	aa1b03e0 	mov	x0, x27
    3650:	94000a98 	bl	60b0 <mbedtls_mpi_cmp_int>
    3654:	35000320 	cbnz	w0, 36b8 <mpi_egcd+0xf8>
/home/nk/optee/optee_os/lib/libutee/tee_api_arith_mpi.c:625
    3658:	9e660100 	fmov	x0, d8
    365c:	52800021 	mov	w1, #0x1                   	// #1
    3660:	9400085a 	bl	57c8 <mbedtls_mpi_lset>
    3664:	340000e0 	cbz	w0, 3680 <mpi_egcd+0xc0>
/home/nk/optee/optee_os/lib/libutee/tee_api_arith_mpi.c:625 (discriminator 1)
    3668:	2a0003e2 	mov	w2, w0
    366c:	52804e21 	mov	w1, #0x271                 	// #625
/home/nk/optee/optee_os/lib/libutee/tee_api_arith_mpi.c:626 (discriminator 1)
    3670:	b0000040 	adrp	x0, c000 <HEXDIGITS+0x62>
    3674:	91008800 	add	x0, x0, #0x22
    3678:	91005800 	add	x0, x0, #0x16
    367c:	97ffff2e 	bl	3334 <mpi_panic>
/home/nk/optee/optee_os/lib/libutee/tee_api_arith_mpi.c:626
    3680:	52800001 	mov	w1, #0x0                   	// #0
    3684:	aa1c03e0 	mov	x0, x28
    3688:	94000850 	bl	57c8 <mbedtls_mpi_lset>
    368c:	34000080 	cbz	w0, 369c <mpi_egcd+0xdc>
/home/nk/optee/optee_os/lib/libutee/tee_api_arith_mpi.c:626 (discriminator 1)
    3690:	2a0003e2 	mov	w2, w0
    3694:	52804e41 	mov	w1, #0x272                 	// #626
    3698:	17fffff6 	b	3670 <mpi_egcd+0xb0>
/home/nk/optee/optee_os/lib/libutee/tee_api_arith_mpi.c:627
    369c:	9e660121 	fmov	x1, d9
    36a0:	aa1803e0 	mov	x0, x24
    36a4:	9400079b 	bl	5510 <mbedtls_mpi_copy>
    36a8:	34002060 	cbz	w0, 3ab4 <mpi_egcd+0x4f4>
/home/nk/optee/optee_os/lib/libutee/tee_api_arith_mpi.c:627 (discriminator 1)
    36ac:	2a0003e2 	mov	w2, w0
    36b0:	52804e61 	mov	w1, #0x273                 	// #627
    36b4:	17ffffef 	b	3670 <mpi_egcd+0xb0>
/home/nk/optee/optee_os/lib/libutee/tee_api_arith_mpi.c:631
    36b8:	9e660121 	fmov	x1, d9
    36bc:	aa1a03e0 	mov	x0, x26
    36c0:	94000794 	bl	5510 <mbedtls_mpi_copy>
    36c4:	34000080 	cbz	w0, 36d4 <mpi_egcd+0x114>
/home/nk/optee/optee_os/lib/libutee/tee_api_arith_mpi.c:631 (discriminator 1)
    36c8:	2a0003e2 	mov	w2, w0
    36cc:	52804ee1 	mov	w1, #0x277                 	// #631
    36d0:	17ffffe8 	b	3670 <mpi_egcd+0xb0>
/home/nk/optee/optee_os/lib/libutee/tee_api_arith_mpi.c:632
    36d4:	aa1b03e1 	mov	x1, x27
    36d8:	aa1903e0 	mov	x0, x25
/home/nk/optee/optee_os/lib/libutee/tee_api_arith_mpi.c:634
    36dc:	5280001b 	mov	w27, #0x0                   	// #0
/home/nk/optee/optee_os/lib/libutee/tee_api_arith_mpi.c:632
    36e0:	9400078c 	bl	5510 <mbedtls_mpi_copy>
    36e4:	34000160 	cbz	w0, 3710 <mpi_egcd+0x150>
/home/nk/optee/optee_os/lib/libutee/tee_api_arith_mpi.c:632 (discriminator 1)
    36e8:	2a0003e2 	mov	w2, w0
    36ec:	52804f01 	mov	w1, #0x278                 	// #632
    36f0:	17ffffe0 	b	3670 <mpi_egcd+0xb0>
/home/nk/optee/optee_os/lib/libutee/tee_api_arith_mpi.c:638
    36f4:	d2800021 	mov	x1, #0x1                   	// #1
    36f8:	aa1903e0 	mov	x0, x25
    36fc:	940009a8 	bl	5d9c <mbedtls_mpi_shift_r>
    3700:	34000080 	cbz	w0, 3710 <mpi_egcd+0x150>
/home/nk/optee/optee_os/lib/libutee/tee_api_arith_mpi.c:638 (discriminator 1)
    3704:	2a0003e2 	mov	w2, w0
    3708:	52804fc1 	mov	w1, #0x27e                 	// #638
    370c:	17ffffd9 	b	3670 <mpi_egcd+0xb0>
mpi_is_even():
/home/nk/optee/optee_os/lib/libutee/tee_api_arith_mpi.c:596
    3710:	aa1a03e0 	mov	x0, x26
    3714:	97ffff99 	bl	3578 <mpi_is_odd>
mpi_egcd():
/home/nk/optee/optee_os/lib/libutee/tee_api_arith_mpi.c:635
    3718:	72001c1f 	tst	w0, #0xff
    371c:	54000100 	b.eq	373c <mpi_egcd+0x17c>  // b.none
/home/nk/optee/optee_os/lib/libutee/tee_api_arith_mpi.c:641
    3720:	aa1a03e1 	mov	x1, x26
    3724:	aa1503e0 	mov	x0, x21
    3728:	9400077a 	bl	5510 <mbedtls_mpi_copy>
    372c:	34000200 	cbz	w0, 376c <mpi_egcd+0x1ac>
/home/nk/optee/optee_os/lib/libutee/tee_api_arith_mpi.c:641 (discriminator 1)
    3730:	2a0003e2 	mov	w2, w0
    3734:	52805021 	mov	w1, #0x281                 	// #641
    3738:	17ffffce 	b	3670 <mpi_egcd+0xb0>
mpi_is_even():
/home/nk/optee/optee_os/lib/libutee/tee_api_arith_mpi.c:596
    373c:	aa1903e0 	mov	x0, x25
    3740:	97ffff8e 	bl	3578 <mpi_is_odd>
mpi_egcd():
/home/nk/optee/optee_os/lib/libutee/tee_api_arith_mpi.c:635
    3744:	72001c1f 	tst	w0, #0xff
    3748:	54fffec1 	b.ne	3720 <mpi_egcd+0x160>  // b.any
/home/nk/optee/optee_os/lib/libutee/tee_api_arith_mpi.c:636
    374c:	1100077b 	add	w27, w27, #0x1
/home/nk/optee/optee_os/lib/libutee/tee_api_arith_mpi.c:637
    3750:	d2800021 	mov	x1, #0x1                   	// #1
    3754:	aa1a03e0 	mov	x0, x26
    3758:	94000991 	bl	5d9c <mbedtls_mpi_shift_r>
    375c:	34fffcc0 	cbz	w0, 36f4 <mpi_egcd+0x134>
/home/nk/optee/optee_os/lib/libutee/tee_api_arith_mpi.c:637 (discriminator 1)
    3760:	2a0003e2 	mov	w2, w0
    3764:	52804fa1 	mov	w1, #0x27d                 	// #637
    3768:	17ffffc2 	b	3670 <mpi_egcd+0xb0>
/home/nk/optee/optee_os/lib/libutee/tee_api_arith_mpi.c:642
    376c:	aa1903e1 	mov	x1, x25
    3770:	aa1803e0 	mov	x0, x24
    3774:	94000767 	bl	5510 <mbedtls_mpi_copy>
    3778:	34000080 	cbz	w0, 3788 <mpi_egcd+0x1c8>
/home/nk/optee/optee_os/lib/libutee/tee_api_arith_mpi.c:642 (discriminator 1)
    377c:	2a0003e2 	mov	w2, w0
    3780:	52805041 	mov	w1, #0x282                 	// #642
    3784:	17ffffbb 	b	3670 <mpi_egcd+0xb0>
/home/nk/optee/optee_os/lib/libutee/tee_api_arith_mpi.c:643
    3788:	52800021 	mov	w1, #0x1                   	// #1
    378c:	aa1703e0 	mov	x0, x23
    3790:	9400080e 	bl	57c8 <mbedtls_mpi_lset>
    3794:	34000080 	cbz	w0, 37a4 <mpi_egcd+0x1e4>
/home/nk/optee/optee_os/lib/libutee/tee_api_arith_mpi.c:643 (discriminator 1)
    3798:	2a0003e2 	mov	w2, w0
    379c:	52805061 	mov	w1, #0x283                 	// #643
    37a0:	17ffffb4 	b	3670 <mpi_egcd+0xb0>
/home/nk/optee/optee_os/lib/libutee/tee_api_arith_mpi.c:644
    37a4:	52800001 	mov	w1, #0x0                   	// #0
    37a8:	aa1603e0 	mov	x0, x22
    37ac:	94000807 	bl	57c8 <mbedtls_mpi_lset>
    37b0:	34000080 	cbz	w0, 37c0 <mpi_egcd+0x200>
/home/nk/optee/optee_os/lib/libutee/tee_api_arith_mpi.c:644 (discriminator 1)
    37b4:	2a0003e2 	mov	w2, w0
    37b8:	52805081 	mov	w1, #0x284                 	// #644
    37bc:	17ffffad 	b	3670 <mpi_egcd+0xb0>
/home/nk/optee/optee_os/lib/libutee/tee_api_arith_mpi.c:645
    37c0:	52800001 	mov	w1, #0x0                   	// #0
    37c4:	aa1403e0 	mov	x0, x20
    37c8:	94000800 	bl	57c8 <mbedtls_mpi_lset>
    37cc:	34000080 	cbz	w0, 37dc <mpi_egcd+0x21c>
/home/nk/optee/optee_os/lib/libutee/tee_api_arith_mpi.c:645 (discriminator 1)
    37d0:	2a0003e2 	mov	w2, w0
    37d4:	528050a1 	mov	w1, #0x285                 	// #645
    37d8:	17ffffa6 	b	3670 <mpi_egcd+0xb0>
/home/nk/optee/optee_os/lib/libutee/tee_api_arith_mpi.c:646
    37dc:	52800021 	mov	w1, #0x1                   	// #1
    37e0:	aa1303e0 	mov	x0, x19
    37e4:	940007f9 	bl	57c8 <mbedtls_mpi_lset>
    37e8:	34001340 	cbz	w0, 3a50 <mpi_egcd+0x490>
/home/nk/optee/optee_os/lib/libutee/tee_api_arith_mpi.c:646 (discriminator 1)
    37ec:	2a0003e2 	mov	w2, w0
    37f0:	528050c1 	mov	w1, #0x286                 	// #646
    37f4:	17ffff9f 	b	3670 <mpi_egcd+0xb0>
/home/nk/optee/optee_os/lib/libutee/tee_api_arith_mpi.c:650
    37f8:	d2800021 	mov	x1, #0x1                   	// #1
    37fc:	aa1503e0 	mov	x0, x21
    3800:	94000967 	bl	5d9c <mbedtls_mpi_shift_r>
    3804:	34000080 	cbz	w0, 3814 <mpi_egcd+0x254>
/home/nk/optee/optee_os/lib/libutee/tee_api_arith_mpi.c:650 (discriminator 1)
    3808:	2a0003e2 	mov	w2, w0
    380c:	52805141 	mov	w1, #0x28a                 	// #650
    3810:	17ffff98 	b	3670 <mpi_egcd+0xb0>
/home/nk/optee/optee_os/lib/libutee/tee_api_arith_mpi.c:651
    3814:	aa1703e0 	mov	x0, x23
    3818:	97ffff58 	bl	3578 <mpi_is_odd>
    381c:	72001c1f 	tst	w0, #0xff
    3820:	54000120 	b.eq	3844 <mpi_egcd+0x284>  // b.none
/home/nk/optee/optee_os/lib/libutee/tee_api_arith_mpi.c:652
    3824:	aa1903e2 	mov	x2, x25
    3828:	aa1703e1 	mov	x1, x23
    382c:	aa1703e0 	mov	x0, x23
    3830:	94000ab0 	bl	62f0 <mbedtls_mpi_add_mpi>
    3834:	340001e0 	cbz	w0, 3870 <mpi_egcd+0x2b0>
/home/nk/optee/optee_os/lib/libutee/tee_api_arith_mpi.c:652 (discriminator 1)
    3838:	2a0003e2 	mov	w2, w0
    383c:	52805181 	mov	w1, #0x28c                 	// #652
    3840:	17ffff8c 	b	3670 <mpi_egcd+0xb0>
/home/nk/optee/optee_os/lib/libutee/tee_api_arith_mpi.c:651 (discriminator 1)
    3844:	aa1603e0 	mov	x0, x22
    3848:	97ffff4c 	bl	3578 <mpi_is_odd>
    384c:	72001c1f 	tst	w0, #0xff
    3850:	54fffea1 	b.ne	3824 <mpi_egcd+0x264>  // b.any
/home/nk/optee/optee_os/lib/libutee/tee_api_arith_mpi.c:655
    3854:	d2800021 	mov	x1, #0x1                   	// #1
    3858:	aa1703e0 	mov	x0, x23
    385c:	94000950 	bl	5d9c <mbedtls_mpi_shift_r>
    3860:	34000180 	cbz	w0, 3890 <mpi_egcd+0x2d0>
/home/nk/optee/optee_os/lib/libutee/tee_api_arith_mpi.c:655 (discriminator 1)
    3864:	2a0003e2 	mov	w2, w0
    3868:	528051e1 	mov	w1, #0x28f                 	// #655
    386c:	17ffff81 	b	3670 <mpi_egcd+0xb0>
/home/nk/optee/optee_os/lib/libutee/tee_api_arith_mpi.c:653
    3870:	aa1a03e2 	mov	x2, x26
    3874:	aa1603e1 	mov	x1, x22
    3878:	aa1603e0 	mov	x0, x22
    387c:	94000abf 	bl	6378 <mbedtls_mpi_sub_mpi>
    3880:	34fffea0 	cbz	w0, 3854 <mpi_egcd+0x294>
/home/nk/optee/optee_os/lib/libutee/tee_api_arith_mpi.c:653 (discriminator 1)
    3884:	2a0003e2 	mov	w2, w0
    3888:	528051a1 	mov	w1, #0x28d                 	// #653
    388c:	17ffff79 	b	3670 <mpi_egcd+0xb0>
/home/nk/optee/optee_os/lib/libutee/tee_api_arith_mpi.c:656
    3890:	d2800021 	mov	x1, #0x1                   	// #1
    3894:	aa1603e0 	mov	x0, x22
    3898:	94000941 	bl	5d9c <mbedtls_mpi_shift_r>
    389c:	34000080 	cbz	w0, 38ac <mpi_egcd+0x2ec>
/home/nk/optee/optee_os/lib/libutee/tee_api_arith_mpi.c:656 (discriminator 1)
    38a0:	2a0003e2 	mov	w2, w0
    38a4:	52805201 	mov	w1, #0x290                 	// #656
    38a8:	17ffff72 	b	3670 <mpi_egcd+0xb0>
mpi_is_even():
/home/nk/optee/optee_os/lib/libutee/tee_api_arith_mpi.c:596
    38ac:	aa1503e0 	mov	x0, x21
    38b0:	97ffff32 	bl	3578 <mpi_is_odd>
mpi_egcd():
/home/nk/optee/optee_os/lib/libutee/tee_api_arith_mpi.c:649
    38b4:	72001c1f 	tst	w0, #0xff
    38b8:	54fffa00 	b.eq	37f8 <mpi_egcd+0x238>  // b.none
mpi_is_even():
/home/nk/optee/optee_os/lib/libutee/tee_api_arith_mpi.c:596
    38bc:	aa1803e0 	mov	x0, x24
    38c0:	97ffff2e 	bl	3578 <mpi_is_odd>
mpi_egcd():
/home/nk/optee/optee_os/lib/libutee/tee_api_arith_mpi.c:659
    38c4:	72001c1f 	tst	w0, #0xff
    38c8:	540001a0 	b.eq	38fc <mpi_egcd+0x33c>  // b.none
/home/nk/optee/optee_os/lib/libutee/tee_api_arith_mpi.c:670
    38cc:	aa1803e1 	mov	x1, x24
    38d0:	aa1503e0 	mov	x0, x21
    38d4:	9400098b 	bl	5f00 <mbedtls_mpi_cmp_mpi>
    38d8:	37f808c0 	tbnz	w0, #31, 39f0 <mpi_egcd+0x430>
/home/nk/optee/optee_os/lib/libutee/tee_api_arith_mpi.c:671
    38dc:	aa1803e2 	mov	x2, x24
    38e0:	aa1503e1 	mov	x1, x21
    38e4:	aa1503e0 	mov	x0, x21
    38e8:	94000aa4 	bl	6378 <mbedtls_mpi_sub_mpi>
    38ec:	34000620 	cbz	w0, 39b0 <mpi_egcd+0x3f0>
/home/nk/optee/optee_os/lib/libutee/tee_api_arith_mpi.c:671 (discriminator 1)
    38f0:	2a0003e2 	mov	w2, w0
    38f4:	528053e1 	mov	w1, #0x29f                 	// #671
    38f8:	17ffff5e 	b	3670 <mpi_egcd+0xb0>
/home/nk/optee/optee_os/lib/libutee/tee_api_arith_mpi.c:660
    38fc:	d2800021 	mov	x1, #0x1                   	// #1
    3900:	aa1803e0 	mov	x0, x24
    3904:	94000926 	bl	5d9c <mbedtls_mpi_shift_r>
    3908:	34000080 	cbz	w0, 3918 <mpi_egcd+0x358>
/home/nk/optee/optee_os/lib/libutee/tee_api_arith_mpi.c:660 (discriminator 1)
    390c:	2a0003e2 	mov	w2, w0
    3910:	52805281 	mov	w1, #0x294                 	// #660
    3914:	17ffff57 	b	3670 <mpi_egcd+0xb0>
/home/nk/optee/optee_os/lib/libutee/tee_api_arith_mpi.c:661
    3918:	aa1403e0 	mov	x0, x20
    391c:	97ffff17 	bl	3578 <mpi_is_odd>
    3920:	72001c1f 	tst	w0, #0xff
    3924:	54000120 	b.eq	3948 <mpi_egcd+0x388>  // b.none
/home/nk/optee/optee_os/lib/libutee/tee_api_arith_mpi.c:662
    3928:	aa1903e2 	mov	x2, x25
    392c:	aa1403e1 	mov	x1, x20
    3930:	aa1403e0 	mov	x0, x20
    3934:	94000a6f 	bl	62f0 <mbedtls_mpi_add_mpi>
    3938:	340001e0 	cbz	w0, 3974 <mpi_egcd+0x3b4>
/home/nk/optee/optee_os/lib/libutee/tee_api_arith_mpi.c:662 (discriminator 1)
    393c:	2a0003e2 	mov	w2, w0
    3940:	528052c1 	mov	w1, #0x296                 	// #662
    3944:	17ffff4b 	b	3670 <mpi_egcd+0xb0>
/home/nk/optee/optee_os/lib/libutee/tee_api_arith_mpi.c:661 (discriminator 1)
    3948:	aa1303e0 	mov	x0, x19
    394c:	97ffff0b 	bl	3578 <mpi_is_odd>
    3950:	72001c1f 	tst	w0, #0xff
    3954:	54fffea1 	b.ne	3928 <mpi_egcd+0x368>  // b.any
/home/nk/optee/optee_os/lib/libutee/tee_api_arith_mpi.c:665
    3958:	d2800021 	mov	x1, #0x1                   	// #1
    395c:	aa1403e0 	mov	x0, x20
    3960:	9400090f 	bl	5d9c <mbedtls_mpi_shift_r>
    3964:	34000180 	cbz	w0, 3994 <mpi_egcd+0x3d4>
/home/nk/optee/optee_os/lib/libutee/tee_api_arith_mpi.c:665 (discriminator 1)
    3968:	2a0003e2 	mov	w2, w0
    396c:	52805321 	mov	w1, #0x299                 	// #665
    3970:	17ffff40 	b	3670 <mpi_egcd+0xb0>
/home/nk/optee/optee_os/lib/libutee/tee_api_arith_mpi.c:663
    3974:	aa1a03e2 	mov	x2, x26
    3978:	aa1303e1 	mov	x1, x19
    397c:	aa1303e0 	mov	x0, x19
    3980:	94000a7e 	bl	6378 <mbedtls_mpi_sub_mpi>
    3984:	34fffea0 	cbz	w0, 3958 <mpi_egcd+0x398>
/home/nk/optee/optee_os/lib/libutee/tee_api_arith_mpi.c:663 (discriminator 1)
    3988:	2a0003e2 	mov	w2, w0
    398c:	528052e1 	mov	w1, #0x297                 	// #663
    3990:	17ffff38 	b	3670 <mpi_egcd+0xb0>
/home/nk/optee/optee_os/lib/libutee/tee_api_arith_mpi.c:666
    3994:	d2800021 	mov	x1, #0x1                   	// #1
    3998:	aa1303e0 	mov	x0, x19
    399c:	94000900 	bl	5d9c <mbedtls_mpi_shift_r>
    39a0:	34fff8e0 	cbz	w0, 38bc <mpi_egcd+0x2fc>
/home/nk/optee/optee_os/lib/libutee/tee_api_arith_mpi.c:666 (discriminator 1)
    39a4:	2a0003e2 	mov	w2, w0
    39a8:	52805341 	mov	w1, #0x29a                 	// #666
    39ac:	17ffff31 	b	3670 <mpi_egcd+0xb0>
/home/nk/optee/optee_os/lib/libutee/tee_api_arith_mpi.c:672
    39b0:	aa1403e2 	mov	x2, x20
    39b4:	aa1703e1 	mov	x1, x23
    39b8:	aa1703e0 	mov	x0, x23
    39bc:	94000a6f 	bl	6378 <mbedtls_mpi_sub_mpi>
    39c0:	34000080 	cbz	w0, 39d0 <mpi_egcd+0x410>
/home/nk/optee/optee_os/lib/libutee/tee_api_arith_mpi.c:672 (discriminator 1)
    39c4:	2a0003e2 	mov	w2, w0
    39c8:	52805401 	mov	w1, #0x2a0                 	// #672
    39cc:	17ffff29 	b	3670 <mpi_egcd+0xb0>
/home/nk/optee/optee_os/lib/libutee/tee_api_arith_mpi.c:673
    39d0:	aa1303e2 	mov	x2, x19
    39d4:	aa1603e1 	mov	x1, x22
    39d8:	aa1603e0 	mov	x0, x22
    39dc:	94000a67 	bl	6378 <mbedtls_mpi_sub_mpi>
    39e0:	34000380 	cbz	w0, 3a50 <mpi_egcd+0x490>
/home/nk/optee/optee_os/lib/libutee/tee_api_arith_mpi.c:673 (discriminator 1)
    39e4:	2a0003e2 	mov	w2, w0
    39e8:	52805421 	mov	w1, #0x2a1                 	// #673
    39ec:	17ffff21 	b	3670 <mpi_egcd+0xb0>
/home/nk/optee/optee_os/lib/libutee/tee_api_arith_mpi.c:675
    39f0:	aa1503e2 	mov	x2, x21
    39f4:	aa1803e1 	mov	x1, x24
    39f8:	aa1803e0 	mov	x0, x24
    39fc:	94000a5f 	bl	6378 <mbedtls_mpi_sub_mpi>
    3a00:	34000080 	cbz	w0, 3a10 <mpi_egcd+0x450>
/home/nk/optee/optee_os/lib/libutee/tee_api_arith_mpi.c:675 (discriminator 1)
    3a04:	2a0003e2 	mov	w2, w0
    3a08:	52805461 	mov	w1, #0x2a3                 	// #675
    3a0c:	17ffff19 	b	3670 <mpi_egcd+0xb0>
/home/nk/optee/optee_os/lib/libutee/tee_api_arith_mpi.c:676
    3a10:	aa1703e2 	mov	x2, x23
    3a14:	aa1403e1 	mov	x1, x20
    3a18:	aa1403e0 	mov	x0, x20
    3a1c:	94000a57 	bl	6378 <mbedtls_mpi_sub_mpi>
    3a20:	34000080 	cbz	w0, 3a30 <mpi_egcd+0x470>
/home/nk/optee/optee_os/lib/libutee/tee_api_arith_mpi.c:676 (discriminator 1)
    3a24:	2a0003e2 	mov	w2, w0
    3a28:	52805481 	mov	w1, #0x2a4                 	// #676
    3a2c:	17ffff11 	b	3670 <mpi_egcd+0xb0>
/home/nk/optee/optee_os/lib/libutee/tee_api_arith_mpi.c:677
    3a30:	aa1603e2 	mov	x2, x22
    3a34:	aa1303e1 	mov	x1, x19
    3a38:	aa1303e0 	mov	x0, x19
    3a3c:	94000a4f 	bl	6378 <mbedtls_mpi_sub_mpi>
    3a40:	34000080 	cbz	w0, 3a50 <mpi_egcd+0x490>
/home/nk/optee/optee_os/lib/libutee/tee_api_arith_mpi.c:677 (discriminator 1)
    3a44:	2a0003e2 	mov	w2, w0
    3a48:	528054a1 	mov	w1, #0x2a5                 	// #677
    3a4c:	17ffff09 	b	3670 <mpi_egcd+0xb0>
/home/nk/optee/optee_os/lib/libutee/tee_api_arith_mpi.c:648
    3a50:	52800001 	mov	w1, #0x0                   	// #0
    3a54:	aa1503e0 	mov	x0, x21
    3a58:	94000996 	bl	60b0 <mbedtls_mpi_cmp_int>
    3a5c:	35fff280 	cbnz	w0, 38ac <mpi_egcd+0x2ec>
/home/nk/optee/optee_os/lib/libutee/tee_api_arith_mpi.c:681
    3a60:	9e660100 	fmov	x0, d8
    3a64:	aa1403e1 	mov	x1, x20
    3a68:	940006aa 	bl	5510 <mbedtls_mpi_copy>
    3a6c:	34000080 	cbz	w0, 3a7c <mpi_egcd+0x4bc>
/home/nk/optee/optee_os/lib/libutee/tee_api_arith_mpi.c:681 (discriminator 1)
    3a70:	2a0003e2 	mov	w2, w0
    3a74:	52805521 	mov	w1, #0x2a9                 	// #681
    3a78:	17fffefe 	b	3670 <mpi_egcd+0xb0>
/home/nk/optee/optee_os/lib/libutee/tee_api_arith_mpi.c:682
    3a7c:	aa1303e1 	mov	x1, x19
    3a80:	aa1c03e0 	mov	x0, x28
    3a84:	940006a3 	bl	5510 <mbedtls_mpi_copy>
    3a88:	34000080 	cbz	w0, 3a98 <mpi_egcd+0x4d8>
/home/nk/optee/optee_os/lib/libutee/tee_api_arith_mpi.c:682 (discriminator 1)
    3a8c:	2a0003e2 	mov	w2, w0
    3a90:	52805541 	mov	w1, #0x2aa                 	// #682
    3a94:	17fffef7 	b	3670 <mpi_egcd+0xb0>
/home/nk/optee/optee_os/lib/libutee/tee_api_arith_mpi.c:683
    3a98:	2a1b03e1 	mov	w1, w27
    3a9c:	aa1803e0 	mov	x0, x24
    3aa0:	9400087f 	bl	5c9c <mbedtls_mpi_shift_l>
    3aa4:	34000080 	cbz	w0, 3ab4 <mpi_egcd+0x4f4>
/home/nk/optee/optee_os/lib/libutee/tee_api_arith_mpi.c:683 (discriminator 1)
    3aa8:	2a0003e2 	mov	w2, w0
    3aac:	52805561 	mov	w1, #0x2ab                 	// #683
    3ab0:	17fffef0 	b	3670 <mpi_egcd+0xb0>
/home/nk/optee/optee_os/lib/libutee/tee_api_arith_mpi.c:686
    3ab4:	aa1703e0 	mov	x0, x23
    3ab8:	940005f5 	bl	528c <mbedtls_mpi_free>
/home/nk/optee/optee_os/lib/libutee/tee_api_arith_mpi.c:687
    3abc:	aa1603e0 	mov	x0, x22
    3ac0:	940005f3 	bl	528c <mbedtls_mpi_free>
/home/nk/optee/optee_os/lib/libutee/tee_api_arith_mpi.c:688
    3ac4:	aa1403e0 	mov	x0, x20
    3ac8:	940005f1 	bl	528c <mbedtls_mpi_free>
/home/nk/optee/optee_os/lib/libutee/tee_api_arith_mpi.c:689
    3acc:	aa1303e0 	mov	x0, x19
    3ad0:	940005ef 	bl	528c <mbedtls_mpi_free>
/home/nk/optee/optee_os/lib/libutee/tee_api_arith_mpi.c:690
    3ad4:	aa1a03e0 	mov	x0, x26
    3ad8:	940005ed 	bl	528c <mbedtls_mpi_free>
/home/nk/optee/optee_os/lib/libutee/tee_api_arith_mpi.c:691
    3adc:	aa1903e0 	mov	x0, x25
    3ae0:	940005eb 	bl	528c <mbedtls_mpi_free>
/home/nk/optee/optee_os/lib/libutee/tee_api_arith_mpi.c:692
    3ae4:	aa1503e0 	mov	x0, x21
    3ae8:	940005e9 	bl	528c <mbedtls_mpi_free>
/home/nk/optee/optee_os/lib/libutee/tee_api_arith_mpi.c:693
    3aec:	a94153f3 	ldp	x19, x20, [sp, #16]
    3af0:	a9425bf5 	ldp	x21, x22, [sp, #32]
    3af4:	a94363f7 	ldp	x23, x24, [sp, #48]
    3af8:	a9446bf9 	ldp	x25, x26, [sp, #64]
    3afc:	a94573fb 	ldp	x27, x28, [sp, #80]
    3b00:	6d4627e8 	ldp	d8, d9, [sp, #96]
    3b04:	a8d27bfd 	ldp	x29, x30, [sp], #288
    3b08:	d65f03c0 	ret

0000000000003b0c <_TEE_MathAPI_Init>:
_TEE_MathAPI_Init():
/home/nk/optee/optee_os/lib/libutee/tee_api_arith_mpi.c:44
    3b0c:	a9bf7bfd 	stp	x29, x30, [sp, #-16]!
/home/nk/optee/optee_os/lib/libutee/tee_api_arith_mpi.c:47
    3b10:	d2860001 	mov	x1, #0x3000                	// #12288
    3b14:	d2800002 	mov	x2, #0x0                   	// #0
/home/nk/optee/optee_os/lib/libutee/tee_api_arith_mpi.c:44
    3b18:	910003fd 	mov	x29, sp
/home/nk/optee/optee_os/lib/libutee/tee_api_arith_mpi.c:47
    3b1c:	d0000040 	adrp	x0, d000 <_DYNAMIC>
    3b20:	9112c000 	add	x0, x0, #0x4b0
    3b24:	9400171f 	bl	97a0 <mempool_alloc_pool>
    3b28:	d0000041 	adrp	x1, d000 <_DYNAMIC>
    3b2c:	f940c821 	ldr	x1, [x1, #400]
    3b30:	f9000020 	str	x0, [x1]
/home/nk/optee/optee_os/lib/libutee/tee_api_arith_mpi.c:48
    3b34:	b5000100 	cbnz	x0, 3b54 <_TEE_MathAPI_Init+0x48>
/home/nk/optee/optee_os/lib/libutee/tee_api_arith_mpi.c:49
    3b38:	b0000040 	adrp	x0, c000 <HEXDIGITS+0x62>
    3b3c:	91008800 	add	x0, x0, #0x22
    3b40:	b0000042 	adrp	x2, c000 <HEXDIGITS+0x62>
    3b44:	52800621 	mov	w1, #0x31                  	// #49
    3b48:	91069042 	add	x2, x2, #0x1a4
    3b4c:	91007c00 	add	x0, x0, #0x1f
    3b50:	97fffded 	bl	3304 <api_panic>
/home/nk/optee/optee_os/lib/libutee/tee_api_arith_mpi.c:50
    3b54:	a8c17bfd 	ldp	x29, x30, [sp], #16
    3b58:	d65f03c0 	ret

0000000000003b5c <TEE_BigIntInit>:
TEE_BigIntInit():
/home/nk/optee/optee_os/lib/libutee/tee_api_arith_mpi.c:120
    3b5c:	11007c22 	add	w2, w1, #0x1f
/home/nk/optee/optee_os/lib/libutee/tee_api_arith_mpi.c:119
    3b60:	a9be7bfd 	stp	x29, x30, [sp, #-32]!
/home/nk/optee/optee_os/lib/libutee/tee_api_arith_mpi.c:120
    3b64:	53057c42 	lsr	w2, w2, #5
/home/nk/optee/optee_os/lib/libutee/tee_api_arith_mpi.c:119
    3b68:	910003fd 	mov	x29, sp
/home/nk/optee/optee_os/lib/libutee/tee_api_arith_mpi.c:120
    3b6c:	11000842 	add	w2, w2, #0x2
/home/nk/optee/optee_os/lib/libutee/tee_api_arith_mpi.c:119
    3b70:	f9000bf3 	str	x19, [sp, #16]
    3b74:	2a0103f3 	mov	w19, w1
/home/nk/optee/optee_os/lib/libutee/tee_api_arith_mpi.c:120
    3b78:	d37e6c42 	ubfiz	x2, x2, #2, #28
    3b7c:	52800001 	mov	w1, #0x0                   	// #0
    3b80:	94001701 	bl	9784 <memset>
    3b84:	aa0003e3 	mov	x3, x0
/home/nk/optee/optee_os/lib/libutee/tee_api_arith_mpi.c:125
    3b88:	52800020 	mov	w0, #0x1                   	// #1
/home/nk/optee/optee_os/lib/libutee/tee_api_arith_mpi.c:126
    3b8c:	51000a73 	sub	w19, w19, #0x2
/home/nk/optee/optee_os/lib/libutee/tee_api_arith_mpi.c:125
    3b90:	b9000060 	str	w0, [x3]
/home/nk/optee/optee_os/lib/libutee/tee_api_arith_mpi.c:126
    3b94:	5284e200 	mov	w0, #0x2710                	// #10000
    3b98:	6b00027f 	cmp	w19, w0
    3b9c:	54000109 	b.ls	3bbc <TEE_BigIntInit+0x60>  // b.plast
/home/nk/optee/optee_os/lib/libutee/tee_api_arith_mpi.c:127
    3ba0:	b0000040 	adrp	x0, c000 <HEXDIGITS+0x62>
    3ba4:	91008800 	add	x0, x0, #0x22
    3ba8:	b0000042 	adrp	x2, c000 <HEXDIGITS+0x62>
    3bac:	52800fe1 	mov	w1, #0x7f                  	// #127
    3bb0:	91071442 	add	x2, x2, #0x1c5
    3bb4:	9100c400 	add	x0, x0, #0x31
    3bb8:	97fffdd3 	bl	3304 <api_panic>
/home/nk/optee/optee_os/lib/libutee/tee_api_arith_mpi.c:128
    3bbc:	79000873 	strh	w19, [x3, #4]
/home/nk/optee/optee_os/lib/libutee/tee_api_arith_mpi.c:129
    3bc0:	f9400bf3 	ldr	x19, [sp, #16]
    3bc4:	a8c27bfd 	ldp	x29, x30, [sp], #32
    3bc8:	d65f03c0 	ret

0000000000003bcc <TEE_BigIntConvertFromOctetString>:
TEE_BigIntConvertFromOctetString():
/home/nk/optee/optee_os/lib/libutee/tee_api_arith_mpi.c:134
    3bcc:	a9ba7bfd 	stp	x29, x30, [sp, #-96]!
    3bd0:	910003fd 	mov	x29, sp
    3bd4:	a90153f3 	stp	x19, x20, [sp, #16]
get_mpi():
/home/nk/optee/optee_os/lib/libutee/tee_api_arith_mpi.c:101
    3bd8:	910123f3 	add	x19, sp, #0x48
TEE_BigIntConvertFromOctetString():
/home/nk/optee/optee_os/lib/libutee/tee_api_arith_mpi.c:134
    3bdc:	2a0303f4 	mov	w20, w3
    3be0:	a9025bf5 	stp	x21, x22, [sp, #32]
    3be4:	2a0203f6 	mov	w22, w2
    3be8:	aa0003f5 	mov	x21, x0
get_mpi():
/home/nk/optee/optee_os/lib/libutee/tee_api_arith_mpi.c:101
    3bec:	aa1303e0 	mov	x0, x19
TEE_BigIntConvertFromOctetString():
/home/nk/optee/optee_os/lib/libutee/tee_api_arith_mpi.c:134
    3bf0:	f9001fe1 	str	x1, [sp, #56]
get_mpi():
/home/nk/optee/optee_os/lib/libutee/tee_api_arith_mpi.c:101
    3bf4:	9400059c 	bl	5264 <mbedtls_mpi_init_mempool>
TEE_BigIntConvertFromOctetString():
/home/nk/optee/optee_os/lib/libutee/tee_api_arith_mpi.c:140
    3bf8:	f9401fe1 	ldr	x1, [sp, #56]
    3bfc:	2a1603e2 	mov	w2, w22
    3c00:	aa1303e0 	mov	x0, x19
    3c04:	94000795 	bl	5a58 <mbedtls_mpi_read_binary>
    3c08:	350001e0 	cbnz	w0, 3c44 <TEE_BigIntConvertFromOctetString+0x78>
/home/nk/optee/optee_os/lib/libutee/tee_api_arith_mpi.c:145
    3c0c:	36f80074 	tbz	w20, #31, 3c18 <TEE_BigIntConvertFromOctetString+0x4c>
/home/nk/optee/optee_os/lib/libutee/tee_api_arith_mpi.c:146
    3c10:	12800000 	mov	w0, #0xffffffff            	// #-1
    3c14:	790093e0 	strh	w0, [sp, #72]
/home/nk/optee/optee_os/lib/libutee/tee_api_arith_mpi.c:149
    3c18:	aa1503e1 	mov	x1, x21
    3c1c:	aa1303e0 	mov	x0, x19
    3c20:	97fffdf7 	bl	33fc <copy_mpi_to_bigint>
    3c24:	2a0003f4 	mov	w20, w0
/home/nk/optee/optee_os/lib/libutee/tee_api_arith_mpi.c:151
    3c28:	aa1303e0 	mov	x0, x19
    3c2c:	94000598 	bl	528c <mbedtls_mpi_free>
/home/nk/optee/optee_os/lib/libutee/tee_api_arith_mpi.c:154
    3c30:	2a1403e0 	mov	w0, w20
    3c34:	a94153f3 	ldp	x19, x20, [sp, #16]
    3c38:	a9425bf5 	ldp	x21, x22, [sp, #32]
    3c3c:	a8c67bfd 	ldp	x29, x30, [sp], #96
    3c40:	d65f03c0 	ret
/home/nk/optee/optee_os/lib/libutee/tee_api_arith_mpi.c:145
    3c44:	36f80074 	tbz	w20, #31, 3c50 <TEE_BigIntConvertFromOctetString+0x84>
/home/nk/optee/optee_os/lib/libutee/tee_api_arith_mpi.c:146
    3c48:	12800000 	mov	w0, #0xffffffff            	// #-1
    3c4c:	790093e0 	strh	w0, [sp, #72]
/home/nk/optee/optee_os/lib/libutee/tee_api_arith_mpi.c:141
    3c50:	1299fe14 	mov	w20, #0xffff300f            	// #-53233
    3c54:	17fffff5 	b	3c28 <TEE_BigIntConvertFromOctetString+0x5c>

0000000000003c58 <TEE_BigIntConvertToOctetString>:
TEE_BigIntConvertToOctetString():
/home/nk/optee/optee_os/lib/libutee/tee_api_arith_mpi.c:158
    3c58:	a9bb7bfd 	stp	x29, x30, [sp, #-80]!
    3c5c:	910003fd 	mov	x29, sp
    3c60:	a9025bf5 	stp	x21, x22, [sp, #32]
    3c64:	aa0103f6 	mov	x22, x1
/home/nk/optee/optee_os/lib/libutee/tee_api_arith_mpi.c:163
    3c68:	aa0203e1 	mov	x1, x2
/home/nk/optee/optee_os/lib/libutee/tee_api_arith_mpi.c:158
    3c6c:	a90153f3 	stp	x19, x20, [sp, #16]
/home/nk/optee/optee_os/lib/libutee/tee_api_arith_mpi.c:163
    3c70:	9100e3f3 	add	x19, sp, #0x38
/home/nk/optee/optee_os/lib/libutee/tee_api_arith_mpi.c:158
    3c74:	aa0003f5 	mov	x21, x0
/home/nk/optee/optee_os/lib/libutee/tee_api_arith_mpi.c:163
    3c78:	aa1303e0 	mov	x0, x19
    3c7c:	97fffdba 	bl	3364 <get_mpi>
/home/nk/optee/optee_os/lib/libutee/tee_api_arith_mpi.c:165
    3c80:	aa1303e0 	mov	x0, x19
    3c84:	94000745 	bl	5998 <mbedtls_mpi_size>
    3c88:	aa0003f4 	mov	x20, x0
/home/nk/optee/optee_os/lib/libutee/tee_api_arith_mpi.c:166
    3c8c:	b94002c0 	ldr	w0, [x22]
    3c90:	eb14001f 	cmp	x0, x20
    3c94:	540001a3 	b.cc	3cc8 <TEE_BigIntConvertToOctetString+0x70>  // b.lo, b.ul, b.last
/home/nk/optee/optee_os/lib/libutee/tee_api_arith_mpi.c:167
    3c98:	aa1503e1 	mov	x1, x21
    3c9c:	aa1403e2 	mov	x2, x20
    3ca0:	aa1303e0 	mov	x0, x19
/home/nk/optee/optee_os/lib/libutee/tee_api_arith_mpi.c:159
    3ca4:	52800015 	mov	w21, #0x0                   	// #0
/home/nk/optee/optee_os/lib/libutee/tee_api_arith_mpi.c:167
    3ca8:	940007cc 	bl	5bd8 <mbedtls_mpi_write_binary>
    3cac:	34000100 	cbz	w0, 3ccc <TEE_BigIntConvertToOctetString+0x74>
/home/nk/optee/optee_os/lib/libutee/tee_api_arith_mpi.c:167 (discriminator 1)
    3cb0:	2a0003e2 	mov	w2, w0
    3cb4:	b0000040 	adrp	x0, c000 <HEXDIGITS+0x62>
    3cb8:	91008800 	add	x0, x0, #0x22
    3cbc:	528014e1 	mov	w1, #0xa7                  	// #167
    3cc0:	91010000 	add	x0, x0, #0x40
    3cc4:	97fffd9c 	bl	3334 <mpi_panic>
/home/nk/optee/optee_os/lib/libutee/tee_api_arith_mpi.c:169
    3cc8:	129ffdf5 	mov	w21, #0xffff0010            	// #-65520
/home/nk/optee/optee_os/lib/libutee/tee_api_arith_mpi.c:171
    3ccc:	b90002d4 	str	w20, [x22]
/home/nk/optee/optee_os/lib/libutee/tee_api_arith_mpi.c:173
    3cd0:	aa1303e0 	mov	x0, x19
    3cd4:	9400056e 	bl	528c <mbedtls_mpi_free>
/home/nk/optee/optee_os/lib/libutee/tee_api_arith_mpi.c:176
    3cd8:	2a1503e0 	mov	w0, w21
    3cdc:	a94153f3 	ldp	x19, x20, [sp, #16]
    3ce0:	a9425bf5 	ldp	x21, x22, [sp, #32]
    3ce4:	a8c57bfd 	ldp	x29, x30, [sp], #80
    3ce8:	d65f03c0 	ret

0000000000003cec <TEE_BigIntConvertFromS32>:
TEE_BigIntConvertFromS32():
/home/nk/optee/optee_os/lib/libutee/tee_api_arith_mpi.c:179
    3cec:	a9bb7bfd 	stp	x29, x30, [sp, #-80]!
    3cf0:	910003fd 	mov	x29, sp
    3cf4:	a90153f3 	stp	x19, x20, [sp, #16]
/home/nk/optee/optee_os/lib/libutee/tee_api_arith_mpi.c:182
    3cf8:	9100e3f3 	add	x19, sp, #0x38
/home/nk/optee/optee_os/lib/libutee/tee_api_arith_mpi.c:179
    3cfc:	aa0003f4 	mov	x20, x0
    3d00:	f90013f5 	str	x21, [sp, #32]
    3d04:	2a0103f5 	mov	w21, w1
/home/nk/optee/optee_os/lib/libutee/tee_api_arith_mpi.c:182
    3d08:	aa0003e1 	mov	x1, x0
    3d0c:	aa1303e0 	mov	x0, x19
    3d10:	97fffd95 	bl	3364 <get_mpi>
/home/nk/optee/optee_os/lib/libutee/tee_api_arith_mpi.c:184
    3d14:	2a1503e1 	mov	w1, w21
    3d18:	aa1303e0 	mov	x0, x19
    3d1c:	940006ab 	bl	57c8 <mbedtls_mpi_lset>
    3d20:	340000e0 	cbz	w0, 3d3c <TEE_BigIntConvertFromS32+0x50>
/home/nk/optee/optee_os/lib/libutee/tee_api_arith_mpi.c:184 (discriminator 1)
    3d24:	2a0003e2 	mov	w2, w0
    3d28:	52801701 	mov	w1, #0xb8                  	// #184
/home/nk/optee/optee_os/lib/libutee/tee_api_arith_mpi.c:186 (discriminator 1)
    3d2c:	b0000040 	adrp	x0, c000 <HEXDIGITS+0x62>
    3d30:	91008800 	add	x0, x0, #0x22
    3d34:	91017c00 	add	x0, x0, #0x5f
    3d38:	97fffd7f 	bl	3334 <mpi_panic>
/home/nk/optee/optee_os/lib/libutee/tee_api_arith_mpi.c:186
    3d3c:	aa1403e1 	mov	x1, x20
    3d40:	aa1303e0 	mov	x0, x19
    3d44:	97fffdae 	bl	33fc <copy_mpi_to_bigint>
    3d48:	34000080 	cbz	w0, 3d58 <TEE_BigIntConvertFromS32+0x6c>
/home/nk/optee/optee_os/lib/libutee/tee_api_arith_mpi.c:186 (discriminator 1)
    3d4c:	2a0003e2 	mov	w2, w0
    3d50:	52801741 	mov	w1, #0xba                  	// #186
    3d54:	17fffff6 	b	3d2c <TEE_BigIntConvertFromS32+0x40>
/home/nk/optee/optee_os/lib/libutee/tee_api_arith_mpi.c:187
    3d58:	aa1303e0 	mov	x0, x19
    3d5c:	9400054c 	bl	528c <mbedtls_mpi_free>
/home/nk/optee/optee_os/lib/libutee/tee_api_arith_mpi.c:188
    3d60:	a94153f3 	ldp	x19, x20, [sp, #16]
    3d64:	f94013f5 	ldr	x21, [sp, #32]
    3d68:	a8c57bfd 	ldp	x29, x30, [sp], #80
    3d6c:	d65f03c0 	ret

0000000000003d70 <TEE_BigIntConvertToS32>:
TEE_BigIntConvertToS32():
/home/nk/optee/optee_os/lib/libutee/tee_api_arith_mpi.c:191
    3d70:	a9bc7bfd 	stp	x29, x30, [sp, #-64]!
    3d74:	910003fd 	mov	x29, sp
    3d78:	a90153f3 	stp	x19, x20, [sp, #16]
/home/nk/optee/optee_os/lib/libutee/tee_api_arith_mpi.c:196
    3d7c:	9100a3f3 	add	x19, sp, #0x28
/home/nk/optee/optee_os/lib/libutee/tee_api_arith_mpi.c:191
    3d80:	aa0003f4 	mov	x20, x0
/home/nk/optee/optee_os/lib/libutee/tee_api_arith_mpi.c:196
    3d84:	aa1303e0 	mov	x0, x19
    3d88:	97fffd77 	bl	3364 <get_mpi>
/home/nk/optee/optee_os/lib/libutee/tee_api_arith_mpi.c:198
    3d8c:	d2800082 	mov	x2, #0x4                   	// #4
    3d90:	910093e1 	add	x1, sp, #0x24
    3d94:	aa1303e0 	mov	x0, x19
    3d98:	94000790 	bl	5bd8 <mbedtls_mpi_write_binary>
    3d9c:	34000100 	cbz	w0, 3dbc <TEE_BigIntConvertToS32+0x4c>
/home/nk/optee/optee_os/lib/libutee/tee_api_arith_mpi.c:199
    3da0:	1299fe14 	mov	w20, #0xffff300f            	// #-53233
/home/nk/optee/optee_os/lib/libutee/tee_api_arith_mpi.c:212
    3da4:	aa1303e0 	mov	x0, x19
    3da8:	94000539 	bl	528c <mbedtls_mpi_free>
/home/nk/optee/optee_os/lib/libutee/tee_api_arith_mpi.c:215
    3dac:	2a1403e0 	mov	w0, w20
    3db0:	a94153f3 	ldp	x19, x20, [sp, #16]
    3db4:	a8c47bfd 	ldp	x29, x30, [sp], #64
    3db8:	d65f03c0 	ret
/home/nk/optee/optee_os/lib/libutee/tee_api_arith_mpi.c:203
    3dbc:	b94027e1 	ldr	w1, [sp, #36]
    3dc0:	79c053e0 	ldrsh	w0, [sp, #40]
    3dc4:	5ac00821 	rev	w1, w1
    3dc8:	7100001f 	cmp	w0, #0x0
    3dcc:	2a0103e0 	mov	w0, w1
    3dd0:	540000cd 	b.le	3de8 <TEE_BigIntConvertToS32+0x78>
/home/nk/optee/optee_os/lib/libutee/tee_api_arith_mpi.c:204
    3dd4:	eb21c01f 	cmp	x0, w1, sxtw
    3dd8:	b9000281 	str	w1, [x20]
/home/nk/optee/optee_os/lib/libutee/tee_api_arith_mpi.c:207
    3ddc:	54fffe21 	b.ne	3da0 <TEE_BigIntConvertToS32+0x30>  // b.any
/home/nk/optee/optee_os/lib/libutee/tee_api_arith_mpi.c:192
    3de0:	52800014 	mov	w20, #0x0                   	// #0
    3de4:	17fffff0 	b	3da4 <TEE_BigIntConvertToS32+0x34>
/home/nk/optee/optee_os/lib/libutee/tee_api_arith_mpi.c:207
    3de8:	cb0003e0 	neg	x0, x0
    3dec:	b9000280 	str	w0, [x20]
    3df0:	eb20c01f 	cmp	x0, w0, sxtw
    3df4:	17fffffa 	b	3ddc <TEE_BigIntConvertToS32+0x6c>

0000000000003df8 <TEE_BigIntCmp>:
TEE_BigIntCmp():
/home/nk/optee/optee_os/lib/libutee/tee_api_arith_mpi.c:218
    3df8:	a9ba7bfd 	stp	x29, x30, [sp, #-96]!
    3dfc:	910003fd 	mov	x29, sp
    3e00:	a90153f3 	stp	x19, x20, [sp, #16]
/home/nk/optee/optee_os/lib/libutee/tee_api_arith_mpi.c:223
    3e04:	9100c3f4 	add	x20, sp, #0x30
/home/nk/optee/optee_os/lib/libutee/tee_api_arith_mpi.c:224
    3e08:	910123f3 	add	x19, sp, #0x48
/home/nk/optee/optee_os/lib/libutee/tee_api_arith_mpi.c:218
    3e0c:	f90013f5 	str	x21, [sp, #32]
    3e10:	aa0103f5 	mov	x21, x1
/home/nk/optee/optee_os/lib/libutee/tee_api_arith_mpi.c:223
    3e14:	aa0003e1 	mov	x1, x0
    3e18:	aa1403e0 	mov	x0, x20
    3e1c:	97fffd52 	bl	3364 <get_mpi>
/home/nk/optee/optee_os/lib/libutee/tee_api_arith_mpi.c:224
    3e20:	aa1503e1 	mov	x1, x21
    3e24:	aa1303e0 	mov	x0, x19
    3e28:	97fffd4f 	bl	3364 <get_mpi>
/home/nk/optee/optee_os/lib/libutee/tee_api_arith_mpi.c:226
    3e2c:	aa1303e1 	mov	x1, x19
    3e30:	aa1403e0 	mov	x0, x20
    3e34:	94000833 	bl	5f00 <mbedtls_mpi_cmp_mpi>
    3e38:	2a0003f5 	mov	w21, w0
/home/nk/optee/optee_os/lib/libutee/tee_api_arith_mpi.c:228
    3e3c:	aa1403e0 	mov	x0, x20
    3e40:	94000513 	bl	528c <mbedtls_mpi_free>
/home/nk/optee/optee_os/lib/libutee/tee_api_arith_mpi.c:229
    3e44:	aa1303e0 	mov	x0, x19
    3e48:	94000511 	bl	528c <mbedtls_mpi_free>
/home/nk/optee/optee_os/lib/libutee/tee_api_arith_mpi.c:232
    3e4c:	2a1503e0 	mov	w0, w21
    3e50:	a94153f3 	ldp	x19, x20, [sp, #16]
    3e54:	f94013f5 	ldr	x21, [sp, #32]
    3e58:	a8c67bfd 	ldp	x29, x30, [sp], #96
    3e5c:	d65f03c0 	ret

0000000000003e60 <TEE_BigIntCmpS32>:
TEE_BigIntCmpS32():
/home/nk/optee/optee_os/lib/libutee/tee_api_arith_mpi.c:235
    3e60:	a9bc7bfd 	stp	x29, x30, [sp, #-64]!
    3e64:	910003fd 	mov	x29, sp
    3e68:	a90153f3 	stp	x19, x20, [sp, #16]
/home/nk/optee/optee_os/lib/libutee/tee_api_arith_mpi.c:239
    3e6c:	9100a3f3 	add	x19, sp, #0x28
/home/nk/optee/optee_os/lib/libutee/tee_api_arith_mpi.c:235
    3e70:	2a0103f4 	mov	w20, w1
/home/nk/optee/optee_os/lib/libutee/tee_api_arith_mpi.c:239
    3e74:	aa0003e1 	mov	x1, x0
    3e78:	aa1303e0 	mov	x0, x19
    3e7c:	97fffd3a 	bl	3364 <get_mpi>
/home/nk/optee/optee_os/lib/libutee/tee_api_arith_mpi.c:241
    3e80:	2a1403e1 	mov	w1, w20
    3e84:	aa1303e0 	mov	x0, x19
    3e88:	9400088a 	bl	60b0 <mbedtls_mpi_cmp_int>
    3e8c:	2a0003f4 	mov	w20, w0
/home/nk/optee/optee_os/lib/libutee/tee_api_arith_mpi.c:243
    3e90:	aa1303e0 	mov	x0, x19
    3e94:	940004fe 	bl	528c <mbedtls_mpi_free>
/home/nk/optee/optee_os/lib/libutee/tee_api_arith_mpi.c:246
    3e98:	2a1403e0 	mov	w0, w20
    3e9c:	a94153f3 	ldp	x19, x20, [sp, #16]
    3ea0:	a8c47bfd 	ldp	x29, x30, [sp], #64
    3ea4:	d65f03c0 	ret

0000000000003ea8 <bigint_binary_mod>:
bigint_binary_mod():
/home/nk/optee/optee_os/lib/libutee/tee_api_arith_mpi.c:356
    3ea8:	a9b27bfd 	stp	x29, x30, [sp, #-224]!
    3eac:	910003fd 	mov	x29, sp
    3eb0:	a90153f3 	stp	x19, x20, [sp, #16]
    3eb4:	aa0203f4 	mov	x20, x2
    3eb8:	a9025bf5 	stp	x21, x22, [sp, #32]
    3ebc:	aa0103f6 	mov	x22, x1
    3ec0:	aa0303f5 	mov	x21, x3
/home/nk/optee/optee_os/lib/libutee/tee_api_arith_mpi.c:357
    3ec4:	52800041 	mov	w1, #0x2                   	// #2
/home/nk/optee/optee_os/lib/libutee/tee_api_arith_mpi.c:356
    3ec8:	a90363f7 	stp	x23, x24, [sp, #48]
    3ecc:	aa0003f7 	mov	x23, x0
/home/nk/optee/optee_os/lib/libutee/tee_api_arith_mpi.c:357
    3ed0:	aa0303e0 	mov	x0, x3
/home/nk/optee/optee_os/lib/libutee/tee_api_arith_mpi.c:356
    3ed4:	a9046bf9 	stp	x25, x26, [sp, #64]
    3ed8:	f9002bfb 	str	x27, [sp, #80]
    3edc:	aa0403fb 	mov	x27, x4
/home/nk/optee/optee_os/lib/libutee/tee_api_arith_mpi.c:357
    3ee0:	97ffffe0 	bl	3e60 <TEE_BigIntCmpS32>
    3ee4:	36f80100 	tbz	w0, #31, 3f04 <bigint_binary_mod+0x5c>
/home/nk/optee/optee_os/lib/libutee/tee_api_arith_mpi.c:358
    3ee8:	b0000040 	adrp	x0, c000 <HEXDIGITS+0x62>
    3eec:	91008800 	add	x0, x0, #0x22
    3ef0:	b0000042 	adrp	x2, c000 <HEXDIGITS+0x62>
    3ef4:	52802cc1 	mov	w1, #0x166                 	// #358
    3ef8:	91075842 	add	x2, x2, #0x1d6
    3efc:	9101e000 	add	x0, x0, #0x78
    3f00:	97fffd01 	bl	3304 <api_panic>
/home/nk/optee/optee_os/lib/libutee/tee_api_arith_mpi.c:368
    3f04:	9101a3f3 	add	x19, sp, #0x68
    3f08:	aa1703e1 	mov	x1, x23
    3f0c:	aa1303e0 	mov	x0, x19
/home/nk/optee/optee_os/lib/libutee/tee_api_arith_mpi.c:369
    3f10:	9102c3fa 	add	x26, sp, #0xb0
/home/nk/optee/optee_os/lib/libutee/tee_api_arith_mpi.c:368
    3f14:	97fffd14 	bl	3364 <get_mpi>
/home/nk/optee/optee_os/lib/libutee/tee_api_arith_mpi.c:369
    3f18:	910203f9 	add	x25, sp, #0x80
    3f1c:	aa1503e1 	mov	x1, x21
    3f20:	aa1a03e0 	mov	x0, x26
    3f24:	97fffd10 	bl	3364 <get_mpi>
/home/nk/optee/optee_os/lib/libutee/tee_api_arith_mpi.c:371
    3f28:	eb1602ff 	cmp	x23, x22
    3f2c:	54000380 	b.eq	3f9c <bigint_binary_mod+0xf4>  // b.none
/home/nk/optee/optee_os/lib/libutee/tee_api_arith_mpi.c:364
    3f30:	aa1903f5 	mov	x21, x25
/home/nk/optee/optee_os/lib/libutee/tee_api_arith_mpi.c:374
    3f34:	aa1603e1 	mov	x1, x22
    3f38:	aa1903e0 	mov	x0, x25
    3f3c:	97fffd0a 	bl	3364 <get_mpi>
/home/nk/optee/optee_os/lib/libutee/tee_api_arith_mpi.c:376
    3f40:	eb1402ff 	cmp	x23, x20
    3f44:	910263f8 	add	x24, sp, #0x98
    3f48:	540002e0 	b.eq	3fa4 <bigint_binary_mod+0xfc>  // b.none
/home/nk/optee/optee_os/lib/libutee/tee_api_arith_mpi.c:378
    3f4c:	eb1402df 	cmp	x22, x20
    3f50:	540002e0 	b.eq	3fac <bigint_binary_mod+0x104>  // b.none
/home/nk/optee/optee_os/lib/libutee/tee_api_arith_mpi.c:381
    3f54:	aa1403e1 	mov	x1, x20
/home/nk/optee/optee_os/lib/libutee/tee_api_arith_mpi.c:365
    3f58:	aa1803f4 	mov	x20, x24
/home/nk/optee/optee_os/lib/libutee/tee_api_arith_mpi.c:381
    3f5c:	aa1803e0 	mov	x0, x24
    3f60:	97fffd01 	bl	3364 <get_mpi>
get_mpi():
/home/nk/optee/optee_os/lib/libutee/tee_api_arith_mpi.c:101
    3f64:	910323f6 	add	x22, sp, #0xc8
    3f68:	aa1603e0 	mov	x0, x22
    3f6c:	940004be 	bl	5264 <mbedtls_mpi_init_mempool>
bigint_binary_mod():
/home/nk/optee/optee_os/lib/libutee/tee_api_arith_mpi.c:385
    3f70:	aa1403e2 	mov	x2, x20
    3f74:	aa1503e1 	mov	x1, x21
    3f78:	aa1603e0 	mov	x0, x22
    3f7c:	d63f0360 	blr	x27
    3f80:	340001a0 	cbz	w0, 3fb4 <bigint_binary_mod+0x10c>
/home/nk/optee/optee_os/lib/libutee/tee_api_arith_mpi.c:385 (discriminator 1)
    3f84:	2a0003e2 	mov	w2, w0
    3f88:	52803021 	mov	w1, #0x181                 	// #385
/home/nk/optee/optee_os/lib/libutee/tee_api_arith_mpi.c:386 (discriminator 1)
    3f8c:	b0000040 	adrp	x0, c000 <HEXDIGITS+0x62>
    3f90:	91008800 	add	x0, x0, #0x22
    3f94:	9101e000 	add	x0, x0, #0x78
    3f98:	97fffce7 	bl	3334 <mpi_panic>
/home/nk/optee/optee_os/lib/libutee/tee_api_arith_mpi.c:372
    3f9c:	aa1303f5 	mov	x21, x19
    3fa0:	17ffffe8 	b	3f40 <bigint_binary_mod+0x98>
/home/nk/optee/optee_os/lib/libutee/tee_api_arith_mpi.c:377
    3fa4:	aa1303f4 	mov	x20, x19
    3fa8:	17ffffef 	b	3f64 <bigint_binary_mod+0xbc>
/home/nk/optee/optee_os/lib/libutee/tee_api_arith_mpi.c:379
    3fac:	aa1503f4 	mov	x20, x21
    3fb0:	17ffffed 	b	3f64 <bigint_binary_mod+0xbc>
/home/nk/optee/optee_os/lib/libutee/tee_api_arith_mpi.c:386
    3fb4:	aa1a03e2 	mov	x2, x26
    3fb8:	aa1603e1 	mov	x1, x22
    3fbc:	aa1303e0 	mov	x0, x19
    3fc0:	94000b54 	bl	6d10 <mbedtls_mpi_mod_mpi>
    3fc4:	34000080 	cbz	w0, 3fd4 <bigint_binary_mod+0x12c>
/home/nk/optee/optee_os/lib/libutee/tee_api_arith_mpi.c:386 (discriminator 1)
    3fc8:	2a0003e2 	mov	w2, w0
    3fcc:	52803041 	mov	w1, #0x182                 	// #386
    3fd0:	17ffffef 	b	3f8c <bigint_binary_mod+0xe4>
/home/nk/optee/optee_os/lib/libutee/tee_api_arith_mpi.c:388
    3fd4:	aa1703e1 	mov	x1, x23
    3fd8:	aa1303e0 	mov	x0, x19
    3fdc:	97fffd08 	bl	33fc <copy_mpi_to_bigint>
    3fe0:	34000080 	cbz	w0, 3ff0 <bigint_binary_mod+0x148>
/home/nk/optee/optee_os/lib/libutee/tee_api_arith_mpi.c:388 (discriminator 1)
    3fe4:	2a0003e2 	mov	w2, w0
    3fe8:	52803081 	mov	w1, #0x184                 	// #388
    3fec:	17ffffe8 	b	3f8c <bigint_binary_mod+0xe4>
/home/nk/optee/optee_os/lib/libutee/tee_api_arith_mpi.c:389
    3ff0:	aa1303e0 	mov	x0, x19
    3ff4:	940004a6 	bl	528c <mbedtls_mpi_free>
/home/nk/optee/optee_os/lib/libutee/tee_api_arith_mpi.c:390
    3ff8:	eb1902bf 	cmp	x21, x25
    3ffc:	54000061 	b.ne	4008 <bigint_binary_mod+0x160>  // b.any
/home/nk/optee/optee_os/lib/libutee/tee_api_arith_mpi.c:391
    4000:	aa1503e0 	mov	x0, x21
    4004:	940004a2 	bl	528c <mbedtls_mpi_free>
/home/nk/optee/optee_os/lib/libutee/tee_api_arith_mpi.c:392
    4008:	eb18029f 	cmp	x20, x24
    400c:	54000061 	b.ne	4018 <bigint_binary_mod+0x170>  // b.any
/home/nk/optee/optee_os/lib/libutee/tee_api_arith_mpi.c:393
    4010:	aa1403e0 	mov	x0, x20
    4014:	9400049e 	bl	528c <mbedtls_mpi_free>
/home/nk/optee/optee_os/lib/libutee/tee_api_arith_mpi.c:394
    4018:	aa1603e0 	mov	x0, x22
    401c:	9400049c 	bl	528c <mbedtls_mpi_free>
/home/nk/optee/optee_os/lib/libutee/tee_api_arith_mpi.c:395
    4020:	a94153f3 	ldp	x19, x20, [sp, #16]
    4024:	a9425bf5 	ldp	x21, x22, [sp, #32]
    4028:	a94363f7 	ldp	x23, x24, [sp, #48]
    402c:	a9446bf9 	ldp	x25, x26, [sp, #64]
    4030:	f9402bfb 	ldr	x27, [sp, #80]
    4034:	a8ce7bfd 	ldp	x29, x30, [sp], #224
    4038:	d65f03c0 	ret

000000000000403c <TEE_BigIntShiftRight>:
TEE_BigIntShiftRight():
/home/nk/optee/optee_os/lib/libutee/tee_api_arith_mpi.c:249
    403c:	a9b77bfd 	stp	x29, x30, [sp, #-144]!
    4040:	910003fd 	mov	x29, sp
    4044:	a90153f3 	stp	x19, x20, [sp, #16]
/home/nk/optee/optee_os/lib/libutee/tee_api_arith_mpi.c:253
    4048:	910123f3 	add	x19, sp, #0x48
/home/nk/optee/optee_os/lib/libutee/tee_api_arith_mpi.c:249
    404c:	a9025bf5 	stp	x21, x22, [sp, #32]
    4050:	aa0003f6 	mov	x22, x0
    4054:	aa0103f5 	mov	x21, x1
/home/nk/optee/optee_os/lib/libutee/tee_api_arith_mpi.c:253
    4058:	aa0003e1 	mov	x1, x0
    405c:	aa1303e0 	mov	x0, x19
/home/nk/optee/optee_os/lib/libutee/tee_api_arith_mpi.c:249
    4060:	f9001bf7 	str	x23, [sp, #48]
    4064:	aa0203f7 	mov	x23, x2
/home/nk/optee/optee_os/lib/libutee/tee_api_arith_mpi.c:253
    4068:	97fffcbf 	bl	3364 <get_mpi>
/home/nk/optee/optee_os/lib/libutee/tee_api_arith_mpi.c:255
    406c:	eb1502df 	cmp	x22, x21
    4070:	54000161 	b.ne	409c <TEE_BigIntShiftRight+0x60>  // b.any
/home/nk/optee/optee_os/lib/libutee/tee_api_arith_mpi.c:256
    4074:	aa1703e1 	mov	x1, x23
    4078:	aa1303e0 	mov	x0, x19
    407c:	94000748 	bl	5d9c <mbedtls_mpi_shift_r>
    4080:	34000780 	cbz	w0, 4170 <TEE_BigIntShiftRight+0x134>
/home/nk/optee/optee_os/lib/libutee/tee_api_arith_mpi.c:256 (discriminator 1)
    4084:	2a0003e2 	mov	w2, w0
    4088:	52802001 	mov	w1, #0x100                 	// #256
/home/nk/optee/optee_os/lib/libutee/tee_api_arith_mpi.c:263 (discriminator 1)
    408c:	90000040 	adrp	x0, c000 <HEXDIGITS+0x62>
    4090:	91008800 	add	x0, x0, #0x22
    4094:	91022800 	add	x0, x0, #0x8a
    4098:	97fffca7 	bl	3334 <mpi_panic>
/home/nk/optee/optee_os/lib/libutee/tee_api_arith_mpi.c:260
    409c:	aa1503e1 	mov	x1, x21
    40a0:	910183f4 	add	x20, sp, #0x60
    40a4:	aa1403e0 	mov	x0, x20
    40a8:	97fffcaf 	bl	3364 <get_mpi>
/home/nk/optee/optee_os/lib/libutee/tee_api_arith_mpi.c:262
    40ac:	aa1303e0 	mov	x0, x19
    40b0:	9400063a 	bl	5998 <mbedtls_mpi_size>
    40b4:	aa0003f5 	mov	x21, x0
    40b8:	aa1403e0 	mov	x0, x20
    40bc:	94000637 	bl	5998 <mbedtls_mpi_size>
    40c0:	eb0002bf 	cmp	x21, x0
    40c4:	540001e3 	b.cc	4100 <TEE_BigIntShiftRight+0xc4>  // b.lo, b.ul, b.last
/home/nk/optee/optee_os/lib/libutee/tee_api_arith_mpi.c:263
    40c8:	aa1403e1 	mov	x1, x20
    40cc:	aa1303e0 	mov	x0, x19
    40d0:	94000510 	bl	5510 <mbedtls_mpi_copy>
    40d4:	34000080 	cbz	w0, 40e4 <TEE_BigIntShiftRight+0xa8>
/home/nk/optee/optee_os/lib/libutee/tee_api_arith_mpi.c:263 (discriminator 1)
    40d8:	2a0003e2 	mov	w2, w0
    40dc:	528020e1 	mov	w1, #0x107                 	// #263
    40e0:	17ffffeb 	b	408c <TEE_BigIntShiftRight+0x50>
/home/nk/optee/optee_os/lib/libutee/tee_api_arith_mpi.c:264
    40e4:	aa1703e1 	mov	x1, x23
    40e8:	aa1303e0 	mov	x0, x19
    40ec:	9400072c 	bl	5d9c <mbedtls_mpi_shift_r>
    40f0:	340003c0 	cbz	w0, 4168 <TEE_BigIntShiftRight+0x12c>
/home/nk/optee/optee_os/lib/libutee/tee_api_arith_mpi.c:264 (discriminator 1)
    40f4:	2a0003e2 	mov	w2, w0
    40f8:	52802101 	mov	w1, #0x108                 	// #264
    40fc:	17ffffe4 	b	408c <TEE_BigIntShiftRight+0x50>
get_mpi():
/home/nk/optee/optee_os/lib/libutee/tee_api_arith_mpi.c:101
    4100:	9101e3f5 	add	x21, sp, #0x78
    4104:	aa1503e0 	mov	x0, x21
    4108:	94000457 	bl	5264 <mbedtls_mpi_init_mempool>
TEE_BigIntShiftRight():
/home/nk/optee/optee_os/lib/libutee/tee_api_arith_mpi.c:275
    410c:	aa1403e1 	mov	x1, x20
    4110:	aa1503e0 	mov	x0, x21
    4114:	940004ff 	bl	5510 <mbedtls_mpi_copy>
    4118:	34000080 	cbz	w0, 4128 <TEE_BigIntShiftRight+0xec>
/home/nk/optee/optee_os/lib/libutee/tee_api_arith_mpi.c:275 (discriminator 1)
    411c:	2a0003e2 	mov	w2, w0
    4120:	52802261 	mov	w1, #0x113                 	// #275
    4124:	17ffffda 	b	408c <TEE_BigIntShiftRight+0x50>
/home/nk/optee/optee_os/lib/libutee/tee_api_arith_mpi.c:276
    4128:	aa1703e1 	mov	x1, x23
    412c:	aa1503e0 	mov	x0, x21
    4130:	9400071b 	bl	5d9c <mbedtls_mpi_shift_r>
    4134:	34000080 	cbz	w0, 4144 <TEE_BigIntShiftRight+0x108>
/home/nk/optee/optee_os/lib/libutee/tee_api_arith_mpi.c:276 (discriminator 1)
    4138:	2a0003e2 	mov	w2, w0
    413c:	52802281 	mov	w1, #0x114                 	// #276
    4140:	17ffffd3 	b	408c <TEE_BigIntShiftRight+0x50>
/home/nk/optee/optee_os/lib/libutee/tee_api_arith_mpi.c:277
    4144:	aa1503e1 	mov	x1, x21
    4148:	aa1303e0 	mov	x0, x19
    414c:	940004f1 	bl	5510 <mbedtls_mpi_copy>
    4150:	34000080 	cbz	w0, 4160 <TEE_BigIntShiftRight+0x124>
/home/nk/optee/optee_os/lib/libutee/tee_api_arith_mpi.c:277 (discriminator 1)
    4154:	2a0003e2 	mov	w2, w0
    4158:	528022a1 	mov	w1, #0x115                 	// #277
    415c:	17ffffcc 	b	408c <TEE_BigIntShiftRight+0x50>
/home/nk/optee/optee_os/lib/libutee/tee_api_arith_mpi.c:279
    4160:	aa1503e0 	mov	x0, x21
    4164:	9400044a 	bl	528c <mbedtls_mpi_free>
/home/nk/optee/optee_os/lib/libutee/tee_api_arith_mpi.c:282
    4168:	aa1403e0 	mov	x0, x20
    416c:	94000448 	bl	528c <mbedtls_mpi_free>
/home/nk/optee/optee_os/lib/libutee/tee_api_arith_mpi.c:285
    4170:	aa1603e1 	mov	x1, x22
    4174:	aa1303e0 	mov	x0, x19
    4178:	97fffca1 	bl	33fc <copy_mpi_to_bigint>
    417c:	34000080 	cbz	w0, 418c <TEE_BigIntShiftRight+0x150>
/home/nk/optee/optee_os/lib/libutee/tee_api_arith_mpi.c:285 (discriminator 1)
    4180:	2a0003e2 	mov	w2, w0
    4184:	528023a1 	mov	w1, #0x11d                 	// #285
    4188:	17ffffc1 	b	408c <TEE_BigIntShiftRight+0x50>
/home/nk/optee/optee_os/lib/libutee/tee_api_arith_mpi.c:286
    418c:	aa1303e0 	mov	x0, x19
    4190:	9400043f 	bl	528c <mbedtls_mpi_free>
/home/nk/optee/optee_os/lib/libutee/tee_api_arith_mpi.c:287
    4194:	a94153f3 	ldp	x19, x20, [sp, #16]
    4198:	a9425bf5 	ldp	x21, x22, [sp, #32]
    419c:	f9401bf7 	ldr	x23, [sp, #48]
    41a0:	a8c97bfd 	ldp	x29, x30, [sp], #144
    41a4:	d65f03c0 	ret

00000000000041a8 <TEE_BigIntGetBit>:
TEE_BigIntGetBit():
/home/nk/optee/optee_os/lib/libutee/tee_api_arith_mpi.c:290
    41a8:	a9bc7bfd 	stp	x29, x30, [sp, #-64]!
    41ac:	910003fd 	mov	x29, sp
    41b0:	a90153f3 	stp	x19, x20, [sp, #16]
/home/nk/optee/optee_os/lib/libutee/tee_api_arith_mpi.c:294
    41b4:	9100a3f3 	add	x19, sp, #0x28
/home/nk/optee/optee_os/lib/libutee/tee_api_arith_mpi.c:290
    41b8:	2a0103f4 	mov	w20, w1
/home/nk/optee/optee_os/lib/libutee/tee_api_arith_mpi.c:294
    41bc:	aa0003e1 	mov	x1, x0
    41c0:	aa1303e0 	mov	x0, x19
    41c4:	97fffc68 	bl	3364 <get_mpi>
/home/nk/optee/optee_os/lib/libutee/tee_api_arith_mpi.c:296
    41c8:	2a1403e1 	mov	w1, w20
    41cc:	aa1303e0 	mov	x0, x19
    41d0:	94000598 	bl	5830 <mbedtls_mpi_get_bit>
    41d4:	2a0003f4 	mov	w20, w0
/home/nk/optee/optee_os/lib/libutee/tee_api_arith_mpi.c:298
    41d8:	aa1303e0 	mov	x0, x19
    41dc:	9400042c 	bl	528c <mbedtls_mpi_free>
/home/nk/optee/optee_os/lib/libutee/tee_api_arith_mpi.c:296
    41e0:	7100029f 	cmp	w20, #0x0
/home/nk/optee/optee_os/lib/libutee/tee_api_arith_mpi.c:301
    41e4:	1a9f07e0 	cset	w0, ne  // ne = any
    41e8:	a94153f3 	ldp	x19, x20, [sp, #16]
    41ec:	a8c47bfd 	ldp	x29, x30, [sp], #64
    41f0:	d65f03c0 	ret

00000000000041f4 <TEE_BigIntGetBitCount>:
TEE_BigIntGetBitCount():
/home/nk/optee/optee_os/lib/libutee/tee_api_arith_mpi.c:304
    41f4:	a9bc7bfd 	stp	x29, x30, [sp, #-64]!
/home/nk/optee/optee_os/lib/libutee/tee_api_arith_mpi.c:308
    41f8:	aa0003e1 	mov	x1, x0
/home/nk/optee/optee_os/lib/libutee/tee_api_arith_mpi.c:304
    41fc:	910003fd 	mov	x29, sp
    4200:	a90153f3 	stp	x19, x20, [sp, #16]
/home/nk/optee/optee_os/lib/libutee/tee_api_arith_mpi.c:308
    4204:	9100a3f3 	add	x19, sp, #0x28
    4208:	aa1303e0 	mov	x0, x19
    420c:	97fffc56 	bl	3364 <get_mpi>
/home/nk/optee/optee_os/lib/libutee/tee_api_arith_mpi.c:310
    4210:	aa1303e0 	mov	x0, x19
    4214:	940005ca 	bl	593c <mbedtls_mpi_bitlen>
    4218:	aa0003f4 	mov	x20, x0
/home/nk/optee/optee_os/lib/libutee/tee_api_arith_mpi.c:312
    421c:	aa1303e0 	mov	x0, x19
    4220:	9400041b 	bl	528c <mbedtls_mpi_free>
/home/nk/optee/optee_os/lib/libutee/tee_api_arith_mpi.c:315
    4224:	2a1403e0 	mov	w0, w20
    4228:	a94153f3 	ldp	x19, x20, [sp, #16]
    422c:	a8c47bfd 	ldp	x29, x30, [sp], #64
    4230:	d65f03c0 	ret

0000000000004234 <TEE_BigIntAdd>:
TEE_BigIntAdd():
/home/nk/optee/optee_os/lib/libutee/tee_api_arith_mpi.c:400
    4234:	b0000043 	adrp	x3, d000 <_DYNAMIC>
    4238:	f940a863 	ldr	x3, [x3, #336]
    423c:	17fffc89 	b	3460 <bigint_binary>

0000000000004240 <TEE_BigIntSub>:
TEE_BigIntSub():
/home/nk/optee/optee_os/lib/libutee/tee_api_arith_mpi.c:406
    4240:	b0000043 	adrp	x3, d000 <_DYNAMIC>
    4244:	f940b063 	ldr	x3, [x3, #352]
    4248:	17fffc86 	b	3460 <bigint_binary>

000000000000424c <TEE_BigIntNeg>:
TEE_BigIntNeg():
/home/nk/optee/optee_os/lib/libutee/tee_api_arith_mpi.c:410
    424c:	a9ba7bfd 	stp	x29, x30, [sp, #-96]!
    4250:	910003fd 	mov	x29, sp
    4254:	a90153f3 	stp	x19, x20, [sp, #16]
/home/nk/optee/optee_os/lib/libutee/tee_api_arith_mpi.c:413
    4258:	9100c3f3 	add	x19, sp, #0x30
/home/nk/optee/optee_os/lib/libutee/tee_api_arith_mpi.c:410
    425c:	aa0003f4 	mov	x20, x0
    4260:	a9025bf5 	stp	x21, x22, [sp, #32]
    4264:	aa0103f6 	mov	x22, x1
/home/nk/optee/optee_os/lib/libutee/tee_api_arith_mpi.c:413
    4268:	aa0003e1 	mov	x1, x0
    426c:	aa1303e0 	mov	x0, x19
    4270:	97fffc3d 	bl	3364 <get_mpi>
/home/nk/optee/optee_os/lib/libutee/tee_api_arith_mpi.c:415
    4274:	eb16029f 	cmp	x20, x22
    4278:	54000220 	b.eq	42bc <TEE_BigIntNeg+0x70>  // b.none
/home/nk/optee/optee_os/lib/libutee/tee_api_arith_mpi.c:418
    427c:	910123f5 	add	x21, sp, #0x48
    4280:	aa1603e1 	mov	x1, x22
    4284:	aa1503e0 	mov	x0, x21
    4288:	97fffc37 	bl	3364 <get_mpi>
/home/nk/optee/optee_os/lib/libutee/tee_api_arith_mpi.c:420
    428c:	aa1503e1 	mov	x1, x21
    4290:	aa1303e0 	mov	x0, x19
    4294:	9400049f 	bl	5510 <mbedtls_mpi_copy>
    4298:	340000e0 	cbz	w0, 42b4 <TEE_BigIntNeg+0x68>
/home/nk/optee/optee_os/lib/libutee/tee_api_arith_mpi.c:420 (discriminator 1)
    429c:	2a0003e2 	mov	w2, w0
    42a0:	52803481 	mov	w1, #0x1a4                 	// #420
/home/nk/optee/optee_os/lib/libutee/tee_api_arith_mpi.c:427 (discriminator 1)
    42a4:	90000040 	adrp	x0, c000 <HEXDIGITS+0x62>
    42a8:	91008800 	add	x0, x0, #0x22
    42ac:	91027c00 	add	x0, x0, #0x9f
    42b0:	97fffc21 	bl	3334 <mpi_panic>
/home/nk/optee/optee_os/lib/libutee/tee_api_arith_mpi.c:422
    42b4:	aa1503e0 	mov	x0, x21
    42b8:	940003f5 	bl	528c <mbedtls_mpi_free>
/home/nk/optee/optee_os/lib/libutee/tee_api_arith_mpi.c:425
    42bc:	794063e0 	ldrh	w0, [sp, #48]
/home/nk/optee/optee_os/lib/libutee/tee_api_arith_mpi.c:427
    42c0:	aa1403e1 	mov	x1, x20
/home/nk/optee/optee_os/lib/libutee/tee_api_arith_mpi.c:425
    42c4:	4b0003e0 	neg	w0, w0
    42c8:	790063e0 	strh	w0, [sp, #48]
/home/nk/optee/optee_os/lib/libutee/tee_api_arith_mpi.c:427
    42cc:	aa1303e0 	mov	x0, x19
    42d0:	97fffc4b 	bl	33fc <copy_mpi_to_bigint>
    42d4:	34000080 	cbz	w0, 42e4 <TEE_BigIntNeg+0x98>
/home/nk/optee/optee_os/lib/libutee/tee_api_arith_mpi.c:427 (discriminator 1)
    42d8:	2a0003e2 	mov	w2, w0
    42dc:	52803561 	mov	w1, #0x1ab                 	// #427
    42e0:	17fffff1 	b	42a4 <TEE_BigIntNeg+0x58>
/home/nk/optee/optee_os/lib/libutee/tee_api_arith_mpi.c:428
    42e4:	aa1303e0 	mov	x0, x19
    42e8:	940003e9 	bl	528c <mbedtls_mpi_free>
/home/nk/optee/optee_os/lib/libutee/tee_api_arith_mpi.c:429
    42ec:	a94153f3 	ldp	x19, x20, [sp, #16]
    42f0:	a9425bf5 	ldp	x21, x22, [sp, #32]
    42f4:	a8c67bfd 	ldp	x29, x30, [sp], #96
    42f8:	d65f03c0 	ret

00000000000042fc <TEE_BigIntMul>:
TEE_BigIntMul():
/home/nk/optee/optee_os/lib/libutee/tee_api_arith_mpi.c:433
    42fc:	a9ba7bfd 	stp	x29, x30, [sp, #-96]!
    4300:	910003fd 	mov	x29, sp
    4304:	a90153f3 	stp	x19, x20, [sp, #16]
    4308:	a9025bf5 	stp	x21, x22, [sp, #32]
/home/nk/optee/optee_os/lib/libutee/tee_api_arith_mpi.c:440
    430c:	b0000056 	adrp	x22, d000 <_DYNAMIC>
    4310:	aa1603f5 	mov	x21, x22
/home/nk/optee/optee_os/lib/libutee/tee_api_arith_mpi.c:433
    4314:	a90363f7 	stp	x23, x24, [sp, #48]
    4318:	aa0203f8 	mov	x24, x2
    431c:	aa0103f7 	mov	x23, x1
    4320:	f90023f9 	str	x25, [sp, #64]
    4324:	aa0003f9 	mov	x25, x0
/home/nk/optee/optee_os/lib/libutee/tee_api_arith_mpi.c:434
    4328:	aa0103e0 	mov	x0, x1
    432c:	97ffffb2 	bl	41f4 <TEE_BigIntGetBitCount>
    4330:	2a0003f3 	mov	w19, w0
/home/nk/optee/optee_os/lib/libutee/tee_api_arith_mpi.c:435
    4334:	aa1803e0 	mov	x0, x24
    4338:	97ffffaf 	bl	41f4 <TEE_BigIntGetBitCount>
    433c:	2a0003e0 	mov	w0, w0
/home/nk/optee/optee_os/lib/libutee/tee_api_arith_mpi.c:436
    4340:	91007c00 	add	x0, x0, #0x1f
    4344:	91007e73 	add	x19, x19, #0x1f
/home/nk/optee/optee_os/lib/libutee/tee_api_arith_mpi.c:437
    4348:	f9002bff 	str	xzr, [sp, #80]
/home/nk/optee/optee_os/lib/libutee/tee_api_arith_mpi.c:436
    434c:	d345fc00 	lsr	x0, x0, #5
/home/nk/optee/optee_os/lib/libutee/tee_api_arith_mpi.c:437
    4350:	b9005bff 	str	wzr, [sp, #88]
/home/nk/optee/optee_os/lib/libutee/tee_api_arith_mpi.c:436
    4354:	8b531413 	add	x19, x0, x19, lsr #5
/home/nk/optee/optee_os/lib/libutee/tee_api_arith_mpi.c:440
    4358:	f940cac0 	ldr	x0, [x22, #400]
/home/nk/optee/optee_os/lib/libutee/tee_api_arith_mpi.c:436
    435c:	91001273 	add	x19, x19, #0x4
/home/nk/optee/optee_os/lib/libutee/tee_api_arith_mpi.c:440
    4360:	d37ef661 	lsl	x1, x19, #2
    4364:	f9400000 	ldr	x0, [x0]
    4368:	94001528 	bl	9808 <mempool_alloc>
    436c:	aa0003f4 	mov	x20, x0
/home/nk/optee/optee_os/lib/libutee/tee_api_arith_mpi.c:441
    4370:	b5000060 	cbnz	x0, 437c <TEE_BigIntMul+0x80>
/home/nk/optee/optee_os/lib/libutee/tee_api_arith_mpi.c:442
    4374:	129ffe60 	mov	w0, #0xffff000c            	// #-65524
    4378:	97fff991 	bl	29bc <TEE_Panic>
/home/nk/optee/optee_os/lib/libutee/tee_api_arith_mpi.c:444
    437c:	2a1303e1 	mov	w1, w19
    4380:	aa1403e0 	mov	x0, x20
/home/nk/optee/optee_os/lib/libutee/tee_api_arith_mpi.c:445
    4384:	910143f3 	add	x19, sp, #0x50
/home/nk/optee/optee_os/lib/libutee/tee_api_arith_mpi.c:444
    4388:	97fffdf5 	bl	3b5c <TEE_BigIntInit>
/home/nk/optee/optee_os/lib/libutee/tee_api_arith_mpi.c:445
    438c:	aa1303e0 	mov	x0, x19
    4390:	52800061 	mov	w1, #0x3                   	// #3
    4394:	97fffdf2 	bl	3b5c <TEE_BigIntInit>
/home/nk/optee/optee_os/lib/libutee/tee_api_arith_mpi.c:447
    4398:	f940a6a3 	ldr	x3, [x21, #328]
    439c:	aa1803e2 	mov	x2, x24
    43a0:	aa1703e1 	mov	x1, x23
    43a4:	aa1403e0 	mov	x0, x20
    43a8:	97fffc2e 	bl	3460 <bigint_binary>
/home/nk/optee/optee_os/lib/libutee/tee_api_arith_mpi.c:449
    43ac:	aa1303e2 	mov	x2, x19
    43b0:	aa1403e1 	mov	x1, x20
    43b4:	aa1903e0 	mov	x0, x25
    43b8:	97ffff9f 	bl	4234 <TEE_BigIntAdd>
/home/nk/optee/optee_os/lib/libutee/tee_api_arith_mpi.c:451
    43bc:	f940cab5 	ldr	x21, [x21, #400]
    43c0:	aa1403e1 	mov	x1, x20
    43c4:	f94002a0 	ldr	x0, [x21]
    43c8:	9400154f 	bl	9904 <mempool_free>
/home/nk/optee/optee_os/lib/libutee/tee_api_arith_mpi.c:452
    43cc:	a94153f3 	ldp	x19, x20, [sp, #16]
    43d0:	a9425bf5 	ldp	x21, x22, [sp, #32]
    43d4:	a94363f7 	ldp	x23, x24, [sp, #48]
    43d8:	f94023f9 	ldr	x25, [sp, #64]
    43dc:	a8c67bfd 	ldp	x29, x30, [sp], #96
    43e0:	d65f03c0 	ret

00000000000043e4 <TEE_BigIntSquare>:
TEE_BigIntSquare():
/home/nk/optee/optee_os/lib/libutee/tee_api_arith_mpi.c:456
    43e4:	aa0103e2 	mov	x2, x1
    43e8:	17ffffc5 	b	42fc <TEE_BigIntMul>

00000000000043ec <TEE_BigIntDiv>:
TEE_BigIntDiv():
/home/nk/optee/optee_os/lib/libutee/tee_api_arith_mpi.c:461
    43ec:	a9b47bfd 	stp	x29, x30, [sp, #-192]!
    43f0:	910003fd 	mov	x29, sp
    43f4:	a9025bf5 	stp	x21, x22, [sp, #32]
/home/nk/optee/optee_os/lib/libutee/tee_api_arith_mpi.c:469
    43f8:	910183f6 	add	x22, sp, #0x60
/home/nk/optee/optee_os/lib/libutee/tee_api_arith_mpi.c:470
    43fc:	9101e3f5 	add	x21, sp, #0x78
/home/nk/optee/optee_os/lib/libutee/tee_api_arith_mpi.c:461
    4400:	a90153f3 	stp	x19, x20, [sp, #16]
    4404:	aa0303f3 	mov	x19, x3
    4408:	a90363f7 	stp	x23, x24, [sp, #48]
    440c:	aa0003f8 	mov	x24, x0
    4410:	aa0103f7 	mov	x23, x1
/home/nk/optee/optee_os/lib/libutee/tee_api_arith_mpi.c:469
    4414:	aa0003e1 	mov	x1, x0
    4418:	aa1603e0 	mov	x0, x22
/home/nk/optee/optee_os/lib/libutee/tee_api_arith_mpi.c:461
    441c:	a9046bf9 	stp	x25, x26, [sp, #64]
    4420:	aa0203f9 	mov	x25, x2
    4424:	f9002bfb 	str	x27, [sp, #80]
/home/nk/optee/optee_os/lib/libutee/tee_api_arith_mpi.c:469
    4428:	97fffbcf 	bl	3364 <get_mpi>
/home/nk/optee/optee_os/lib/libutee/tee_api_arith_mpi.c:470
    442c:	aa1703e1 	mov	x1, x23
    4430:	aa1503e0 	mov	x0, x21
    4434:	97fffbcc 	bl	3364 <get_mpi>
/home/nk/optee/optee_os/lib/libutee/tee_api_arith_mpi.c:472
    4438:	910243fb 	add	x27, sp, #0x90
    443c:	eb19031f 	cmp	x24, x25
    4440:	540003c0 	b.eq	44b8 <TEE_BigIntDiv+0xcc>  // b.none
/home/nk/optee/optee_os/lib/libutee/tee_api_arith_mpi.c:474
    4444:	eb1902ff 	cmp	x23, x25
    4448:	540003c0 	b.eq	44c0 <TEE_BigIntDiv+0xd4>  // b.none
/home/nk/optee/optee_os/lib/libutee/tee_api_arith_mpi.c:466
    444c:	aa1b03f4 	mov	x20, x27
/home/nk/optee/optee_os/lib/libutee/tee_api_arith_mpi.c:477
    4450:	aa1903e1 	mov	x1, x25
    4454:	aa1b03e0 	mov	x0, x27
    4458:	97fffbc3 	bl	3364 <get_mpi>
/home/nk/optee/optee_os/lib/libutee/tee_api_arith_mpi.c:479
    445c:	eb13031f 	cmp	x24, x19
    4460:	9102a3fa 	add	x26, sp, #0xa8
    4464:	54000320 	b.eq	44c8 <TEE_BigIntDiv+0xdc>  // b.none
/home/nk/optee/optee_os/lib/libutee/tee_api_arith_mpi.c:481
    4468:	eb1302ff 	cmp	x23, x19
    446c:	54000320 	b.eq	44d0 <TEE_BigIntDiv+0xe4>  // b.none
/home/nk/optee/optee_os/lib/libutee/tee_api_arith_mpi.c:483
    4470:	eb13033f 	cmp	x25, x19
    4474:	54000320 	b.eq	44d8 <TEE_BigIntDiv+0xec>  // b.none
/home/nk/optee/optee_os/lib/libutee/tee_api_arith_mpi.c:486
    4478:	aa1303e1 	mov	x1, x19
/home/nk/optee/optee_os/lib/libutee/tee_api_arith_mpi.c:467
    447c:	aa1a03f3 	mov	x19, x26
/home/nk/optee/optee_os/lib/libutee/tee_api_arith_mpi.c:486
    4480:	aa1a03e0 	mov	x0, x26
    4484:	97fffbb8 	bl	3364 <get_mpi>
/home/nk/optee/optee_os/lib/libutee/tee_api_arith_mpi.c:488
    4488:	aa1303e3 	mov	x3, x19
    448c:	aa1403e2 	mov	x2, x20
    4490:	aa1503e1 	mov	x1, x21
    4494:	aa1603e0 	mov	x0, x22
    4498:	940008d5 	bl	67ec <mbedtls_mpi_div_mpi>
    449c:	34000220 	cbz	w0, 44e0 <TEE_BigIntDiv+0xf4>
/home/nk/optee/optee_os/lib/libutee/tee_api_arith_mpi.c:488 (discriminator 1)
    44a0:	2a0003e2 	mov	w2, w0
    44a4:	52803d01 	mov	w1, #0x1e8                 	// #488
/home/nk/optee/optee_os/lib/libutee/tee_api_arith_mpi.c:490 (discriminator 1)
    44a8:	90000040 	adrp	x0, c000 <HEXDIGITS+0x62>
    44ac:	91008800 	add	x0, x0, #0x22
    44b0:	9102b400 	add	x0, x0, #0xad
    44b4:	97fffba0 	bl	3334 <mpi_panic>
/home/nk/optee/optee_os/lib/libutee/tee_api_arith_mpi.c:473
    44b8:	aa1603f4 	mov	x20, x22
    44bc:	17ffffe8 	b	445c <TEE_BigIntDiv+0x70>
/home/nk/optee/optee_os/lib/libutee/tee_api_arith_mpi.c:475
    44c0:	aa1503f4 	mov	x20, x21
    44c4:	17ffffe6 	b	445c <TEE_BigIntDiv+0x70>
/home/nk/optee/optee_os/lib/libutee/tee_api_arith_mpi.c:480
    44c8:	aa1603f3 	mov	x19, x22
    44cc:	17ffffef 	b	4488 <TEE_BigIntDiv+0x9c>
/home/nk/optee/optee_os/lib/libutee/tee_api_arith_mpi.c:482
    44d0:	aa1503f3 	mov	x19, x21
    44d4:	17ffffed 	b	4488 <TEE_BigIntDiv+0x9c>
/home/nk/optee/optee_os/lib/libutee/tee_api_arith_mpi.c:484
    44d8:	aa1403f3 	mov	x19, x20
    44dc:	17ffffeb 	b	4488 <TEE_BigIntDiv+0x9c>
/home/nk/optee/optee_os/lib/libutee/tee_api_arith_mpi.c:490
    44e0:	aa1803e1 	mov	x1, x24
    44e4:	aa1603e0 	mov	x0, x22
    44e8:	97fffbc5 	bl	33fc <copy_mpi_to_bigint>
    44ec:	34000080 	cbz	w0, 44fc <TEE_BigIntDiv+0x110>
/home/nk/optee/optee_os/lib/libutee/tee_api_arith_mpi.c:490 (discriminator 1)
    44f0:	2a0003e2 	mov	w2, w0
    44f4:	52803d41 	mov	w1, #0x1ea                 	// #490
    44f8:	17ffffec 	b	44a8 <TEE_BigIntDiv+0xbc>
/home/nk/optee/optee_os/lib/libutee/tee_api_arith_mpi.c:491
    44fc:	aa1703e1 	mov	x1, x23
    4500:	aa1503e0 	mov	x0, x21
    4504:	97fffbbe 	bl	33fc <copy_mpi_to_bigint>
    4508:	34000080 	cbz	w0, 4518 <TEE_BigIntDiv+0x12c>
/home/nk/optee/optee_os/lib/libutee/tee_api_arith_mpi.c:491 (discriminator 1)
    450c:	2a0003e2 	mov	w2, w0
    4510:	52803d61 	mov	w1, #0x1eb                 	// #491
    4514:	17ffffe5 	b	44a8 <TEE_BigIntDiv+0xbc>
/home/nk/optee/optee_os/lib/libutee/tee_api_arith_mpi.c:492
    4518:	aa1603e0 	mov	x0, x22
    451c:	9400035c 	bl	528c <mbedtls_mpi_free>
/home/nk/optee/optee_os/lib/libutee/tee_api_arith_mpi.c:493
    4520:	aa1503e0 	mov	x0, x21
    4524:	9400035a 	bl	528c <mbedtls_mpi_free>
/home/nk/optee/optee_os/lib/libutee/tee_api_arith_mpi.c:494
    4528:	eb1b029f 	cmp	x20, x27
    452c:	54000061 	b.ne	4538 <TEE_BigIntDiv+0x14c>  // b.any
/home/nk/optee/optee_os/lib/libutee/tee_api_arith_mpi.c:495
    4530:	aa1403e0 	mov	x0, x20
    4534:	94000356 	bl	528c <mbedtls_mpi_free>
/home/nk/optee/optee_os/lib/libutee/tee_api_arith_mpi.c:496
    4538:	eb1a027f 	cmp	x19, x26
    453c:	54000061 	b.ne	4548 <TEE_BigIntDiv+0x15c>  // b.any
/home/nk/optee/optee_os/lib/libutee/tee_api_arith_mpi.c:497
    4540:	aa1303e0 	mov	x0, x19
    4544:	94000352 	bl	528c <mbedtls_mpi_free>
/home/nk/optee/optee_os/lib/libutee/tee_api_arith_mpi.c:498
    4548:	a94153f3 	ldp	x19, x20, [sp, #16]
    454c:	a9425bf5 	ldp	x21, x22, [sp, #32]
    4550:	a94363f7 	ldp	x23, x24, [sp, #48]
    4554:	a9446bf9 	ldp	x25, x26, [sp, #64]
    4558:	f9402bfb 	ldr	x27, [sp, #80]
    455c:	a8cc7bfd 	ldp	x29, x30, [sp], #192
    4560:	d65f03c0 	ret

0000000000004564 <TEE_BigIntMod>:
TEE_BigIntMod():
/home/nk/optee/optee_os/lib/libutee/tee_api_arith_mpi.c:501
    4564:	a9bd7bfd 	stp	x29, x30, [sp, #-48]!
    4568:	910003fd 	mov	x29, sp
    456c:	a90153f3 	stp	x19, x20, [sp, #16]
    4570:	aa0003f3 	mov	x19, x0
    4574:	aa0103f4 	mov	x20, x1
/home/nk/optee/optee_os/lib/libutee/tee_api_arith_mpi.c:502
    4578:	aa0203e0 	mov	x0, x2
    457c:	52800041 	mov	w1, #0x2                   	// #2
    4580:	f90017e2 	str	x2, [sp, #40]
    4584:	97fffe37 	bl	3e60 <TEE_BigIntCmpS32>
    4588:	f94017e2 	ldr	x2, [sp, #40]
    458c:	36f80100 	tbz	w0, #31, 45ac <TEE_BigIntMod+0x48>
/home/nk/optee/optee_os/lib/libutee/tee_api_arith_mpi.c:503
    4590:	90000040 	adrp	x0, c000 <HEXDIGITS+0x62>
    4594:	91008800 	add	x0, x0, #0x22
    4598:	90000042 	adrp	x2, c000 <HEXDIGITS+0x62>
    459c:	52803ee1 	mov	w1, #0x1f7                 	// #503
    45a0:	91075842 	add	x2, x2, #0x1d6
    45a4:	9102ec00 	add	x0, x0, #0xbb
    45a8:	97fffb57 	bl	3304 <api_panic>
/home/nk/optee/optee_os/lib/libutee/tee_api_arith_mpi.c:505
    45ac:	b0000043 	adrp	x3, d000 <_DYNAMIC>
    45b0:	aa1403e1 	mov	x1, x20
    45b4:	aa1303e0 	mov	x0, x19
    45b8:	f940bc63 	ldr	x3, [x3, #376]
/home/nk/optee/optee_os/lib/libutee/tee_api_arith_mpi.c:506
    45bc:	a94153f3 	ldp	x19, x20, [sp, #16]
    45c0:	a8c37bfd 	ldp	x29, x30, [sp], #48
/home/nk/optee/optee_os/lib/libutee/tee_api_arith_mpi.c:505
    45c4:	17fffba7 	b	3460 <bigint_binary>

00000000000045c8 <TEE_BigIntAddMod>:
TEE_BigIntAddMod():
/home/nk/optee/optee_os/lib/libutee/tee_api_arith_mpi.c:511
    45c8:	b0000044 	adrp	x4, d000 <_DYNAMIC>
    45cc:	f940a884 	ldr	x4, [x4, #336]
    45d0:	17fffe36 	b	3ea8 <bigint_binary_mod>

00000000000045d4 <TEE_BigIntSubMod>:
TEE_BigIntSubMod():
/home/nk/optee/optee_os/lib/libutee/tee_api_arith_mpi.c:517
    45d4:	b0000044 	adrp	x4, d000 <_DYNAMIC>
    45d8:	f940b084 	ldr	x4, [x4, #352]
    45dc:	17fffe33 	b	3ea8 <bigint_binary_mod>

00000000000045e0 <TEE_BigIntMulMod>:
TEE_BigIntMulMod():
/home/nk/optee/optee_os/lib/libutee/tee_api_arith_mpi.c:523
    45e0:	b0000044 	adrp	x4, d000 <_DYNAMIC>
    45e4:	f940a484 	ldr	x4, [x4, #328]
    45e8:	17fffe30 	b	3ea8 <bigint_binary_mod>

00000000000045ec <TEE_BigIntSquareMod>:
TEE_BigIntSquareMod():
/home/nk/optee/optee_os/lib/libutee/tee_api_arith_mpi.c:529
    45ec:	aa0203e3 	mov	x3, x2
    45f0:	aa0103e2 	mov	x2, x1
    45f4:	17fffffb 	b	45e0 <TEE_BigIntMulMod>

00000000000045f8 <TEE_BigIntInvMod>:
TEE_BigIntInvMod():
/home/nk/optee/optee_os/lib/libutee/tee_api_arith_mpi.c:534
    45f8:	a9b77bfd 	stp	x29, x30, [sp, #-144]!
    45fc:	910003fd 	mov	x29, sp
    4600:	a90153f3 	stp	x19, x20, [sp, #16]
    4604:	aa0103f4 	mov	x20, x1
/home/nk/optee/optee_os/lib/libutee/tee_api_arith_mpi.c:535
    4608:	52800041 	mov	w1, #0x2                   	// #2
/home/nk/optee/optee_os/lib/libutee/tee_api_arith_mpi.c:534
    460c:	a9025bf5 	stp	x21, x22, [sp, #32]
    4610:	aa0203f5 	mov	x21, x2
    4614:	f9001bf7 	str	x23, [sp, #48]
    4618:	aa0003f7 	mov	x23, x0
/home/nk/optee/optee_os/lib/libutee/tee_api_arith_mpi.c:535
    461c:	aa0203e0 	mov	x0, x2
    4620:	97fffe10 	bl	3e60 <TEE_BigIntCmpS32>
    4624:	36f80100 	tbz	w0, #31, 4644 <TEE_BigIntInvMod+0x4c>
/home/nk/optee/optee_os/lib/libutee/tee_api_arith_mpi.c:536
    4628:	90000040 	adrp	x0, c000 <HEXDIGITS+0x62>
    462c:	91008800 	add	x0, x0, #0x22
    4630:	90000042 	adrp	x2, c000 <HEXDIGITS+0x62>
    4634:	52804301 	mov	w1, #0x218                 	// #536
    4638:	9107ac42 	add	x2, x2, #0x1eb
    463c:	91032400 	add	x0, x0, #0xc9
    4640:	97fffb31 	bl	3304 <api_panic>
/home/nk/optee/optee_os/lib/libutee/tee_api_arith_mpi.c:535 (discriminator 1)
    4644:	52800001 	mov	w1, #0x0                   	// #0
    4648:	aa1403e0 	mov	x0, x20
    464c:	97fffe05 	bl	3e60 <TEE_BigIntCmpS32>
    4650:	34fffec0 	cbz	w0, 4628 <TEE_BigIntInvMod+0x30>
/home/nk/optee/optee_os/lib/libutee/tee_api_arith_mpi.c:543
    4654:	910123f3 	add	x19, sp, #0x48
    4658:	aa1703e1 	mov	x1, x23
    465c:	aa1303e0 	mov	x0, x19
/home/nk/optee/optee_os/lib/libutee/tee_api_arith_mpi.c:544
    4660:	9101e3f6 	add	x22, sp, #0x78
/home/nk/optee/optee_os/lib/libutee/tee_api_arith_mpi.c:543
    4664:	97fffb40 	bl	3364 <get_mpi>
/home/nk/optee/optee_os/lib/libutee/tee_api_arith_mpi.c:544
    4668:	aa1503e1 	mov	x1, x21
    466c:	aa1603e0 	mov	x0, x22
    4670:	97fffb3d 	bl	3364 <get_mpi>
/home/nk/optee/optee_os/lib/libutee/tee_api_arith_mpi.c:546
    4674:	910183f5 	add	x21, sp, #0x60
    4678:	eb17029f 	cmp	x20, x23
    467c:	54000200 	b.eq	46bc <TEE_BigIntInvMod+0xc4>  // b.none
/home/nk/optee/optee_os/lib/libutee/tee_api_arith_mpi.c:549
    4680:	aa1403e1 	mov	x1, x20
/home/nk/optee/optee_os/lib/libutee/tee_api_arith_mpi.c:541
    4684:	aa1503f4 	mov	x20, x21
/home/nk/optee/optee_os/lib/libutee/tee_api_arith_mpi.c:549
    4688:	aa1503e0 	mov	x0, x21
    468c:	97fffb36 	bl	3364 <get_mpi>
/home/nk/optee/optee_os/lib/libutee/tee_api_arith_mpi.c:551
    4690:	aa1603e2 	mov	x2, x22
    4694:	aa1403e1 	mov	x1, x20
    4698:	aa1303e0 	mov	x0, x19
    469c:	94000def 	bl	7e58 <mbedtls_mpi_inv_mod>
    46a0:	34000120 	cbz	w0, 46c4 <TEE_BigIntInvMod+0xcc>
/home/nk/optee/optee_os/lib/libutee/tee_api_arith_mpi.c:551 (discriminator 1)
    46a4:	2a0003e2 	mov	w2, w0
    46a8:	528044e1 	mov	w1, #0x227                 	// #551
/home/nk/optee/optee_os/lib/libutee/tee_api_arith_mpi.c:553 (discriminator 1)
    46ac:	90000040 	adrp	x0, c000 <HEXDIGITS+0x62>
    46b0:	91008800 	add	x0, x0, #0x22
    46b4:	91032400 	add	x0, x0, #0xc9
    46b8:	97fffb1f 	bl	3334 <mpi_panic>
/home/nk/optee/optee_os/lib/libutee/tee_api_arith_mpi.c:547
    46bc:	aa1303f4 	mov	x20, x19
    46c0:	17fffff4 	b	4690 <TEE_BigIntInvMod+0x98>
/home/nk/optee/optee_os/lib/libutee/tee_api_arith_mpi.c:553
    46c4:	aa1703e1 	mov	x1, x23
    46c8:	aa1303e0 	mov	x0, x19
    46cc:	97fffb4c 	bl	33fc <copy_mpi_to_bigint>
    46d0:	34000080 	cbz	w0, 46e0 <TEE_BigIntInvMod+0xe8>
/home/nk/optee/optee_os/lib/libutee/tee_api_arith_mpi.c:553 (discriminator 1)
    46d4:	2a0003e2 	mov	w2, w0
    46d8:	52804521 	mov	w1, #0x229                 	// #553
    46dc:	17fffff4 	b	46ac <TEE_BigIntInvMod+0xb4>
/home/nk/optee/optee_os/lib/libutee/tee_api_arith_mpi.c:554
    46e0:	aa1303e0 	mov	x0, x19
    46e4:	940002ea 	bl	528c <mbedtls_mpi_free>
/home/nk/optee/optee_os/lib/libutee/tee_api_arith_mpi.c:555
    46e8:	aa1603e0 	mov	x0, x22
    46ec:	940002e8 	bl	528c <mbedtls_mpi_free>
/home/nk/optee/optee_os/lib/libutee/tee_api_arith_mpi.c:556
    46f0:	eb15029f 	cmp	x20, x21
    46f4:	54000061 	b.ne	4700 <TEE_BigIntInvMod+0x108>  // b.any
/home/nk/optee/optee_os/lib/libutee/tee_api_arith_mpi.c:557
    46f8:	aa1403e0 	mov	x0, x20
    46fc:	940002e4 	bl	528c <mbedtls_mpi_free>
/home/nk/optee/optee_os/lib/libutee/tee_api_arith_mpi.c:558
    4700:	a94153f3 	ldp	x19, x20, [sp, #16]
    4704:	a9425bf5 	ldp	x21, x22, [sp, #32]
    4708:	f9401bf7 	ldr	x23, [sp, #48]
    470c:	a8c97bfd 	ldp	x29, x30, [sp], #144
    4710:	d65f03c0 	ret

0000000000004714 <TEE_BigIntRelativePrime>:
TEE_BigIntRelativePrime():
/home/nk/optee/optee_os/lib/libutee/tee_api_arith_mpi.c:561
    4714:	a9b77bfd 	stp	x29, x30, [sp, #-144]!
    4718:	910003fd 	mov	x29, sp
    471c:	a90153f3 	stp	x19, x20, [sp, #16]
/home/nk/optee/optee_os/lib/libutee/tee_api_arith_mpi.c:568
    4720:	910123f4 	add	x20, sp, #0x48
/home/nk/optee/optee_os/lib/libutee/tee_api_arith_mpi.c:561
    4724:	aa0003f3 	mov	x19, x0
    4728:	a9025bf5 	stp	x21, x22, [sp, #32]
    472c:	aa0103f5 	mov	x21, x1
/home/nk/optee/optee_os/lib/libutee/tee_api_arith_mpi.c:568
    4730:	aa0003e1 	mov	x1, x0
    4734:	aa1403e0 	mov	x0, x20
/home/nk/optee/optee_os/lib/libutee/tee_api_arith_mpi.c:561
    4738:	f9001bf7 	str	x23, [sp, #48]
/home/nk/optee/optee_os/lib/libutee/tee_api_arith_mpi.c:568
    473c:	97fffb0a 	bl	3364 <get_mpi>
/home/nk/optee/optee_os/lib/libutee/tee_api_arith_mpi.c:570
    4740:	eb15027f 	cmp	x19, x21
    4744:	910183f3 	add	x19, sp, #0x60
    4748:	54000260 	b.eq	4794 <TEE_BigIntRelativePrime+0x80>  // b.none
/home/nk/optee/optee_os/lib/libutee/tee_api_arith_mpi.c:565
    474c:	aa1303f6 	mov	x22, x19
/home/nk/optee/optee_os/lib/libutee/tee_api_arith_mpi.c:573
    4750:	aa1503e1 	mov	x1, x21
    4754:	aa1303e0 	mov	x0, x19
    4758:	97fffb03 	bl	3364 <get_mpi>
get_mpi():
/home/nk/optee/optee_os/lib/libutee/tee_api_arith_mpi.c:101
    475c:	9101e3f5 	add	x21, sp, #0x78
    4760:	aa1503e0 	mov	x0, x21
    4764:	940002c0 	bl	5264 <mbedtls_mpi_init_mempool>
TEE_BigIntRelativePrime():
/home/nk/optee/optee_os/lib/libutee/tee_api_arith_mpi.c:577
    4768:	aa1303e2 	mov	x2, x19
    476c:	aa1403e1 	mov	x1, x20
    4770:	aa1503e0 	mov	x0, x21
    4774:	94000c80 	bl	7974 <mbedtls_mpi_gcd>
    4778:	34000120 	cbz	w0, 479c <TEE_BigIntRelativePrime+0x88>
/home/nk/optee/optee_os/lib/libutee/tee_api_arith_mpi.c:577 (discriminator 1)
    477c:	2a0003e2 	mov	w2, w0
    4780:	90000040 	adrp	x0, c000 <HEXDIGITS+0x62>
    4784:	91008800 	add	x0, x0, #0x22
    4788:	52804821 	mov	w1, #0x241                 	// #577
    478c:	91036800 	add	x0, x0, #0xda
    4790:	97fffae9 	bl	3334 <mpi_panic>
/home/nk/optee/optee_os/lib/libutee/tee_api_arith_mpi.c:571
    4794:	aa1403f6 	mov	x22, x20
    4798:	17fffff1 	b	475c <TEE_BigIntRelativePrime+0x48>
/home/nk/optee/optee_os/lib/libutee/tee_api_arith_mpi.c:579
    479c:	52800021 	mov	w1, #0x1                   	// #1
    47a0:	aa1503e0 	mov	x0, x21
    47a4:	94000643 	bl	60b0 <mbedtls_mpi_cmp_int>
    47a8:	7100001f 	cmp	w0, #0x0
    47ac:	1a9f17f7 	cset	w23, eq  // eq = none
/home/nk/optee/optee_os/lib/libutee/tee_api_arith_mpi.c:581
    47b0:	aa1503e0 	mov	x0, x21
    47b4:	940002b6 	bl	528c <mbedtls_mpi_free>
/home/nk/optee/optee_os/lib/libutee/tee_api_arith_mpi.c:582
    47b8:	aa1403e0 	mov	x0, x20
    47bc:	940002b4 	bl	528c <mbedtls_mpi_free>
/home/nk/optee/optee_os/lib/libutee/tee_api_arith_mpi.c:583
    47c0:	eb1302df 	cmp	x22, x19
    47c4:	54000061 	b.ne	47d0 <TEE_BigIntRelativePrime+0xbc>  // b.any
/home/nk/optee/optee_os/lib/libutee/tee_api_arith_mpi.c:584
    47c8:	aa1603e0 	mov	x0, x22
    47cc:	940002b0 	bl	528c <mbedtls_mpi_free>
/home/nk/optee/optee_os/lib/libutee/tee_api_arith_mpi.c:587
    47d0:	2a1703e0 	mov	w0, w23
    47d4:	a94153f3 	ldp	x19, x20, [sp, #16]
    47d8:	a9425bf5 	ldp	x21, x22, [sp, #32]
    47dc:	f9401bf7 	ldr	x23, [sp, #48]
    47e0:	a8c97bfd 	ldp	x29, x30, [sp], #144
    47e4:	d65f03c0 	ret

00000000000047e8 <TEE_BigIntComputeExtendedGcd>:
TEE_BigIntComputeExtendedGcd():
/home/nk/optee/optee_os/lib/libutee/tee_api_arith_mpi.c:698
    47e8:	a9b17bfd 	stp	x29, x30, [sp, #-240]!
    47ec:	910003fd 	mov	x29, sp
    47f0:	a9025bf5 	stp	x21, x22, [sp, #32]
/home/nk/optee/optee_os/lib/libutee/tee_api_arith_mpi.c:704
    47f4:	9101e3f5 	add	x21, sp, #0x78
/home/nk/optee/optee_os/lib/libutee/tee_api_arith_mpi.c:698
    47f8:	aa0303f6 	mov	x22, x3
    47fc:	a90153f3 	stp	x19, x20, [sp, #16]
    4800:	aa0403f3 	mov	x19, x4
/home/nk/optee/optee_os/lib/libutee/tee_api_arith_mpi.c:705
    4804:	910243f4 	add	x20, sp, #0x90
/home/nk/optee/optee_os/lib/libutee/tee_api_arith_mpi.c:698
    4808:	a90363f7 	stp	x23, x24, [sp, #48]
    480c:	9102a3f8 	add	x24, sp, #0xa8
    4810:	a9046bf9 	stp	x25, x26, [sp, #64]
    4814:	aa0203fa 	mov	x26, x2
    4818:	aa0003f9 	mov	x25, x0
    481c:	a90573fb 	stp	x27, x28, [sp, #80]
    4820:	aa0103fb 	mov	x27, x1
/home/nk/optee/optee_os/lib/libutee/tee_api_arith_mpi.c:704
    4824:	aa0003e1 	mov	x1, x0
    4828:	aa1503e0 	mov	x0, x21
    482c:	97ffface 	bl	3364 <get_mpi>
/home/nk/optee/optee_os/lib/libutee/tee_api_arith_mpi.c:705
    4830:	aa1603e1 	mov	x1, x22
    4834:	aa1403e0 	mov	x0, x20
    4838:	97fffacb 	bl	3364 <get_mpi>
/home/nk/optee/optee_os/lib/libutee/tee_api_arith_mpi.c:707
    483c:	eb1302df 	cmp	x22, x19
    4840:	54000260 	b.eq	488c <TEE_BigIntComputeExtendedGcd+0xa4>  // b.none
/home/nk/optee/optee_os/lib/libutee/tee_api_arith_mpi.c:710
    4844:	aa1303e1 	mov	x1, x19
/home/nk/optee/optee_os/lib/libutee/tee_api_arith_mpi.c:702
    4848:	aa1803f3 	mov	x19, x24
/home/nk/optee/optee_os/lib/libutee/tee_api_arith_mpi.c:710
    484c:	aa1803e0 	mov	x0, x24
    4850:	97fffac5 	bl	3364 <get_mpi>
/home/nk/optee/optee_os/lib/libutee/tee_api_arith_mpi.c:712
    4854:	aa1a0360 	orr	x0, x27, x26
    4858:	b50001e0 	cbnz	x0, 4894 <TEE_BigIntComputeExtendedGcd+0xac>
/home/nk/optee/optee_os/lib/libutee/tee_api_arith_mpi.c:713
    485c:	b4000b79 	cbz	x25, 49c8 <TEE_BigIntComputeExtendedGcd+0x1e0>
/home/nk/optee/optee_os/lib/libutee/tee_api_arith_mpi.c:714
    4860:	aa1303e2 	mov	x2, x19
    4864:	aa1403e1 	mov	x1, x20
    4868:	aa1503e0 	mov	x0, x21
    486c:	94000c42 	bl	7974 <mbedtls_mpi_gcd>
    4870:	34000ac0 	cbz	w0, 49c8 <TEE_BigIntComputeExtendedGcd+0x1e0>
/home/nk/optee/optee_os/lib/libutee/tee_api_arith_mpi.c:714 (discriminator 1)
    4874:	2a0003e2 	mov	w2, w0
    4878:	52805961 	mov	w1, #0x2cb                 	// #715
/home/nk/optee/optee_os/lib/libutee/tee_api_arith_mpi.c:731 (discriminator 1)
    487c:	90000040 	adrp	x0, c000 <HEXDIGITS+0x62>
    4880:	91008800 	add	x0, x0, #0x22
    4884:	9103c800 	add	x0, x0, #0xf2
    4888:	97fffaab 	bl	3334 <mpi_panic>
/home/nk/optee/optee_os/lib/libutee/tee_api_arith_mpi.c:708
    488c:	aa1403f3 	mov	x19, x20
    4890:	17fffff1 	b	4854 <TEE_BigIntComputeExtendedGcd+0x6c>
/home/nk/optee/optee_os/lib/libutee/tee_api_arith_mpi.c:720
    4894:	39c00260 	ldrsb	w0, [x19]
/home/nk/optee/optee_os/lib/libutee/tee_api_arith_mpi.c:726
    4898:	910303f7 	add	x23, sp, #0xc0
/home/nk/optee/optee_os/lib/libutee/tee_api_arith_mpi.c:719
    489c:	39c243fc 	ldrsb	w28, [sp, #144]
/home/nk/optee/optee_os/lib/libutee/tee_api_arith_mpi.c:726
    48a0:	aa1b03e1 	mov	x1, x27
/home/nk/optee/optee_os/lib/libutee/tee_api_arith_mpi.c:720
    48a4:	b9006fe0 	str	w0, [sp, #108]
/home/nk/optee/optee_os/lib/libutee/tee_api_arith_mpi.c:723
    48a8:	52800020 	mov	w0, #0x1                   	// #1
    48ac:	790123e0 	strh	w0, [sp, #144]
/home/nk/optee/optee_os/lib/libutee/tee_api_arith_mpi.c:727
    48b0:	910363f6 	add	x22, sp, #0xd8
/home/nk/optee/optee_os/lib/libutee/tee_api_arith_mpi.c:724
    48b4:	79000260 	strh	w0, [x19]
/home/nk/optee/optee_os/lib/libutee/tee_api_arith_mpi.c:726
    48b8:	aa1703e0 	mov	x0, x23
    48bc:	97fffaaa 	bl	3364 <get_mpi>
/home/nk/optee/optee_os/lib/libutee/tee_api_arith_mpi.c:727
    48c0:	aa1a03e1 	mov	x1, x26
    48c4:	aa1603e0 	mov	x0, x22
    48c8:	97fffaa7 	bl	3364 <get_mpi>
/home/nk/optee/optee_os/lib/libutee/tee_api_arith_mpi.c:729
    48cc:	aa1303e1 	mov	x1, x19
    48d0:	aa1403e0 	mov	x0, x20
    48d4:	94000564 	bl	5e64 <mbedtls_mpi_cmp_abs>
/home/nk/optee/optee_os/lib/libutee/tee_api_arith_mpi.c:730
    48d8:	7100001f 	cmp	w0, #0x0
    48dc:	540002c1 	b.ne	4934 <TEE_BigIntComputeExtendedGcd+0x14c>  // b.any
/home/nk/optee/optee_os/lib/libutee/tee_api_arith_mpi.c:731
    48e0:	aa1403e1 	mov	x1, x20
    48e4:	aa1503e0 	mov	x0, x21
    48e8:	9400030a 	bl	5510 <mbedtls_mpi_copy>
    48ec:	34000080 	cbz	w0, 48fc <TEE_BigIntComputeExtendedGcd+0x114>
/home/nk/optee/optee_os/lib/libutee/tee_api_arith_mpi.c:731 (discriminator 1)
    48f0:	2a0003e2 	mov	w2, w0
    48f4:	52805b61 	mov	w1, #0x2db                 	// #731
    48f8:	17ffffe1 	b	487c <TEE_BigIntComputeExtendedGcd+0x94>
/home/nk/optee/optee_os/lib/libutee/tee_api_arith_mpi.c:732
    48fc:	52800021 	mov	w1, #0x1                   	// #1
    4900:	aa1703e0 	mov	x0, x23
    4904:	940003b1 	bl	57c8 <mbedtls_mpi_lset>
    4908:	34000080 	cbz	w0, 4918 <TEE_BigIntComputeExtendedGcd+0x130>
/home/nk/optee/optee_os/lib/libutee/tee_api_arith_mpi.c:732 (discriminator 1)
    490c:	2a0003e2 	mov	w2, w0
    4910:	52805b81 	mov	w1, #0x2dc                 	// #732
    4914:	17ffffda 	b	487c <TEE_BigIntComputeExtendedGcd+0x94>
/home/nk/optee/optee_os/lib/libutee/tee_api_arith_mpi.c:733
    4918:	52800001 	mov	w1, #0x0                   	// #0
    491c:	aa1603e0 	mov	x0, x22
    4920:	940003aa 	bl	57c8 <mbedtls_mpi_lset>
    4924:	34000160 	cbz	w0, 4950 <TEE_BigIntComputeExtendedGcd+0x168>
/home/nk/optee/optee_os/lib/libutee/tee_api_arith_mpi.c:733 (discriminator 1)
    4928:	2a0003e2 	mov	w2, w0
    492c:	52805ba1 	mov	w1, #0x2dd                 	// #733
    4930:	17ffffd3 	b	487c <TEE_BigIntComputeExtendedGcd+0x94>
/home/nk/optee/optee_os/lib/libutee/tee_api_arith_mpi.c:734
    4934:	540002ad 	b.le	4988 <TEE_BigIntComputeExtendedGcd+0x1a0>
/home/nk/optee/optee_os/lib/libutee/tee_api_arith_mpi.c:735
    4938:	aa1303e4 	mov	x4, x19
    493c:	aa1403e3 	mov	x3, x20
    4940:	aa1603e2 	mov	x2, x22
    4944:	aa1703e1 	mov	x1, x23
/home/nk/optee/optee_os/lib/libutee/tee_api_arith_mpi.c:737
    4948:	aa1503e0 	mov	x0, x21
    494c:	97fffb1d 	bl	35c0 <mpi_egcd>
/home/nk/optee/optee_os/lib/libutee/tee_api_arith_mpi.c:740
    4950:	794183e0 	ldrh	w0, [sp, #192]
/home/nk/optee/optee_os/lib/libutee/tee_api_arith_mpi.c:741
    4954:	b9406fe1 	ldr	w1, [sp, #108]
/home/nk/optee/optee_os/lib/libutee/tee_api_arith_mpi.c:740
    4958:	1b007f9c 	mul	w28, w28, w0
/home/nk/optee/optee_os/lib/libutee/tee_api_arith_mpi.c:741
    495c:	7941b3e0 	ldrh	w0, [sp, #216]
/home/nk/optee/optee_os/lib/libutee/tee_api_arith_mpi.c:740
    4960:	790183fc 	strh	w28, [sp, #192]
/home/nk/optee/optee_os/lib/libutee/tee_api_arith_mpi.c:741
    4964:	1b007c20 	mul	w0, w1, w0
/home/nk/optee/optee_os/lib/libutee/tee_api_arith_mpi.c:743
    4968:	aa1b03e1 	mov	x1, x27
/home/nk/optee/optee_os/lib/libutee/tee_api_arith_mpi.c:741
    496c:	7901b3e0 	strh	w0, [sp, #216]
/home/nk/optee/optee_os/lib/libutee/tee_api_arith_mpi.c:743
    4970:	aa1703e0 	mov	x0, x23
    4974:	97fffaa2 	bl	33fc <copy_mpi_to_bigint>
    4978:	34000120 	cbz	w0, 499c <TEE_BigIntComputeExtendedGcd+0x1b4>
/home/nk/optee/optee_os/lib/libutee/tee_api_arith_mpi.c:743 (discriminator 1)
    497c:	2a0003e2 	mov	w2, w0
    4980:	52805ce1 	mov	w1, #0x2e7                 	// #743
    4984:	17ffffbe 	b	487c <TEE_BigIntComputeExtendedGcd+0x94>
/home/nk/optee/optee_os/lib/libutee/tee_api_arith_mpi.c:737
    4988:	aa1403e4 	mov	x4, x20
    498c:	aa1303e3 	mov	x3, x19
    4990:	aa1703e2 	mov	x2, x23
    4994:	aa1603e1 	mov	x1, x22
    4998:	17ffffec 	b	4948 <TEE_BigIntComputeExtendedGcd+0x160>
/home/nk/optee/optee_os/lib/libutee/tee_api_arith_mpi.c:744
    499c:	aa1a03e1 	mov	x1, x26
    49a0:	aa1603e0 	mov	x0, x22
    49a4:	97fffa96 	bl	33fc <copy_mpi_to_bigint>
    49a8:	34000080 	cbz	w0, 49b8 <TEE_BigIntComputeExtendedGcd+0x1d0>
/home/nk/optee/optee_os/lib/libutee/tee_api_arith_mpi.c:744 (discriminator 1)
    49ac:	2a0003e2 	mov	w2, w0
    49b0:	52805d01 	mov	w1, #0x2e8                 	// #744
    49b4:	17ffffb2 	b	487c <TEE_BigIntComputeExtendedGcd+0x94>
/home/nk/optee/optee_os/lib/libutee/tee_api_arith_mpi.c:745
    49b8:	aa1703e0 	mov	x0, x23
    49bc:	94000234 	bl	528c <mbedtls_mpi_free>
/home/nk/optee/optee_os/lib/libutee/tee_api_arith_mpi.c:746
    49c0:	aa1603e0 	mov	x0, x22
    49c4:	94000232 	bl	528c <mbedtls_mpi_free>
/home/nk/optee/optee_os/lib/libutee/tee_api_arith_mpi.c:749
    49c8:	aa1903e1 	mov	x1, x25
    49cc:	aa1503e0 	mov	x0, x21
    49d0:	97fffa8b 	bl	33fc <copy_mpi_to_bigint>
    49d4:	34000080 	cbz	w0, 49e4 <TEE_BigIntComputeExtendedGcd+0x1fc>
/home/nk/optee/optee_os/lib/libutee/tee_api_arith_mpi.c:749 (discriminator 1)
    49d8:	2a0003e2 	mov	w2, w0
    49dc:	52805da1 	mov	w1, #0x2ed                 	// #749
    49e0:	17ffffa7 	b	487c <TEE_BigIntComputeExtendedGcd+0x94>
/home/nk/optee/optee_os/lib/libutee/tee_api_arith_mpi.c:750
    49e4:	aa1503e0 	mov	x0, x21
    49e8:	94000229 	bl	528c <mbedtls_mpi_free>
/home/nk/optee/optee_os/lib/libutee/tee_api_arith_mpi.c:751
    49ec:	aa1403e0 	mov	x0, x20
    49f0:	94000227 	bl	528c <mbedtls_mpi_free>
/home/nk/optee/optee_os/lib/libutee/tee_api_arith_mpi.c:752
    49f4:	eb18027f 	cmp	x19, x24
    49f8:	54000061 	b.ne	4a04 <TEE_BigIntComputeExtendedGcd+0x21c>  // b.any
/home/nk/optee/optee_os/lib/libutee/tee_api_arith_mpi.c:753
    49fc:	aa1303e0 	mov	x0, x19
    4a00:	94000223 	bl	528c <mbedtls_mpi_free>
/home/nk/optee/optee_os/lib/libutee/tee_api_arith_mpi.c:754
    4a04:	a94153f3 	ldp	x19, x20, [sp, #16]
    4a08:	a9425bf5 	ldp	x21, x22, [sp, #32]
    4a0c:	a94363f7 	ldp	x23, x24, [sp, #48]
    4a10:	a9446bf9 	ldp	x25, x26, [sp, #64]
    4a14:	a94573fb 	ldp	x27, x28, [sp, #80]
    4a18:	a8cf7bfd 	ldp	x29, x30, [sp], #240
    4a1c:	d65f03c0 	ret

0000000000004a20 <TEE_BigIntIsProbablePrime>:
TEE_BigIntIsProbablePrime():
/home/nk/optee/optee_os/lib/libutee/tee_api_arith_mpi.c:765
    4a20:	a9bc7bfd 	stp	x29, x30, [sp, #-64]!
/home/nk/optee/optee_os/lib/libutee/tee_api_arith_mpi.c:769
    4a24:	aa0003e1 	mov	x1, x0
/home/nk/optee/optee_os/lib/libutee/tee_api_arith_mpi.c:765
    4a28:	910003fd 	mov	x29, sp
    4a2c:	a90153f3 	stp	x19, x20, [sp, #16]
/home/nk/optee/optee_os/lib/libutee/tee_api_arith_mpi.c:769
    4a30:	9100a3f3 	add	x19, sp, #0x28
    4a34:	aa1303e0 	mov	x0, x19
    4a38:	97fffa4b 	bl	3364 <get_mpi>
/home/nk/optee/optee_os/lib/libutee/tee_api_arith_mpi.c:771
    4a3c:	f0ffffe1 	adrp	x1, 3000 <__utee_call_elf_fini_fn+0x38>
    4a40:	91166021 	add	x1, x1, #0x598
    4a44:	d2800002 	mov	x2, #0x0                   	// #0
    4a48:	aa1303e0 	mov	x0, x19
    4a4c:	94000e3b 	bl	8338 <mbedtls_mpi_is_prime>
    4a50:	2a0003f4 	mov	w20, w0
/home/nk/optee/optee_os/lib/libutee/tee_api_arith_mpi.c:773
    4a54:	aa1303e0 	mov	x0, x19
    4a58:	9400020d 	bl	528c <mbedtls_mpi_free>
/home/nk/optee/optee_os/lib/libutee/tee_api_arith_mpi.c:775
    4a5c:	7100029f 	cmp	w20, #0x0
/home/nk/optee/optee_os/lib/libutee/tee_api_arith_mpi.c:779
    4a60:	1a9f17e0 	cset	w0, eq  // eq = none
    4a64:	a94153f3 	ldp	x19, x20, [sp, #16]
    4a68:	a8c47bfd 	ldp	x29, x30, [sp], #64
    4a6c:	d65f03c0 	ret

0000000000004a70 <TEE_BigIntInitFMM>:
TEE_BigIntInitFMM():
/home/nk/optee/optee_os/lib/libutee/tee_api_arith_mpi.c:791
    4a70:	17fffc3b 	b	3b5c <TEE_BigIntInit>

0000000000004a74 <TEE_BigIntInitFMMContext>:
TEE_BigIntInitFMMContext():
/home/nk/optee/optee_os/lib/libutee/tee_api_arith_mpi.c:798
    4a74:	d65f03c0 	ret

0000000000004a78 <TEE_BigIntFMMSizeInU32>:
TEE_BigIntFMMSizeInU32():
/home/nk/optee/optee_os/lib/libutee/tee_api_arith_mpi.c:802
    4a78:	11007c00 	add	w0, w0, #0x1f
    4a7c:	53057c00 	lsr	w0, w0, #5
/home/nk/optee/optee_os/lib/libutee/tee_api_arith_mpi.c:803
    4a80:	11000800 	add	w0, w0, #0x2
    4a84:	d65f03c0 	ret

0000000000004a88 <TEE_BigIntFMMContextSizeInU32>:
TEE_BigIntFMMContextSizeInU32():
/home/nk/optee/optee_os/lib/libutee/tee_api_arith_mpi.c:809
    4a88:	52800020 	mov	w0, #0x1                   	// #1
    4a8c:	d65f03c0 	ret

0000000000004a90 <TEE_BigIntConvertToFMM>:
TEE_BigIntConvertToFMM():
/home/nk/optee/optee_os/lib/libutee/tee_api_arith_mpi.c:815
    4a90:	17fffeb5 	b	4564 <TEE_BigIntMod>

0000000000004a94 <TEE_BigIntConvertFromFMM>:
TEE_BigIntConvertFromFMM():
/home/nk/optee/optee_os/lib/libutee/tee_api_arith_mpi.c:821
    4a94:	a9ba7bfd 	stp	x29, x30, [sp, #-96]!
    4a98:	910003fd 	mov	x29, sp
    4a9c:	a90153f3 	stp	x19, x20, [sp, #16]
/home/nk/optee/optee_os/lib/libutee/tee_api_arith_mpi.c:825
    4aa0:	9100c3f3 	add	x19, sp, #0x30
/home/nk/optee/optee_os/lib/libutee/tee_api_arith_mpi.c:826
    4aa4:	910123f4 	add	x20, sp, #0x48
/home/nk/optee/optee_os/lib/libutee/tee_api_arith_mpi.c:821
    4aa8:	a9025bf5 	stp	x21, x22, [sp, #32]
    4aac:	aa0103f6 	mov	x22, x1
    4ab0:	aa0003f5 	mov	x21, x0
/home/nk/optee/optee_os/lib/libutee/tee_api_arith_mpi.c:825
    4ab4:	aa0003e1 	mov	x1, x0
    4ab8:	aa1303e0 	mov	x0, x19
    4abc:	97fffa2a 	bl	3364 <get_mpi>
/home/nk/optee/optee_os/lib/libutee/tee_api_arith_mpi.c:826
    4ac0:	aa1603e1 	mov	x1, x22
    4ac4:	aa1403e0 	mov	x0, x20
    4ac8:	97fffa27 	bl	3364 <get_mpi>
/home/nk/optee/optee_os/lib/libutee/tee_api_arith_mpi.c:828
    4acc:	aa1403e1 	mov	x1, x20
    4ad0:	aa1303e0 	mov	x0, x19
    4ad4:	9400028f 	bl	5510 <mbedtls_mpi_copy>
    4ad8:	340000e0 	cbz	w0, 4af4 <TEE_BigIntConvertFromFMM+0x60>
/home/nk/optee/optee_os/lib/libutee/tee_api_arith_mpi.c:828 (discriminator 1)
    4adc:	2a0003e2 	mov	w2, w0
    4ae0:	52806781 	mov	w1, #0x33c                 	// #828
/home/nk/optee/optee_os/lib/libutee/tee_api_arith_mpi.c:830 (discriminator 1)
    4ae4:	90000040 	adrp	x0, c000 <HEXDIGITS+0x62>
    4ae8:	91008800 	add	x0, x0, #0x22
    4aec:	91043c00 	add	x0, x0, #0x10f
    4af0:	97fffa11 	bl	3334 <mpi_panic>
/home/nk/optee/optee_os/lib/libutee/tee_api_arith_mpi.c:830
    4af4:	aa1503e1 	mov	x1, x21
    4af8:	aa1303e0 	mov	x0, x19
    4afc:	97fffa40 	bl	33fc <copy_mpi_to_bigint>
    4b00:	34000080 	cbz	w0, 4b10 <TEE_BigIntConvertFromFMM+0x7c>
/home/nk/optee/optee_os/lib/libutee/tee_api_arith_mpi.c:830 (discriminator 1)
    4b04:	2a0003e2 	mov	w2, w0
    4b08:	528067c1 	mov	w1, #0x33e                 	// #830
    4b0c:	17fffff6 	b	4ae4 <TEE_BigIntConvertFromFMM+0x50>
/home/nk/optee/optee_os/lib/libutee/tee_api_arith_mpi.c:831
    4b10:	aa1303e0 	mov	x0, x19
    4b14:	940001de 	bl	528c <mbedtls_mpi_free>
/home/nk/optee/optee_os/lib/libutee/tee_api_arith_mpi.c:832
    4b18:	aa1403e0 	mov	x0, x20
    4b1c:	940001dc 	bl	528c <mbedtls_mpi_free>
/home/nk/optee/optee_os/lib/libutee/tee_api_arith_mpi.c:833
    4b20:	a94153f3 	ldp	x19, x20, [sp, #16]
    4b24:	a9425bf5 	ldp	x21, x22, [sp, #32]
    4b28:	a8c67bfd 	ldp	x29, x30, [sp], #96
    4b2c:	d65f03c0 	ret

0000000000004b30 <TEE_BigIntComputeFMM>:
TEE_BigIntComputeFMM():
/home/nk/optee/optee_os/lib/libutee/tee_api_arith_mpi.c:838
    4b30:	a9b37bfd 	stp	x29, x30, [sp, #-208]!
    4b34:	910003fd 	mov	x29, sp
    4b38:	a90153f3 	stp	x19, x20, [sp, #16]
/home/nk/optee/optee_os/lib/libutee/tee_api_arith_mpi.c:845
    4b3c:	910163f3 	add	x19, sp, #0x58
/home/nk/optee/optee_os/lib/libutee/tee_api_arith_mpi.c:838
    4b40:	aa0103f4 	mov	x20, x1
/home/nk/optee/optee_os/lib/libutee/tee_api_arith_mpi.c:845
    4b44:	aa0003e1 	mov	x1, x0
/home/nk/optee/optee_os/lib/libutee/tee_api_arith_mpi.c:838
    4b48:	a9025bf5 	stp	x21, x22, [sp, #32]
/home/nk/optee/optee_os/lib/libutee/tee_api_arith_mpi.c:846
    4b4c:	9101c3f5 	add	x21, sp, #0x70
/home/nk/optee/optee_os/lib/libutee/tee_api_arith_mpi.c:838
    4b50:	a90363f7 	stp	x23, x24, [sp, #48]
    4b54:	aa0003f8 	mov	x24, x0
/home/nk/optee/optee_os/lib/libutee/tee_api_arith_mpi.c:845
    4b58:	aa1303e0 	mov	x0, x19
/home/nk/optee/optee_os/lib/libutee/tee_api_arith_mpi.c:838
    4b5c:	a9040be3 	stp	x3, x2, [sp, #64]
/home/nk/optee/optee_os/lib/libutee/tee_api_arith_mpi.c:845
    4b60:	97fffa01 	bl	3364 <get_mpi>
/home/nk/optee/optee_os/lib/libutee/tee_api_arith_mpi.c:846
    4b64:	aa1403e1 	mov	x1, x20
    4b68:	aa1503e0 	mov	x0, x21
    4b6c:	97fff9fe 	bl	3364 <get_mpi>
/home/nk/optee/optee_os/lib/libutee/tee_api_arith_mpi.c:847
    4b70:	f94027e2 	ldr	x2, [sp, #72]
    4b74:	910223f6 	add	x22, sp, #0x88
    4b78:	aa1603e0 	mov	x0, x22
/home/nk/optee/optee_os/lib/libutee/tee_api_arith_mpi.c:848
    4b7c:	910283f7 	add	x23, sp, #0xa0
/home/nk/optee/optee_os/lib/libutee/tee_api_arith_mpi.c:847
    4b80:	aa0203e1 	mov	x1, x2
get_mpi():
/home/nk/optee/optee_os/lib/libutee/tee_api_arith_mpi.c:101
    4b84:	9102e3f4 	add	x20, sp, #0xb8
TEE_BigIntComputeFMM():
/home/nk/optee/optee_os/lib/libutee/tee_api_arith_mpi.c:847
    4b88:	97fff9f7 	bl	3364 <get_mpi>
/home/nk/optee/optee_os/lib/libutee/tee_api_arith_mpi.c:848
    4b8c:	f94023e3 	ldr	x3, [sp, #64]
    4b90:	aa1703e0 	mov	x0, x23
    4b94:	aa0303e1 	mov	x1, x3
    4b98:	97fff9f3 	bl	3364 <get_mpi>
get_mpi():
/home/nk/optee/optee_os/lib/libutee/tee_api_arith_mpi.c:101
    4b9c:	aa1403e0 	mov	x0, x20
    4ba0:	940001b1 	bl	5264 <mbedtls_mpi_init_mempool>
TEE_BigIntComputeFMM():
/home/nk/optee/optee_os/lib/libutee/tee_api_arith_mpi.c:851
    4ba4:	aa1603e2 	mov	x2, x22
    4ba8:	aa1503e1 	mov	x1, x21
    4bac:	aa1403e0 	mov	x0, x20
    4bb0:	94000635 	bl	6484 <mbedtls_mpi_mul_mpi>
    4bb4:	340000e0 	cbz	w0, 4bd0 <TEE_BigIntComputeFMM+0xa0>
/home/nk/optee/optee_os/lib/libutee/tee_api_arith_mpi.c:851 (discriminator 1)
    4bb8:	2a0003e2 	mov	w2, w0
    4bbc:	52806a61 	mov	w1, #0x353                 	// #851
/home/nk/optee/optee_os/lib/libutee/tee_api_arith_mpi.c:852 (discriminator 1)
    4bc0:	90000040 	adrp	x0, c000 <HEXDIGITS+0x62>
    4bc4:	91008800 	add	x0, x0, #0x22
    4bc8:	9104a000 	add	x0, x0, #0x128
    4bcc:	97fff9da 	bl	3334 <mpi_panic>
/home/nk/optee/optee_os/lib/libutee/tee_api_arith_mpi.c:852
    4bd0:	aa1703e2 	mov	x2, x23
    4bd4:	aa1403e1 	mov	x1, x20
    4bd8:	aa1303e0 	mov	x0, x19
    4bdc:	9400084d 	bl	6d10 <mbedtls_mpi_mod_mpi>
    4be0:	34000080 	cbz	w0, 4bf0 <TEE_BigIntComputeFMM+0xc0>
/home/nk/optee/optee_os/lib/libutee/tee_api_arith_mpi.c:852 (discriminator 1)
    4be4:	2a0003e2 	mov	w2, w0
    4be8:	52806a81 	mov	w1, #0x354                 	// #852
    4bec:	17fffff5 	b	4bc0 <TEE_BigIntComputeFMM+0x90>
/home/nk/optee/optee_os/lib/libutee/tee_api_arith_mpi.c:854
    4bf0:	aa1403e0 	mov	x0, x20
    4bf4:	940001a6 	bl	528c <mbedtls_mpi_free>
/home/nk/optee/optee_os/lib/libutee/tee_api_arith_mpi.c:855
    4bf8:	aa1703e0 	mov	x0, x23
    4bfc:	940001a4 	bl	528c <mbedtls_mpi_free>
/home/nk/optee/optee_os/lib/libutee/tee_api_arith_mpi.c:856
    4c00:	aa1603e0 	mov	x0, x22
    4c04:	940001a2 	bl	528c <mbedtls_mpi_free>
/home/nk/optee/optee_os/lib/libutee/tee_api_arith_mpi.c:857
    4c08:	aa1503e0 	mov	x0, x21
    4c0c:	940001a0 	bl	528c <mbedtls_mpi_free>
/home/nk/optee/optee_os/lib/libutee/tee_api_arith_mpi.c:858
    4c10:	aa1803e1 	mov	x1, x24
    4c14:	aa1303e0 	mov	x0, x19
    4c18:	97fff9f9 	bl	33fc <copy_mpi_to_bigint>
    4c1c:	34000080 	cbz	w0, 4c2c <TEE_BigIntComputeFMM+0xfc>
/home/nk/optee/optee_os/lib/libutee/tee_api_arith_mpi.c:858 (discriminator 1)
    4c20:	2a0003e2 	mov	w2, w0
    4c24:	52806b41 	mov	w1, #0x35a                 	// #858
    4c28:	17ffffe6 	b	4bc0 <TEE_BigIntComputeFMM+0x90>
/home/nk/optee/optee_os/lib/libutee/tee_api_arith_mpi.c:859
    4c2c:	aa1303e0 	mov	x0, x19
    4c30:	94000197 	bl	528c <mbedtls_mpi_free>
/home/nk/optee/optee_os/lib/libutee/tee_api_arith_mpi.c:860
    4c34:	a94153f3 	ldp	x19, x20, [sp, #16]
    4c38:	a9425bf5 	ldp	x21, x22, [sp, #32]
    4c3c:	a94363f7 	ldp	x23, x24, [sp, #48]
    4c40:	a8cd7bfd 	ldp	x29, x30, [sp], #208
    4c44:	d65f03c0 	ret

0000000000004c48 <mpi_get_digit>:
mpi_get_digit():
/home/nk/optee/optee_os/lib/libmbedtls/mbedtls/library/bignum.c:491
    4c48:	12001c42 	and	w2, w2, #0xff
/home/nk/optee/optee_os/lib/libmbedtls/mbedtls/library/bignum.c:494
    4c4c:	5100c043 	sub	w3, w2, #0x30
    4c50:	12001c64 	and	w4, w3, #0xff
    4c54:	7100249f 	cmp	w4, #0x9
    4c58:	540000e8 	b.hi	4c74 <mpi_get_digit+0x2c>  // b.pmore
/home/nk/optee/optee_os/lib/libmbedtls/mbedtls/library/bignum.c:494 (discriminator 1)
    4c5c:	b9000003 	str	w3, [x0]
/home/nk/optee/optee_os/lib/libmbedtls/mbedtls/library/bignum.c:498
    4c60:	b9400000 	ldr	w0, [x0]
/home/nk/optee/optee_os/lib/libmbedtls/mbedtls/library/bignum.c:499
    4c64:	6b01001f 	cmp	w0, w1
/home/nk/optee/optee_os/lib/libmbedtls/mbedtls/library/bignum.c:502
    4c68:	128000a0 	mov	w0, #0xfffffffa            	// #-6
    4c6c:	1a9f2000 	csel	w0, w0, wzr, cs  // cs = hs, nlast
    4c70:	d65f03c0 	ret
/home/nk/optee/optee_os/lib/libmbedtls/mbedtls/library/bignum.c:495
    4c74:	51010443 	sub	w3, w2, #0x41
    4c78:	12001c63 	and	w3, w3, #0xff
    4c7c:	7100147f 	cmp	w3, #0x5
    4c80:	54000088 	b.hi	4c90 <mpi_get_digit+0x48>  // b.pmore
/home/nk/optee/optee_os/lib/libmbedtls/mbedtls/library/bignum.c:495 (discriminator 1)
    4c84:	5100dc42 	sub	w2, w2, #0x37
/home/nk/optee/optee_os/lib/libmbedtls/mbedtls/library/bignum.c:496
    4c88:	b9000002 	str	w2, [x0]
    4c8c:	17fffff5 	b	4c60 <mpi_get_digit+0x18>
    4c90:	51018443 	sub	w3, w2, #0x61
    4c94:	51015c42 	sub	w2, w2, #0x57
    4c98:	12001c63 	and	w3, w3, #0xff
    4c9c:	7100187f 	cmp	w3, #0x6
    4ca0:	52801fe3 	mov	w3, #0xff                  	// #255
    4ca4:	1a833042 	csel	w2, w2, w3, cc  // cc = lo, ul, last
    4ca8:	17fffff8 	b	4c88 <mpi_get_digit+0x40>

0000000000004cac <mpi_sub_hlp>:
mpi_sub_hlp():
/home/nk/optee/optee_os/lib/libmbedtls/mbedtls/library/bignum.c:1387
    4cac:	52800005 	mov	w5, #0x0                   	// #0
    4cb0:	d2800003 	mov	x3, #0x0                   	// #0
/home/nk/optee/optee_os/lib/libmbedtls/mbedtls/library/bignum.c:1387 (discriminator 1)
    4cb4:	eb00007f 	cmp	x3, x0
    4cb8:	54000081 	b.ne	4cc8 <mpi_sub_hlp+0x1c>  // b.any
    4cbc:	8b030843 	add	x3, x2, x3, lsl #2
/home/nk/optee/optee_os/lib/libmbedtls/mbedtls/library/bignum.c:1393
    4cc0:	350001c5 	cbnz	w5, 4cf8 <mpi_sub_hlp+0x4c>
/home/nk/optee/optee_os/lib/libmbedtls/mbedtls/library/bignum.c:1398
    4cc4:	d65f03c0 	ret
/home/nk/optee/optee_os/lib/libmbedtls/mbedtls/library/bignum.c:1389 (discriminator 3)
    4cc8:	b8637844 	ldr	w4, [x2, x3, lsl #2]
    4ccc:	6b05009f 	cmp	w4, w5
    4cd0:	4b050084 	sub	w4, w4, w5
    4cd4:	b8237844 	str	w4, [x2, x3, lsl #2]
    4cd8:	1a9f27e7 	cset	w7, cc  // cc = lo, ul, last
/home/nk/optee/optee_os/lib/libmbedtls/mbedtls/library/bignum.c:1390 (discriminator 3)
    4cdc:	b8637826 	ldr	w6, [x1, x3, lsl #2]
    4ce0:	6b06009f 	cmp	w4, w6
    4ce4:	4b060084 	sub	w4, w4, w6
    4ce8:	1a8724e5 	cinc	w5, w7, cc  // cc = lo, ul, last
    4cec:	b8237844 	str	w4, [x2, x3, lsl #2]
/home/nk/optee/optee_os/lib/libmbedtls/mbedtls/library/bignum.c:1387 (discriminator 3)
    4cf0:	91000463 	add	x3, x3, #0x1
    4cf4:	17fffff0 	b	4cb4 <mpi_sub_hlp+0x8>
/home/nk/optee/optee_os/lib/libmbedtls/mbedtls/library/bignum.c:1395
    4cf8:	b9400060 	ldr	w0, [x3]
    4cfc:	6b050005 	subs	w5, w0, w5
    4d00:	b8004465 	str	w5, [x3], #4
/home/nk/optee/optee_os/lib/libmbedtls/mbedtls/library/bignum.c:1396
    4d04:	1a9f27e5 	cset	w5, cc  // cc = lo, ul, last
    4d08:	17ffffee 	b	4cc0 <mpi_sub_hlp+0x14>

0000000000004d0c <mpi_mul_hlp>:
mpi_mul_hlp():
/home/nk/optee/optee_os/lib/libmbedtls/mbedtls/library/bignum.c:1582
    4d0c:	aa0203e4 	mov	x4, x2
    4d10:	aa0103e6 	mov	x6, x1
    4d14:	aa0003e8 	mov	x8, x0
/home/nk/optee/optee_os/lib/libmbedtls/mbedtls/library/bignum.c:1565
    4d18:	52800005 	mov	w5, #0x0                   	// #0
/home/nk/optee/optee_os/lib/libmbedtls/mbedtls/library/bignum.c:1582 (discriminator 1)
    4d1c:	f1003d1f 	cmp	x8, #0xf
    4d20:	b940008a 	ldr	w10, [x4]
    4d24:	54000dc8 	b.hi	4edc <mpi_mul_hlp+0x1d0>  // b.pmore
    4d28:	d344fc07 	lsr	x7, x0, #4
    4d2c:	928001e4 	mov	x4, #0xfffffffffffffff0    	// #-16
    4d30:	9b0400e0 	madd	x0, x7, x4, x0
    4d34:	d37ae4e7 	lsl	x7, x7, #6
    4d38:	8b070026 	add	x6, x1, x7
    4d3c:	8b070044 	add	x4, x2, x7
/home/nk/optee/optee_os/lib/libmbedtls/mbedtls/library/bignum.c:1597
    4d40:	f1001c1f 	cmp	x0, #0x7
    4d44:	54000b69 	b.ls	4eb0 <mpi_mul_hlp+0x1a4>  // b.plast
/home/nk/optee/optee_os/lib/libmbedtls/mbedtls/library/bignum.c:1600
    4d48:	b8676821 	ldr	w1, [x1, x7]
/home/nk/optee/optee_os/lib/libmbedtls/mbedtls/library/bignum.c:1597
    4d4c:	d1002000 	sub	x0, x0, #0x8
/home/nk/optee/optee_os/lib/libmbedtls/mbedtls/library/bignum.c:1604
    4d50:	910080c6 	add	x6, x6, #0x20
    4d54:	91008084 	add	x4, x4, #0x20
/home/nk/optee/optee_os/lib/libmbedtls/mbedtls/library/bignum.c:1600
    4d58:	9ba17c61 	umull	x1, w3, w1
    4d5c:	d360fc28 	lsr	x8, x1, #32
    4d60:	0b0100a1 	add	w1, w5, w1
    4d64:	6b0100bf 	cmp	w5, w1
    4d68:	0b010141 	add	w1, w10, w1
    4d6c:	b8276841 	str	w1, [x2, x7]
    4d70:	1a889508 	cinc	w8, w8, hi  // hi = pmore
    4d74:	6b01015f 	cmp	w10, w1
    4d78:	b85e40c1 	ldur	w1, [x6, #-28]
    4d7c:	1a889508 	cinc	w8, w8, hi  // hi = pmore
    4d80:	b85e4082 	ldur	w2, [x4, #-28]
    4d84:	9ba17c61 	umull	x1, w3, w1
    4d88:	d360fc25 	lsr	x5, x1, #32
    4d8c:	0b010101 	add	w1, w8, w1
    4d90:	6b01011f 	cmp	w8, w1
    4d94:	0b020021 	add	w1, w1, w2
    4d98:	b81e4081 	stur	w1, [x4, #-28]
    4d9c:	1a8594a5 	cinc	w5, w5, hi  // hi = pmore
    4da0:	6b01005f 	cmp	w2, w1
/home/nk/optee/optee_os/lib/libmbedtls/mbedtls/library/bignum.c:1601
    4da4:	b85e80c1 	ldur	w1, [x6, #-24]
/home/nk/optee/optee_os/lib/libmbedtls/mbedtls/library/bignum.c:1600
    4da8:	1a8594a5 	cinc	w5, w5, hi  // hi = pmore
/home/nk/optee/optee_os/lib/libmbedtls/mbedtls/library/bignum.c:1601
    4dac:	9ba17c61 	umull	x1, w3, w1
    4db0:	d360fc22 	lsr	x2, x1, #32
    4db4:	0b0100a1 	add	w1, w5, w1
    4db8:	6b0100bf 	cmp	w5, w1
    4dbc:	b85e8085 	ldur	w5, [x4, #-24]
    4dc0:	1a829442 	cinc	w2, w2, hi  // hi = pmore
    4dc4:	0b050021 	add	w1, w1, w5
    4dc8:	b81e8081 	stur	w1, [x4, #-24]
    4dcc:	6b0100bf 	cmp	w5, w1
    4dd0:	b85ec0c1 	ldur	w1, [x6, #-20]
    4dd4:	1a829442 	cinc	w2, w2, hi  // hi = pmore
    4dd8:	9ba17c61 	umull	x1, w3, w1
    4ddc:	d360fc25 	lsr	x5, x1, #32
    4de0:	0b010041 	add	w1, w2, w1
    4de4:	6b01005f 	cmp	w2, w1
    4de8:	b85ec082 	ldur	w2, [x4, #-20]
    4dec:	1a8594a5 	cinc	w5, w5, hi  // hi = pmore
    4df0:	0b020021 	add	w1, w1, w2
    4df4:	b81ec081 	stur	w1, [x4, #-20]
    4df8:	6b01005f 	cmp	w2, w1
/home/nk/optee/optee_os/lib/libmbedtls/mbedtls/library/bignum.c:1603
    4dfc:	b85f00c1 	ldur	w1, [x6, #-16]
/home/nk/optee/optee_os/lib/libmbedtls/mbedtls/library/bignum.c:1601
    4e00:	1a8594a5 	cinc	w5, w5, hi  // hi = pmore
/home/nk/optee/optee_os/lib/libmbedtls/mbedtls/library/bignum.c:1603
    4e04:	9ba17c61 	umull	x1, w3, w1
    4e08:	d360fc22 	lsr	x2, x1, #32
    4e0c:	0b0100a1 	add	w1, w5, w1
    4e10:	6b0100bf 	cmp	w5, w1
    4e14:	b85f0085 	ldur	w5, [x4, #-16]
    4e18:	1a829442 	cinc	w2, w2, hi  // hi = pmore
    4e1c:	0b050021 	add	w1, w1, w5
    4e20:	b81f0081 	stur	w1, [x4, #-16]
    4e24:	6b0100bf 	cmp	w5, w1
    4e28:	b85f40c1 	ldur	w1, [x6, #-12]
    4e2c:	1a829442 	cinc	w2, w2, hi  // hi = pmore
    4e30:	9ba17c61 	umull	x1, w3, w1
    4e34:	d360fc25 	lsr	x5, x1, #32
    4e38:	0b010041 	add	w1, w2, w1
    4e3c:	6b01005f 	cmp	w2, w1
    4e40:	b85f4082 	ldur	w2, [x4, #-12]
    4e44:	1a8594a5 	cinc	w5, w5, hi  // hi = pmore
    4e48:	0b020021 	add	w1, w1, w2
    4e4c:	b81f4081 	stur	w1, [x4, #-12]
    4e50:	6b01005f 	cmp	w2, w1
/home/nk/optee/optee_os/lib/libmbedtls/mbedtls/library/bignum.c:1604
    4e54:	b85f80c1 	ldur	w1, [x6, #-8]
/home/nk/optee/optee_os/lib/libmbedtls/mbedtls/library/bignum.c:1603
    4e58:	1a8594a5 	cinc	w5, w5, hi  // hi = pmore
/home/nk/optee/optee_os/lib/libmbedtls/mbedtls/library/bignum.c:1604
    4e5c:	9ba17c61 	umull	x1, w3, w1
    4e60:	d360fc22 	lsr	x2, x1, #32
    4e64:	0b0100a1 	add	w1, w5, w1
    4e68:	6b0100bf 	cmp	w5, w1
    4e6c:	b85f8085 	ldur	w5, [x4, #-8]
    4e70:	1a829442 	cinc	w2, w2, hi  // hi = pmore
    4e74:	0b050021 	add	w1, w1, w5
    4e78:	b81f8081 	stur	w1, [x4, #-8]
    4e7c:	6b0100bf 	cmp	w5, w1
    4e80:	b85fc0c1 	ldur	w1, [x6, #-4]
    4e84:	1a829442 	cinc	w2, w2, hi  // hi = pmore
    4e88:	9ba17c61 	umull	x1, w3, w1
    4e8c:	d360fc25 	lsr	x5, x1, #32
    4e90:	0b010041 	add	w1, w2, w1
    4e94:	6b01005f 	cmp	w2, w1
    4e98:	b85fc082 	ldur	w2, [x4, #-4]
    4e9c:	1a8594a5 	cinc	w5, w5, hi  // hi = pmore
    4ea0:	0b020021 	add	w1, w1, w2
    4ea4:	b81fc081 	stur	w1, [x4, #-4]
    4ea8:	6b01005f 	cmp	w2, w1
    4eac:	1a8594a5 	cinc	w5, w5, hi  // hi = pmore
/home/nk/optee/optee_os/lib/libmbedtls/mbedtls/library/bignum.c:1604 (discriminator 1)
    4eb0:	d2800001 	mov	x1, #0x0                   	// #0
    4eb4:	b8617888 	ldr	w8, [x4, x1, lsl #2]
/home/nk/optee/optee_os/lib/libmbedtls/mbedtls/library/bignum.c:1608 (discriminator 1)
    4eb8:	eb00003f 	cmp	x1, x0
    4ebc:	54001761 	b.ne	51a8 <mpi_mul_hlp+0x49c>  // b.any
    4ec0:	8b010884 	add	x4, x4, x1, lsl #2
/home/nk/optee/optee_os/lib/libmbedtls/mbedtls/library/bignum.c:1619 (discriminator 1)
    4ec4:	b9400080 	ldr	w0, [x4]
    4ec8:	0b0000a0 	add	w0, w5, w0
    4ecc:	b8004480 	str	w0, [x4], #4
/home/nk/optee/optee_os/lib/libmbedtls/mbedtls/library/bignum.c:1621 (discriminator 1)
    4ed0:	6b05001f 	cmp	w0, w5
    4ed4:	54001823 	b.cc	51d8 <mpi_mul_hlp+0x4cc>  // b.lo, b.ul, b.last
/home/nk/optee/optee_os/lib/libmbedtls/mbedtls/library/bignum.c:1622
    4ed8:	d65f03c0 	ret
/home/nk/optee/optee_os/lib/libmbedtls/mbedtls/library/bignum.c:1585 (discriminator 2)
    4edc:	b94000c7 	ldr	w7, [x6]
    4ee0:	910100c6 	add	x6, x6, #0x40
    4ee4:	91010084 	add	x4, x4, #0x40
/home/nk/optee/optee_os/lib/libmbedtls/mbedtls/library/bignum.c:1582 (discriminator 2)
    4ee8:	d1004108 	sub	x8, x8, #0x10
/home/nk/optee/optee_os/lib/libmbedtls/mbedtls/library/bignum.c:1585 (discriminator 2)
    4eec:	9ba77c67 	umull	x7, w3, w7
    4ef0:	d360fce9 	lsr	x9, x7, #32
    4ef4:	0b0700a7 	add	w7, w5, w7
    4ef8:	6b0700bf 	cmp	w5, w7
    4efc:	0b0a00e5 	add	w5, w7, w10
    4f00:	b81c0085 	stur	w5, [x4, #-64]
    4f04:	1a899529 	cinc	w9, w9, hi  // hi = pmore
    4f08:	6b0a00bf 	cmp	w5, w10
    4f0c:	b85c40c5 	ldur	w5, [x6, #-60]
    4f10:	1a892529 	cinc	w9, w9, cc  // cc = lo, ul, last
    4f14:	9ba57c65 	umull	x5, w3, w5
    4f18:	d360fca7 	lsr	x7, x5, #32
    4f1c:	0b050125 	add	w5, w9, w5
    4f20:	6b05013f 	cmp	w9, w5
    4f24:	b85c4089 	ldur	w9, [x4, #-60]
    4f28:	1a8794e7 	cinc	w7, w7, hi  // hi = pmore
    4f2c:	0b050125 	add	w5, w9, w5
    4f30:	b81c4085 	stur	w5, [x4, #-60]
    4f34:	6b05013f 	cmp	w9, w5
/home/nk/optee/optee_os/lib/libmbedtls/mbedtls/library/bignum.c:1586 (discriminator 2)
    4f38:	b85c80c5 	ldur	w5, [x6, #-56]
/home/nk/optee/optee_os/lib/libmbedtls/mbedtls/library/bignum.c:1585 (discriminator 2)
    4f3c:	1a8794e7 	cinc	w7, w7, hi  // hi = pmore
/home/nk/optee/optee_os/lib/libmbedtls/mbedtls/library/bignum.c:1586 (discriminator 2)
    4f40:	9ba57c65 	umull	x5, w3, w5
    4f44:	d360fca9 	lsr	x9, x5, #32
    4f48:	0b0500e5 	add	w5, w7, w5
    4f4c:	6b0500ff 	cmp	w7, w5
    4f50:	b85c8087 	ldur	w7, [x4, #-56]
    4f54:	1a899529 	cinc	w9, w9, hi  // hi = pmore
    4f58:	0b0500e5 	add	w5, w7, w5
    4f5c:	b81c8085 	stur	w5, [x4, #-56]
    4f60:	6b0500ff 	cmp	w7, w5
    4f64:	b85cc0c5 	ldur	w5, [x6, #-52]
    4f68:	1a899529 	cinc	w9, w9, hi  // hi = pmore
    4f6c:	9ba57c65 	umull	x5, w3, w5
    4f70:	d360fca7 	lsr	x7, x5, #32
    4f74:	0b050125 	add	w5, w9, w5
    4f78:	6b05013f 	cmp	w9, w5
    4f7c:	b85cc089 	ldur	w9, [x4, #-52]
    4f80:	1a8794e7 	cinc	w7, w7, hi  // hi = pmore
    4f84:	0b050125 	add	w5, w9, w5
    4f88:	b81cc085 	stur	w5, [x4, #-52]
    4f8c:	6b05013f 	cmp	w9, w5
/home/nk/optee/optee_os/lib/libmbedtls/mbedtls/library/bignum.c:1587 (discriminator 2)
    4f90:	b85d00c5 	ldur	w5, [x6, #-48]
/home/nk/optee/optee_os/lib/libmbedtls/mbedtls/library/bignum.c:1586 (discriminator 2)
    4f94:	1a8794e7 	cinc	w7, w7, hi  // hi = pmore
/home/nk/optee/optee_os/lib/libmbedtls/mbedtls/library/bignum.c:1587 (discriminator 2)
    4f98:	9ba57c65 	umull	x5, w3, w5
    4f9c:	d360fca9 	lsr	x9, x5, #32
    4fa0:	0b0500e5 	add	w5, w7, w5
    4fa4:	6b0500ff 	cmp	w7, w5
    4fa8:	b85d0087 	ldur	w7, [x4, #-48]
    4fac:	1a899529 	cinc	w9, w9, hi  // hi = pmore
    4fb0:	0b0500e5 	add	w5, w7, w5
    4fb4:	b81d0085 	stur	w5, [x4, #-48]
    4fb8:	6b0500ff 	cmp	w7, w5
    4fbc:	b85d40c5 	ldur	w5, [x6, #-44]
    4fc0:	1a899529 	cinc	w9, w9, hi  // hi = pmore
    4fc4:	9ba57c65 	umull	x5, w3, w5
    4fc8:	d360fca7 	lsr	x7, x5, #32
    4fcc:	0b050125 	add	w5, w9, w5
    4fd0:	6b05013f 	cmp	w9, w5
    4fd4:	b85d4089 	ldur	w9, [x4, #-44]
    4fd8:	1a8794e7 	cinc	w7, w7, hi  // hi = pmore
    4fdc:	0b050125 	add	w5, w9, w5
    4fe0:	b81d4085 	stur	w5, [x4, #-44]
    4fe4:	6b05013f 	cmp	w9, w5
/home/nk/optee/optee_os/lib/libmbedtls/mbedtls/library/bignum.c:1588 (discriminator 2)
    4fe8:	b85d80c5 	ldur	w5, [x6, #-40]
/home/nk/optee/optee_os/lib/libmbedtls/mbedtls/library/bignum.c:1587 (discriminator 2)
    4fec:	1a8794e7 	cinc	w7, w7, hi  // hi = pmore
/home/nk/optee/optee_os/lib/libmbedtls/mbedtls/library/bignum.c:1588 (discriminator 2)
    4ff0:	9ba57c65 	umull	x5, w3, w5
    4ff4:	d360fca9 	lsr	x9, x5, #32
    4ff8:	0b0500e5 	add	w5, w7, w5
    4ffc:	6b0500ff 	cmp	w7, w5
    5000:	b85d8087 	ldur	w7, [x4, #-40]
    5004:	1a899529 	cinc	w9, w9, hi  // hi = pmore
    5008:	0b0500e5 	add	w5, w7, w5
    500c:	b81d8085 	stur	w5, [x4, #-40]
    5010:	6b0500ff 	cmp	w7, w5
    5014:	b85dc0c5 	ldur	w5, [x6, #-36]
    5018:	1a899529 	cinc	w9, w9, hi  // hi = pmore
    501c:	9ba57c65 	umull	x5, w3, w5
    5020:	d360fca7 	lsr	x7, x5, #32
    5024:	0b050125 	add	w5, w9, w5
    5028:	6b05013f 	cmp	w9, w5
    502c:	b85dc089 	ldur	w9, [x4, #-36]
    5030:	1a8794e7 	cinc	w7, w7, hi  // hi = pmore
    5034:	0b050125 	add	w5, w9, w5
    5038:	b81dc085 	stur	w5, [x4, #-36]
    503c:	6b05013f 	cmp	w9, w5
/home/nk/optee/optee_os/lib/libmbedtls/mbedtls/library/bignum.c:1590 (discriminator 2)
    5040:	b85e00c5 	ldur	w5, [x6, #-32]
/home/nk/optee/optee_os/lib/libmbedtls/mbedtls/library/bignum.c:1588 (discriminator 2)
    5044:	1a8794e7 	cinc	w7, w7, hi  // hi = pmore
/home/nk/optee/optee_os/lib/libmbedtls/mbedtls/library/bignum.c:1590 (discriminator 2)
    5048:	9ba57c65 	umull	x5, w3, w5
    504c:	d360fca9 	lsr	x9, x5, #32
    5050:	0b0500e5 	add	w5, w7, w5
    5054:	6b0500ff 	cmp	w7, w5
    5058:	b85e0087 	ldur	w7, [x4, #-32]
    505c:	1a899529 	cinc	w9, w9, hi  // hi = pmore
    5060:	0b0500e5 	add	w5, w7, w5
    5064:	b81e0085 	stur	w5, [x4, #-32]
    5068:	6b0500ff 	cmp	w7, w5
    506c:	b85e40c5 	ldur	w5, [x6, #-28]
    5070:	1a899529 	cinc	w9, w9, hi  // hi = pmore
    5074:	9ba57c65 	umull	x5, w3, w5
    5078:	d360fca7 	lsr	x7, x5, #32
    507c:	0b050125 	add	w5, w9, w5
    5080:	6b05013f 	cmp	w9, w5
    5084:	b85e4089 	ldur	w9, [x4, #-28]
    5088:	1a8794e7 	cinc	w7, w7, hi  // hi = pmore
    508c:	0b050125 	add	w5, w9, w5
    5090:	b81e4085 	stur	w5, [x4, #-28]
    5094:	6b05013f 	cmp	w9, w5
/home/nk/optee/optee_os/lib/libmbedtls/mbedtls/library/bignum.c:1591 (discriminator 2)
    5098:	b85e80c5 	ldur	w5, [x6, #-24]
/home/nk/optee/optee_os/lib/libmbedtls/mbedtls/library/bignum.c:1590 (discriminator 2)
    509c:	1a8794e7 	cinc	w7, w7, hi  // hi = pmore
/home/nk/optee/optee_os/lib/libmbedtls/mbedtls/library/bignum.c:1591 (discriminator 2)
    50a0:	9ba57c65 	umull	x5, w3, w5
    50a4:	d360fca9 	lsr	x9, x5, #32
    50a8:	0b0500e5 	add	w5, w7, w5
    50ac:	6b0500ff 	cmp	w7, w5
    50b0:	b85e8087 	ldur	w7, [x4, #-24]
    50b4:	1a899529 	cinc	w9, w9, hi  // hi = pmore
    50b8:	0b0500e5 	add	w5, w7, w5
    50bc:	b81e8085 	stur	w5, [x4, #-24]
    50c0:	6b0500ff 	cmp	w7, w5
    50c4:	b85ec0c5 	ldur	w5, [x6, #-20]
    50c8:	1a899529 	cinc	w9, w9, hi  // hi = pmore
    50cc:	9ba57c65 	umull	x5, w3, w5
    50d0:	d360fca7 	lsr	x7, x5, #32
    50d4:	0b050125 	add	w5, w9, w5
    50d8:	6b05013f 	cmp	w9, w5
    50dc:	b85ec089 	ldur	w9, [x4, #-20]
    50e0:	1a8794e7 	cinc	w7, w7, hi  // hi = pmore
    50e4:	0b050125 	add	w5, w9, w5
    50e8:	b81ec085 	stur	w5, [x4, #-20]
    50ec:	6b05013f 	cmp	w9, w5
/home/nk/optee/optee_os/lib/libmbedtls/mbedtls/library/bignum.c:1592 (discriminator 2)
    50f0:	b85f00c5 	ldur	w5, [x6, #-16]
/home/nk/optee/optee_os/lib/libmbedtls/mbedtls/library/bignum.c:1591 (discriminator 2)
    50f4:	1a8794e7 	cinc	w7, w7, hi  // hi = pmore
/home/nk/optee/optee_os/lib/libmbedtls/mbedtls/library/bignum.c:1592 (discriminator 2)
    50f8:	9ba57c65 	umull	x5, w3, w5
    50fc:	d360fca9 	lsr	x9, x5, #32
    5100:	0b0500e5 	add	w5, w7, w5
    5104:	6b0500ff 	cmp	w7, w5
    5108:	b85f0087 	ldur	w7, [x4, #-16]
    510c:	1a899529 	cinc	w9, w9, hi  // hi = pmore
    5110:	0b0500e5 	add	w5, w7, w5
    5114:	b81f0085 	stur	w5, [x4, #-16]
    5118:	6b0500ff 	cmp	w7, w5
    511c:	b85f40c5 	ldur	w5, [x6, #-12]
    5120:	1a899529 	cinc	w9, w9, hi  // hi = pmore
    5124:	9ba57c65 	umull	x5, w3, w5
    5128:	d360fca7 	lsr	x7, x5, #32
    512c:	0b050125 	add	w5, w9, w5
    5130:	6b05013f 	cmp	w9, w5
    5134:	b85f4089 	ldur	w9, [x4, #-12]
    5138:	1a8794e7 	cinc	w7, w7, hi  // hi = pmore
    513c:	0b050125 	add	w5, w9, w5
    5140:	b81f4085 	stur	w5, [x4, #-12]
    5144:	6b05013f 	cmp	w9, w5
/home/nk/optee/optee_os/lib/libmbedtls/mbedtls/library/bignum.c:1593 (discriminator 2)
    5148:	b85f80c5 	ldur	w5, [x6, #-8]
/home/nk/optee/optee_os/lib/libmbedtls/mbedtls/library/bignum.c:1592 (discriminator 2)
    514c:	1a8794e7 	cinc	w7, w7, hi  // hi = pmore
/home/nk/optee/optee_os/lib/libmbedtls/mbedtls/library/bignum.c:1593 (discriminator 2)
    5150:	9ba57c65 	umull	x5, w3, w5
    5154:	d360fca9 	lsr	x9, x5, #32
    5158:	0b0500e5 	add	w5, w7, w5
    515c:	6b0500ff 	cmp	w7, w5
    5160:	b85f8087 	ldur	w7, [x4, #-8]
    5164:	1a899529 	cinc	w9, w9, hi  // hi = pmore
    5168:	0b0500e5 	add	w5, w7, w5
    516c:	b81f8085 	stur	w5, [x4, #-8]
    5170:	6b0500ff 	cmp	w7, w5
    5174:	b85fc0c7 	ldur	w7, [x6, #-4]
    5178:	1a899529 	cinc	w9, w9, hi  // hi = pmore
    517c:	9ba77c67 	umull	x7, w3, w7
    5180:	d360fce5 	lsr	x5, x7, #32
    5184:	0b070127 	add	w7, w9, w7
    5188:	6b07013f 	cmp	w9, w7
    518c:	b85fc089 	ldur	w9, [x4, #-4]
    5190:	1a8594a5 	cinc	w5, w5, hi  // hi = pmore
    5194:	0b070127 	add	w7, w9, w7
    5198:	b81fc087 	stur	w7, [x4, #-4]
    519c:	6b07013f 	cmp	w9, w7
    51a0:	1a8594a5 	cinc	w5, w5, hi  // hi = pmore
    51a4:	17fffede 	b	4d1c <mpi_mul_hlp+0x10>
/home/nk/optee/optee_os/lib/libmbedtls/mbedtls/library/bignum.c:1611 (discriminator 2)
    51a8:	b86178c2 	ldr	w2, [x6, x1, lsl #2]
    51ac:	9ba27c62 	umull	x2, w3, w2
    51b0:	d360fc47 	lsr	x7, x2, #32
    51b4:	0b0200a2 	add	w2, w5, w2
    51b8:	6b0200bf 	cmp	w5, w2
    51bc:	0b020102 	add	w2, w8, w2
    51c0:	1a8794e5 	cinc	w5, w7, hi  // hi = pmore
    51c4:	6b02011f 	cmp	w8, w2
    51c8:	1a8594a5 	cinc	w5, w5, hi  // hi = pmore
    51cc:	b8217882 	str	w2, [x4, x1, lsl #2]
    51d0:	91000421 	add	x1, x1, #0x1
    51d4:	17ffff38 	b	4eb4 <mpi_mul_hlp+0x1a8>
/home/nk/optee/optee_os/lib/libmbedtls/mbedtls/library/bignum.c:1619
    51d8:	52800025 	mov	w5, #0x1                   	// #1
    51dc:	17ffff3a 	b	4ec4 <mpi_mul_hlp+0x1b8>

00000000000051e0 <mpi_bigendian_to_host.part.0>:
mpi_bigendian_to_host():
/home/nk/optee/optee_os/lib/libmbedtls/mbedtls/library/bignum.c:849
    51e0:	d10043ff 	sub	sp, sp, #0x10
/home/nk/optee/optee_os/lib/libmbedtls/mbedtls/library/bignum.c:865
    51e4:	8b010801 	add	x1, x0, x1, lsl #2
    51e8:	d1001021 	sub	x1, x1, #0x4
mpi_uint_bigendian_to_host_c():
/home/nk/optee/optee_os/lib/libmbedtls/mbedtls/library/bignum.c:800
    51ec:	910033e5 	add	x5, sp, #0xc
mpi_bigendian_to_host():
/home/nk/optee/optee_os/lib/libmbedtls/mbedtls/library/bignum.c:865
    51f0:	eb01001f 	cmp	x0, x1
    51f4:	54000069 	b.ls	5200 <mpi_bigendian_to_host.part.0+0x20>  // b.plast
/home/nk/optee/optee_os/lib/libmbedtls/mbedtls/library/bignum.c:876
    51f8:	910043ff 	add	sp, sp, #0x10
    51fc:	d65f03c0 	ret
mpi_uint_bigendian_to_host():
/home/nk/optee/optee_os/lib/libmbedtls/mbedtls/library/bignum.c:846
    5200:	b9400002 	ldr	w2, [x0]
mpi_uint_bigendian_to_host_c():
/home/nk/optee/optee_os/lib/libmbedtls/mbedtls/library/bignum.c:795
    5204:	52800003 	mov	w3, #0x0                   	// #0
    5208:	b9000fe2 	str	w2, [sp, #12]
mpi_bigendian_to_host():
/home/nk/optee/optee_os/lib/libmbedtls/mbedtls/library/bignum.c:872
    520c:	d2800002 	mov	x2, #0x0                   	// #0
mpi_uint_bigendian_to_host_c():
/home/nk/optee/optee_os/lib/libmbedtls/mbedtls/library/bignum.c:800
    5210:	38656844 	ldrb	w4, [x2, x5]
    5214:	91000442 	add	x2, x2, #0x1
/home/nk/optee/optee_os/lib/libmbedtls/mbedtls/library/bignum.c:797
    5218:	f100105f 	cmp	x2, #0x4
/home/nk/optee/optee_os/lib/libmbedtls/mbedtls/library/bignum.c:800
    521c:	2a032083 	orr	w3, w4, w3, lsl #8
/home/nk/optee/optee_os/lib/libmbedtls/mbedtls/library/bignum.c:797
    5220:	54ffff81 	b.ne	5210 <mpi_bigendian_to_host.part.0+0x30>  // b.any
mpi_uint_bigendian_to_host():
/home/nk/optee/optee_os/lib/libmbedtls/mbedtls/library/bignum.c:846
    5224:	b9400022 	ldr	w2, [x1]
mpi_uint_bigendian_to_host_c():
/home/nk/optee/optee_os/lib/libmbedtls/mbedtls/library/bignum.c:795
    5228:	52800004 	mov	w4, #0x0                   	// #0
    522c:	b9000fe2 	str	w2, [sp, #12]
mpi_bigendian_to_host():
/home/nk/optee/optee_os/lib/libmbedtls/mbedtls/library/bignum.c:873
    5230:	d2800002 	mov	x2, #0x0                   	// #0
mpi_uint_bigendian_to_host_c():
/home/nk/optee/optee_os/lib/libmbedtls/mbedtls/library/bignum.c:800
    5234:	386268a6 	ldrb	w6, [x5, x2]
    5238:	91000442 	add	x2, x2, #0x1
/home/nk/optee/optee_os/lib/libmbedtls/mbedtls/library/bignum.c:797
    523c:	f100105f 	cmp	x2, #0x4
/home/nk/optee/optee_os/lib/libmbedtls/mbedtls/library/bignum.c:800
    5240:	2a0420c4 	orr	w4, w6, w4, lsl #8
/home/nk/optee/optee_os/lib/libmbedtls/mbedtls/library/bignum.c:797
    5244:	54ffff81 	b.ne	5234 <mpi_bigendian_to_host.part.0+0x54>  // b.any
mpi_bigendian_to_host():
/home/nk/optee/optee_os/lib/libmbedtls/mbedtls/library/bignum.c:873
    5248:	b8004404 	str	w4, [x0], #4
/home/nk/optee/optee_os/lib/libmbedtls/mbedtls/library/bignum.c:874
    524c:	b81fc423 	str	w3, [x1], #-4
    5250:	17ffffe8 	b	51f0 <mpi_bigendian_to_host.part.0+0x10>

0000000000005254 <mbedtls_mpi_init>:
mpi_init():
/home/nk/optee/optee_os/lib/libmbedtls/mbedtls/library/bignum.c:99
    5254:	52800021 	mov	w1, #0x1                   	// #1
    5258:	b9000001 	str	w1, [x0]
/home/nk/optee/optee_os/lib/libmbedtls/mbedtls/library/bignum.c:102
    525c:	a900fc1f 	stp	xzr, xzr, [x0, #8]
mbedtls_mpi_init():
/home/nk/optee/optee_os/lib/libmbedtls/mbedtls/library/bignum.c:108
    5260:	d65f03c0 	ret

0000000000005264 <mbedtls_mpi_init_mempool>:
mbedtls_mpi_init_mempool():
/home/nk/optee/optee_os/lib/libmbedtls/mbedtls/library/bignum.c:112
    5264:	90000041 	adrp	x1, d000 <_DYNAMIC>
mpi_init():
/home/nk/optee/optee_os/lib/libmbedtls/mbedtls/library/bignum.c:99
    5268:	52800022 	mov	w2, #0x1                   	// #1
/home/nk/optee/optee_os/lib/libmbedtls/mbedtls/library/bignum.c:102
    526c:	a900fc1f 	stp	xzr, xzr, [x0, #8]
mbedtls_mpi_init_mempool():
/home/nk/optee/optee_os/lib/libmbedtls/mbedtls/library/bignum.c:112
    5270:	f940c821 	ldr	x1, [x1, #400]
    5274:	f9400021 	ldr	x1, [x1]
mpi_init():
/home/nk/optee/optee_os/lib/libmbedtls/mbedtls/library/bignum.c:99
    5278:	79000002 	strh	w2, [x0]
mbedtls_mpi_init_mempool():
/home/nk/optee/optee_os/lib/libmbedtls/mbedtls/library/bignum.c:112
    527c:	f100003f 	cmp	x1, #0x0
    5280:	1a9f07e1 	cset	w1, ne  // ne = any
mpi_init():
/home/nk/optee/optee_os/lib/libmbedtls/mbedtls/library/bignum.c:100
    5284:	79000401 	strh	w1, [x0, #2]
mbedtls_mpi_init_mempool():
/home/nk/optee/optee_os/lib/libmbedtls/mbedtls/library/bignum.c:113
    5288:	d65f03c0 	ret

000000000000528c <mbedtls_mpi_free>:
mbedtls_mpi_free():
/home/nk/optee/optee_os/lib/libmbedtls/mbedtls/library/bignum.c:120
    528c:	b4000340 	cbz	x0, 52f4 <mbedtls_mpi_free+0x68>
/home/nk/optee/optee_os/lib/libmbedtls/mbedtls/library/bignum.c:119
    5290:	a9be7bfd 	stp	x29, x30, [sp, #-32]!
    5294:	910003fd 	mov	x29, sp
    5298:	f9000bf3 	str	x19, [sp, #16]
    529c:	aa0003f3 	mov	x19, x0
/home/nk/optee/optee_os/lib/libmbedtls/mbedtls/library/bignum.c:123
    52a0:	f9400800 	ldr	x0, [x0, #16]
    52a4:	b4000160 	cbz	x0, 52d0 <mbedtls_mpi_free+0x44>
mbedtls_mpi_zeroize():
/home/nk/optee/optee_os/lib/libmbedtls/mbedtls/library/bignum.c:89
    52a8:	f9400661 	ldr	x1, [x19, #8]
    52ac:	d37ef421 	lsl	x1, x1, #2
    52b0:	94000de0 	bl	8a30 <mbedtls_platform_zeroize>
mbedtls_mpi_free():
/home/nk/optee/optee_os/lib/libmbedtls/mbedtls/library/bignum.c:126
    52b4:	79c00660 	ldrsh	w0, [x19, #2]
    52b8:	34000180 	cbz	w0, 52e8 <mbedtls_mpi_free+0x5c>
/home/nk/optee/optee_os/lib/libmbedtls/mbedtls/library/bignum.c:127
    52bc:	90000040 	adrp	x0, d000 <_DYNAMIC>
    52c0:	f9400a61 	ldr	x1, [x19, #16]
    52c4:	f940c800 	ldr	x0, [x0, #400]
    52c8:	f9400000 	ldr	x0, [x0]
    52cc:	9400118e 	bl	9904 <mempool_free>
/home/nk/optee/optee_os/lib/libmbedtls/mbedtls/library/bignum.c:132
    52d0:	52800020 	mov	w0, #0x1                   	// #1
    52d4:	79000260 	strh	w0, [x19]
/home/nk/optee/optee_os/lib/libmbedtls/mbedtls/library/bignum.c:134
    52d8:	a900fe7f 	stp	xzr, xzr, [x19, #8]
/home/nk/optee/optee_os/lib/libmbedtls/mbedtls/library/bignum.c:135
    52dc:	f9400bf3 	ldr	x19, [sp, #16]
    52e0:	a8c27bfd 	ldp	x29, x30, [sp], #32
    52e4:	d65f03c0 	ret
/home/nk/optee/optee_os/lib/libmbedtls/mbedtls/library/bignum.c:129
    52e8:	f9400a60 	ldr	x0, [x19, #16]
    52ec:	9400100e 	bl	9324 <free>
    52f0:	17fffff8 	b	52d0 <mbedtls_mpi_free+0x44>
    52f4:	d65f03c0 	ret

00000000000052f8 <mbedtls_mpi_grow>:
mbedtls_mpi_grow():
/home/nk/optee/optee_os/lib/libmbedtls/mbedtls/library/bignum.c:145
    52f8:	d284e202 	mov	x2, #0x2710                	// #10000
    52fc:	eb02003f 	cmp	x1, x2
    5300:	54000069 	b.ls	530c <mbedtls_mpi_grow+0x14>  // b.plast
/home/nk/optee/optee_os/lib/libmbedtls/mbedtls/library/bignum.c:146
    5304:	128001e0 	mov	w0, #0xfffffff0            	// #-16
/home/nk/optee/optee_os/lib/libmbedtls/mbedtls/library/bignum.c:179
    5308:	d65f03c0 	ret
/home/nk/optee/optee_os/lib/libmbedtls/mbedtls/library/bignum.c:148
    530c:	f9400402 	ldr	x2, [x0, #8]
    5310:	eb01005f 	cmp	x2, x1
    5314:	540006a2 	b.cs	53e8 <mbedtls_mpi_grow+0xf0>  // b.hs, b.nlast
/home/nk/optee/optee_os/lib/libmbedtls/mbedtls/library/bignum.c:141
    5318:	a9bc7bfd 	stp	x29, x30, [sp, #-64]!
    531c:	910003fd 	mov	x29, sp
    5320:	a90153f3 	stp	x19, x20, [sp, #16]
    5324:	aa0003f3 	mov	x19, x0
/home/nk/optee/optee_os/lib/libmbedtls/mbedtls/library/bignum.c:150
    5328:	79c00400 	ldrsh	w0, [x0, #2]
/home/nk/optee/optee_os/lib/libmbedtls/mbedtls/library/bignum.c:141
    532c:	f90013f5 	str	x21, [sp, #32]
    5330:	aa0103f4 	mov	x20, x1
/home/nk/optee/optee_os/lib/libmbedtls/mbedtls/library/bignum.c:150
    5334:	34000400 	cbz	w0, 53b4 <mbedtls_mpi_grow+0xbc>
/home/nk/optee/optee_os/lib/libmbedtls/mbedtls/library/bignum.c:152
    5338:	90000040 	adrp	x0, d000 <_DYNAMIC>
    533c:	d37ef422 	lsl	x2, x1, #2
    5340:	aa0203e1 	mov	x1, x2
    5344:	f9001fe2 	str	x2, [sp, #56]
    5348:	f940c800 	ldr	x0, [x0, #400]
    534c:	f9400000 	ldr	x0, [x0]
    5350:	9400112e 	bl	9808 <mempool_alloc>
    5354:	aa0003f5 	mov	x21, x0
/home/nk/optee/optee_os/lib/libmbedtls/mbedtls/library/bignum.c:153
    5358:	b4000380 	cbz	x0, 53c8 <mbedtls_mpi_grow+0xd0>
/home/nk/optee/optee_os/lib/libmbedtls/mbedtls/library/bignum.c:155
    535c:	f9401fe2 	ldr	x2, [sp, #56]
    5360:	52800001 	mov	w1, #0x0                   	// #0
    5364:	94001108 	bl	9784 <memset>
/home/nk/optee/optee_os/lib/libmbedtls/mbedtls/library/bignum.c:164
    5368:	f9400a61 	ldr	x1, [x19, #16]
    536c:	b40001e1 	cbz	x1, 53a8 <mbedtls_mpi_grow+0xb0>
/home/nk/optee/optee_os/lib/libmbedtls/mbedtls/library/bignum.c:166
    5370:	f9400662 	ldr	x2, [x19, #8]
    5374:	aa1503e0 	mov	x0, x21
    5378:	d37ef442 	lsl	x2, x2, #2
    537c:	97ffeb29 	bl	20 <memcpy>
mbedtls_mpi_zeroize():
/home/nk/optee/optee_os/lib/libmbedtls/mbedtls/library/bignum.c:89
    5380:	a9408261 	ldp	x1, x0, [x19, #8]
    5384:	d37ef421 	lsl	x1, x1, #2
    5388:	94000daa 	bl	8a30 <mbedtls_platform_zeroize>
mbedtls_mpi_grow():
/home/nk/optee/optee_os/lib/libmbedtls/mbedtls/library/bignum.c:168
    538c:	79c00660 	ldrsh	w0, [x19, #2]
    5390:	34000260 	cbz	w0, 53dc <mbedtls_mpi_grow+0xe4>
/home/nk/optee/optee_os/lib/libmbedtls/mbedtls/library/bignum.c:169
    5394:	90000040 	adrp	x0, d000 <_DYNAMIC>
    5398:	f9400a61 	ldr	x1, [x19, #16]
    539c:	f940c800 	ldr	x0, [x0, #400]
    53a0:	f9400000 	ldr	x0, [x0]
    53a4:	94001158 	bl	9904 <mempool_free>
/home/nk/optee/optee_os/lib/libmbedtls/mbedtls/library/bignum.c:178
    53a8:	52800000 	mov	w0, #0x0                   	// #0
/home/nk/optee/optee_os/lib/libmbedtls/mbedtls/library/bignum.c:175
    53ac:	a900d674 	stp	x20, x21, [x19, #8]
    53b0:	14000007 	b	53cc <mbedtls_mpi_grow+0xd4>
/home/nk/optee/optee_os/lib/libmbedtls/mbedtls/library/bignum.c:159
    53b4:	d2800081 	mov	x1, #0x4                   	// #4
    53b8:	aa1403e0 	mov	x0, x20
    53bc:	94000fad 	bl	9270 <calloc>
    53c0:	aa0003f5 	mov	x21, x0
/home/nk/optee/optee_os/lib/libmbedtls/mbedtls/library/bignum.c:160
    53c4:	b5fffd20 	cbnz	x0, 5368 <mbedtls_mpi_grow+0x70>
/home/nk/optee/optee_os/lib/libmbedtls/mbedtls/library/bignum.c:146
    53c8:	128001e0 	mov	w0, #0xfffffff0            	// #-16
/home/nk/optee/optee_os/lib/libmbedtls/mbedtls/library/bignum.c:179
    53cc:	a94153f3 	ldp	x19, x20, [sp, #16]
    53d0:	f94013f5 	ldr	x21, [sp, #32]
    53d4:	a8c47bfd 	ldp	x29, x30, [sp], #64
    53d8:	d65f03c0 	ret
/home/nk/optee/optee_os/lib/libmbedtls/mbedtls/library/bignum.c:171
    53dc:	f9400a60 	ldr	x0, [x19, #16]
    53e0:	94000fd1 	bl	9324 <free>
    53e4:	17fffff1 	b	53a8 <mbedtls_mpi_grow+0xb0>
/home/nk/optee/optee_os/lib/libmbedtls/mbedtls/library/bignum.c:178
    53e8:	52800000 	mov	w0, #0x0                   	// #0
    53ec:	d65f03c0 	ret

00000000000053f0 <mbedtls_mpi_shrink>:
mbedtls_mpi_shrink():
/home/nk/optee/optee_os/lib/libmbedtls/mbedtls/library/bignum.c:191
    53f0:	d284e202 	mov	x2, #0x2710                	// #10000
    53f4:	eb02003f 	cmp	x1, x2
    53f8:	54000069 	b.ls	5404 <mbedtls_mpi_shrink+0x14>  // b.plast
/home/nk/optee/optee_os/lib/libmbedtls/mbedtls/library/bignum.c:192
    53fc:	128001e0 	mov	w0, #0xfffffff0            	// #-16
/home/nk/optee/optee_os/lib/libmbedtls/mbedtls/library/bignum.c:235
    5400:	d65f03c0 	ret
/home/nk/optee/optee_os/lib/libmbedtls/mbedtls/library/bignum.c:186
    5404:	a9bd7bfd 	stp	x29, x30, [sp, #-48]!
    5408:	910003fd 	mov	x29, sp
/home/nk/optee/optee_os/lib/libmbedtls/mbedtls/library/bignum.c:195
    540c:	f9400402 	ldr	x2, [x0, #8]
/home/nk/optee/optee_os/lib/libmbedtls/mbedtls/library/bignum.c:186
    5410:	a90153f3 	stp	x19, x20, [sp, #16]
    5414:	aa0003f3 	mov	x19, x0
    5418:	a9025bf5 	stp	x21, x22, [sp, #32]
    541c:	aa0103f4 	mov	x20, x1
/home/nk/optee/optee_os/lib/libmbedtls/mbedtls/library/bignum.c:195
    5420:	eb01005f 	cmp	x2, x1
    5424:	540000a8 	b.hi	5438 <mbedtls_mpi_shrink+0x48>  // b.pmore
/home/nk/optee/optee_os/lib/libmbedtls/mbedtls/library/bignum.c:235
    5428:	a94153f3 	ldp	x19, x20, [sp, #16]
    542c:	a9425bf5 	ldp	x21, x22, [sp, #32]
    5430:	a8c37bfd 	ldp	x29, x30, [sp], #48
/home/nk/optee/optee_os/lib/libmbedtls/mbedtls/library/bignum.c:196
    5434:	17ffffb1 	b	52f8 <mbedtls_mpi_grow>
/home/nk/optee/optee_os/lib/libmbedtls/mbedtls/library/bignum.c:199
    5438:	d1000440 	sub	x0, x2, #0x1
/home/nk/optee/optee_os/lib/libmbedtls/mbedtls/library/bignum.c:199 (discriminator 1)
    543c:	b5000460 	cbnz	x0, 54c8 <mbedtls_mpi_shrink+0xd8>
/home/nk/optee/optee_os/lib/libmbedtls/mbedtls/library/bignum.c:202
    5440:	91000400 	add	x0, x0, #0x1
/home/nk/optee/optee_os/lib/libmbedtls/mbedtls/library/bignum.c:204
    5444:	eb00029f 	cmp	x20, x0
    5448:	9a802294 	csel	x20, x20, x0, cs  // cs = hs, nlast
/home/nk/optee/optee_os/lib/libmbedtls/mbedtls/library/bignum.c:207
    544c:	79c00660 	ldrsh	w0, [x19, #2]
    5450:	34000460 	cbz	w0, 54dc <mbedtls_mpi_shrink+0xec>
/home/nk/optee/optee_os/lib/libmbedtls/mbedtls/library/bignum.c:209
    5454:	90000040 	adrp	x0, d000 <_DYNAMIC>
    5458:	d37ef696 	lsl	x22, x20, #2
    545c:	aa1603e1 	mov	x1, x22
    5460:	f940c800 	ldr	x0, [x0, #400]
    5464:	f9400000 	ldr	x0, [x0]
    5468:	940010e8 	bl	9808 <mempool_alloc>
    546c:	aa0003f5 	mov	x21, x0
/home/nk/optee/optee_os/lib/libmbedtls/mbedtls/library/bignum.c:210
    5470:	b4000400 	cbz	x0, 54f0 <mbedtls_mpi_shrink+0x100>
/home/nk/optee/optee_os/lib/libmbedtls/mbedtls/library/bignum.c:212
    5474:	aa1603e2 	mov	x2, x22
    5478:	52800001 	mov	w1, #0x0                   	// #0
    547c:	940010c2 	bl	9784 <memset>
/home/nk/optee/optee_os/lib/libmbedtls/mbedtls/library/bignum.c:221
    5480:	f9400a61 	ldr	x1, [x19, #16]
    5484:	b40001c1 	cbz	x1, 54bc <mbedtls_mpi_shrink+0xcc>
/home/nk/optee/optee_os/lib/libmbedtls/mbedtls/library/bignum.c:223
    5488:	d37ef682 	lsl	x2, x20, #2
    548c:	aa1503e0 	mov	x0, x21
    5490:	97ffeae4 	bl	20 <memcpy>
mbedtls_mpi_zeroize():
/home/nk/optee/optee_os/lib/libmbedtls/mbedtls/library/bignum.c:89
    5494:	a9408261 	ldp	x1, x0, [x19, #8]
    5498:	d37ef421 	lsl	x1, x1, #2
    549c:	94000d65 	bl	8a30 <mbedtls_platform_zeroize>
mbedtls_mpi_shrink():
/home/nk/optee/optee_os/lib/libmbedtls/mbedtls/library/bignum.c:225
    54a0:	79c00660 	ldrsh	w0, [x19, #2]
    54a4:	34000300 	cbz	w0, 5504 <mbedtls_mpi_shrink+0x114>
/home/nk/optee/optee_os/lib/libmbedtls/mbedtls/library/bignum.c:226
    54a8:	90000040 	adrp	x0, d000 <_DYNAMIC>
    54ac:	f9400a61 	ldr	x1, [x19, #16]
    54b0:	f940c800 	ldr	x0, [x0, #400]
    54b4:	f9400000 	ldr	x0, [x0]
    54b8:	94001113 	bl	9904 <mempool_free>
/home/nk/optee/optee_os/lib/libmbedtls/mbedtls/library/bignum.c:234
    54bc:	52800000 	mov	w0, #0x0                   	// #0
/home/nk/optee/optee_os/lib/libmbedtls/mbedtls/library/bignum.c:232
    54c0:	a900d674 	stp	x20, x21, [x19, #8]
/home/nk/optee/optee_os/lib/libmbedtls/mbedtls/library/bignum.c:234
    54c4:	1400000c 	b	54f4 <mbedtls_mpi_shrink+0x104>
/home/nk/optee/optee_os/lib/libmbedtls/mbedtls/library/bignum.c:200
    54c8:	f9400a61 	ldr	x1, [x19, #16]
    54cc:	b8607821 	ldr	w1, [x1, x0, lsl #2]
    54d0:	35fffb81 	cbnz	w1, 5440 <mbedtls_mpi_shrink+0x50>
/home/nk/optee/optee_os/lib/libmbedtls/mbedtls/library/bignum.c:199 (discriminator 2)
    54d4:	d1000400 	sub	x0, x0, #0x1
    54d8:	17ffffd9 	b	543c <mbedtls_mpi_shrink+0x4c>
/home/nk/optee/optee_os/lib/libmbedtls/mbedtls/library/bignum.c:216
    54dc:	d2800081 	mov	x1, #0x4                   	// #4
    54e0:	aa1403e0 	mov	x0, x20
    54e4:	94000f63 	bl	9270 <calloc>
    54e8:	aa0003f5 	mov	x21, x0
/home/nk/optee/optee_os/lib/libmbedtls/mbedtls/library/bignum.c:217
    54ec:	b5fffca0 	cbnz	x0, 5480 <mbedtls_mpi_shrink+0x90>
/home/nk/optee/optee_os/lib/libmbedtls/mbedtls/library/bignum.c:192
    54f0:	128001e0 	mov	w0, #0xfffffff0            	// #-16
/home/nk/optee/optee_os/lib/libmbedtls/mbedtls/library/bignum.c:235
    54f4:	a94153f3 	ldp	x19, x20, [sp, #16]
    54f8:	a9425bf5 	ldp	x21, x22, [sp, #32]
    54fc:	a8c37bfd 	ldp	x29, x30, [sp], #48
    5500:	d65f03c0 	ret
/home/nk/optee/optee_os/lib/libmbedtls/mbedtls/library/bignum.c:228
    5504:	f9400a60 	ldr	x0, [x19, #16]
    5508:	94000f87 	bl	9324 <free>
    550c:	17ffffec 	b	54bc <mbedtls_mpi_shrink+0xcc>

0000000000005510 <mbedtls_mpi_copy>:
mbedtls_mpi_copy():
/home/nk/optee/optee_os/lib/libmbedtls/mbedtls/library/bignum.c:247
    5510:	eb01001f 	cmp	x0, x1
    5514:	54000540 	b.eq	55bc <mbedtls_mpi_copy+0xac>  // b.none
/home/nk/optee/optee_os/lib/libmbedtls/mbedtls/library/bignum.c:241
    5518:	a9bd7bfd 	stp	x29, x30, [sp, #-48]!
    551c:	910003fd 	mov	x29, sp
    5520:	a90153f3 	stp	x19, x20, [sp, #16]
/home/nk/optee/optee_os/lib/libmbedtls/mbedtls/library/bignum.c:250
    5524:	f9400433 	ldr	x19, [x1, #8]
/home/nk/optee/optee_os/lib/libmbedtls/mbedtls/library/bignum.c:241
    5528:	f90013f5 	str	x21, [sp, #32]
    552c:	aa0103f5 	mov	x21, x1
/home/nk/optee/optee_os/lib/libmbedtls/mbedtls/library/bignum.c:250
    5530:	b5000093 	cbnz	x19, 5540 <mbedtls_mpi_copy+0x30>
/home/nk/optee/optee_os/lib/libmbedtls/mbedtls/library/bignum.c:252
    5534:	97ffff56 	bl	528c <mbedtls_mpi_free>
/home/nk/optee/optee_os/lib/libmbedtls/mbedtls/library/bignum.c:272
    5538:	52800000 	mov	w0, #0x0                   	// #0
    553c:	14000011 	b	5580 <mbedtls_mpi_copy+0x70>
    5540:	aa0003f4 	mov	x20, x0
/home/nk/optee/optee_os/lib/libmbedtls/mbedtls/library/bignum.c:256 (discriminator 2)
    5544:	d1000673 	sub	x19, x19, #0x1
    5548:	b4000093 	cbz	x19, 5558 <mbedtls_mpi_copy+0x48>
/home/nk/optee/optee_os/lib/libmbedtls/mbedtls/library/bignum.c:257
    554c:	f9400aa0 	ldr	x0, [x21, #16]
    5550:	b8737800 	ldr	w0, [x0, x19, lsl #2]
    5554:	34ffff80 	cbz	w0, 5544 <mbedtls_mpi_copy+0x34>
/home/nk/optee/optee_os/lib/libmbedtls/mbedtls/library/bignum.c:261
    5558:	79c002a0 	ldrsh	w0, [x21]
/home/nk/optee/optee_os/lib/libmbedtls/mbedtls/library/bignum.c:259
    555c:	91000673 	add	x19, x19, #0x1
/home/nk/optee/optee_os/lib/libmbedtls/mbedtls/library/bignum.c:263
    5560:	f9400682 	ldr	x2, [x20, #8]
/home/nk/optee/optee_os/lib/libmbedtls/mbedtls/library/bignum.c:261
    5564:	79000280 	strh	w0, [x20]
/home/nk/optee/optee_os/lib/libmbedtls/mbedtls/library/bignum.c:263
    5568:	eb13005f 	cmp	x2, x19
    556c:	54000122 	b.cs	5590 <mbedtls_mpi_copy+0x80>  // b.hs, b.nlast
/home/nk/optee/optee_os/lib/libmbedtls/mbedtls/library/bignum.c:265
    5570:	aa1303e1 	mov	x1, x19
    5574:	aa1403e0 	mov	x0, x20
    5578:	97ffff60 	bl	52f8 <mbedtls_mpi_grow>
    557c:	34000160 	cbz	w0, 55a8 <mbedtls_mpi_copy+0x98>
/home/nk/optee/optee_os/lib/libmbedtls/mbedtls/library/bignum.c:277
    5580:	a94153f3 	ldp	x19, x20, [sp, #16]
    5584:	f94013f5 	ldr	x21, [sp, #32]
    5588:	a8c37bfd 	ldp	x29, x30, [sp], #48
    558c:	d65f03c0 	ret
/home/nk/optee/optee_os/lib/libmbedtls/mbedtls/library/bignum.c:269
    5590:	f9400a80 	ldr	x0, [x20, #16]
    5594:	cb130042 	sub	x2, x2, x19
    5598:	52800001 	mov	w1, #0x0                   	// #0
    559c:	d37ef442 	lsl	x2, x2, #2
    55a0:	8b130800 	add	x0, x0, x19, lsl #2
    55a4:	94001078 	bl	9784 <memset>
/home/nk/optee/optee_os/lib/libmbedtls/mbedtls/library/bignum.c:272
    55a8:	f9400a80 	ldr	x0, [x20, #16]
    55ac:	d37ef662 	lsl	x2, x19, #2
    55b0:	f9400aa1 	ldr	x1, [x21, #16]
    55b4:	97ffea9b 	bl	20 <memcpy>
    55b8:	17ffffe0 	b	5538 <mbedtls_mpi_copy+0x28>
/home/nk/optee/optee_os/lib/libmbedtls/mbedtls/library/bignum.c:248
    55bc:	52800000 	mov	w0, #0x0                   	// #0
/home/nk/optee/optee_os/lib/libmbedtls/mbedtls/library/bignum.c:277
    55c0:	d65f03c0 	ret

00000000000055c4 <mbedtls_mpi_swap>:
mbedtls_mpi_swap():
/home/nk/optee/optee_os/lib/libmbedtls/mbedtls/library/bignum.c:283
    55c4:	a9bb7bfd 	stp	x29, x30, [sp, #-80]!
    55c8:	910003fd 	mov	x29, sp
    55cc:	a90153f3 	stp	x19, x20, [sp, #16]
/home/nk/optee/optee_os/lib/libmbedtls/mbedtls/library/bignum.c:288
    55d0:	9100e3f3 	add	x19, sp, #0x38
    55d4:	d2800314 	mov	x20, #0x18                  	// #24
    55d8:	aa1403e2 	mov	x2, x20
/home/nk/optee/optee_os/lib/libmbedtls/mbedtls/library/bignum.c:283
    55dc:	a9025bf5 	stp	x21, x22, [sp, #32]
    55e0:	aa0103f5 	mov	x21, x1
    55e4:	aa0003f6 	mov	x22, x0
/home/nk/optee/optee_os/lib/libmbedtls/mbedtls/library/bignum.c:288
    55e8:	aa0003e1 	mov	x1, x0
    55ec:	aa1303e0 	mov	x0, x19
    55f0:	97ffea8c 	bl	20 <memcpy>
/home/nk/optee/optee_os/lib/libmbedtls/mbedtls/library/bignum.c:289
    55f4:	aa1403e2 	mov	x2, x20
    55f8:	aa1503e1 	mov	x1, x21
    55fc:	aa1603e0 	mov	x0, x22
    5600:	97ffea88 	bl	20 <memcpy>
/home/nk/optee/optee_os/lib/libmbedtls/mbedtls/library/bignum.c:290
    5604:	aa1403e2 	mov	x2, x20
    5608:	aa1303e1 	mov	x1, x19
    560c:	aa1503e0 	mov	x0, x21
    5610:	97ffea84 	bl	20 <memcpy>
/home/nk/optee/optee_os/lib/libmbedtls/mbedtls/library/bignum.c:291
    5614:	a94153f3 	ldp	x19, x20, [sp, #16]
    5618:	a9425bf5 	ldp	x21, x22, [sp, #32]
    561c:	a8c57bfd 	ldp	x29, x30, [sp], #80
    5620:	d65f03c0 	ret

0000000000005624 <mbedtls_mpi_safe_cond_assign>:
mbedtls_mpi_safe_cond_assign():
/home/nk/optee/optee_os/lib/libmbedtls/mbedtls/library/bignum.c:299
    5624:	a9bd7bfd 	stp	x29, x30, [sp, #-48]!
    5628:	910003fd 	mov	x29, sp
    562c:	f90013f5 	str	x21, [sp, #32]
    5630:	aa0103f5 	mov	x21, x1
/home/nk/optee/optee_os/lib/libmbedtls/mbedtls/library/bignum.c:308
    5634:	f9400421 	ldr	x1, [x1, #8]
/home/nk/optee/optee_os/lib/libmbedtls/mbedtls/library/bignum.c:299
    5638:	a90153f3 	stp	x19, x20, [sp, #16]
    563c:	aa0003f4 	mov	x20, x0
    5640:	12001c53 	and	w19, w2, #0xff
/home/nk/optee/optee_os/lib/libmbedtls/mbedtls/library/bignum.c:308
    5644:	97ffff2d 	bl	52f8 <mbedtls_mpi_grow>
    5648:	35000240 	cbnz	w0, 5690 <mbedtls_mpi_safe_cond_assign+0x6c>
/home/nk/optee/optee_os/lib/libmbedtls/mbedtls/library/bignum.c:306
    564c:	4b1303e2 	neg	w2, w19
/home/nk/optee/optee_os/lib/libmbedtls/mbedtls/library/bignum.c:310
    5650:	794002a4 	ldrh	w4, [x21]
/home/nk/optee/optee_os/lib/libmbedtls/mbedtls/library/bignum.c:306
    5654:	2a020262 	orr	w2, w19, w2
/home/nk/optee/optee_os/lib/libmbedtls/mbedtls/library/bignum.c:310
    5658:	79400281 	ldrh	w1, [x20]
    565c:	52800023 	mov	w3, #0x1                   	// #1
/home/nk/optee/optee_os/lib/libmbedtls/mbedtls/library/bignum.c:306
    5660:	d3471c42 	ubfx	x2, x2, #7, #1
/home/nk/optee/optee_os/lib/libmbedtls/mbedtls/library/bignum.c:310
    5664:	4b020063 	sub	w3, w3, w2
/home/nk/optee/optee_os/lib/libmbedtls/mbedtls/library/bignum.c:312
    5668:	f94006a8 	ldr	x8, [x21, #8]
/home/nk/optee/optee_os/lib/libmbedtls/mbedtls/library/bignum.c:310
    566c:	1b047c44 	mul	w4, w2, w4
    5670:	1b011061 	madd	w1, w3, w1, w4
    5674:	79000281 	strh	w1, [x20]
/home/nk/optee/optee_os/lib/libmbedtls/mbedtls/library/bignum.c:312
    5678:	d2800001 	mov	x1, #0x0                   	// #0
/home/nk/optee/optee_os/lib/libmbedtls/mbedtls/library/bignum.c:312 (discriminator 1)
    567c:	eb01011f 	cmp	x8, x1
    5680:	54000101 	b.ne	56a0 <mbedtls_mpi_safe_cond_assign+0x7c>  // b.any
/home/nk/optee/optee_os/lib/libmbedtls/mbedtls/library/bignum.c:315
    5684:	f9400686 	ldr	x6, [x20, #8]
/home/nk/optee/optee_os/lib/libmbedtls/mbedtls/library/bignum.c:315 (discriminator 1)
    5688:	eb0100df 	cmp	x6, x1
    568c:	540001e8 	b.hi	56c8 <mbedtls_mpi_safe_cond_assign+0xa4>  // b.pmore
/home/nk/optee/optee_os/lib/libmbedtls/mbedtls/library/bignum.c:320
    5690:	a94153f3 	ldp	x19, x20, [sp, #16]
    5694:	f94013f5 	ldr	x21, [sp, #32]
    5698:	a8c37bfd 	ldp	x29, x30, [sp], #48
    569c:	d65f03c0 	ret
/home/nk/optee/optee_os/lib/libmbedtls/mbedtls/library/bignum.c:313 (discriminator 3)
    56a0:	f9400a87 	ldr	x7, [x20, #16]
    56a4:	d37ef424 	lsl	x4, x1, #2
    56a8:	f9400aa5 	ldr	x5, [x21, #16]
/home/nk/optee/optee_os/lib/libmbedtls/mbedtls/library/bignum.c:312 (discriminator 3)
    56ac:	91000421 	add	x1, x1, #0x1
/home/nk/optee/optee_os/lib/libmbedtls/mbedtls/library/bignum.c:313 (discriminator 3)
    56b0:	b86468e6 	ldr	w6, [x7, x4]
    56b4:	b86468a5 	ldr	w5, [x5, x4]
    56b8:	1b067c66 	mul	w6, w3, w6
    56bc:	1b051845 	madd	w5, w2, w5, w6
    56c0:	b82468e5 	str	w5, [x7, x4]
    56c4:	17ffffee 	b	567c <mbedtls_mpi_safe_cond_assign+0x58>
/home/nk/optee/optee_os/lib/libmbedtls/mbedtls/library/bignum.c:316 (discriminator 2)
    56c8:	f9400a85 	ldr	x5, [x20, #16]
    56cc:	d37ef424 	lsl	x4, x1, #2
/home/nk/optee/optee_os/lib/libmbedtls/mbedtls/library/bignum.c:315 (discriminator 2)
    56d0:	91000421 	add	x1, x1, #0x1
/home/nk/optee/optee_os/lib/libmbedtls/mbedtls/library/bignum.c:316 (discriminator 2)
    56d4:	b86468a2 	ldr	w2, [x5, x4]
    56d8:	1b037c42 	mul	w2, w2, w3
    56dc:	b82468a2 	str	w2, [x5, x4]
    56e0:	17ffffea 	b	5688 <mbedtls_mpi_safe_cond_assign+0x64>

00000000000056e4 <mbedtls_mpi_safe_cond_swap>:
mbedtls_mpi_safe_cond_swap():
/home/nk/optee/optee_os/lib/libmbedtls/mbedtls/library/bignum.c:336
    56e4:	eb01001f 	cmp	x0, x1
    56e8:	54000061 	b.ne	56f4 <mbedtls_mpi_safe_cond_swap+0x10>  // b.any
/home/nk/optee/optee_os/lib/libmbedtls/mbedtls/library/bignum.c:337
    56ec:	52800000 	mov	w0, #0x0                   	// #0
/home/nk/optee/optee_os/lib/libmbedtls/mbedtls/library/bignum.c:359
    56f0:	d65f03c0 	ret
/home/nk/optee/optee_os/lib/libmbedtls/mbedtls/library/bignum.c:329
    56f4:	a9bd7bfd 	stp	x29, x30, [sp, #-48]!
    56f8:	910003fd 	mov	x29, sp
    56fc:	a90153f3 	stp	x19, x20, [sp, #16]
    5700:	aa0103f4 	mov	x20, x1
/home/nk/optee/optee_os/lib/libmbedtls/mbedtls/library/bignum.c:340
    5704:	12001c53 	and	w19, w2, #0xff
/home/nk/optee/optee_os/lib/libmbedtls/mbedtls/library/bignum.c:342
    5708:	f9400421 	ldr	x1, [x1, #8]
/home/nk/optee/optee_os/lib/libmbedtls/mbedtls/library/bignum.c:329
    570c:	f90013f5 	str	x21, [sp, #32]
    5710:	aa0003f5 	mov	x21, x0
/home/nk/optee/optee_os/lib/libmbedtls/mbedtls/library/bignum.c:342
    5714:	97fffef9 	bl	52f8 <mbedtls_mpi_grow>
    5718:	35000340 	cbnz	w0, 5780 <mbedtls_mpi_safe_cond_swap+0x9c>
/home/nk/optee/optee_os/lib/libmbedtls/mbedtls/library/bignum.c:343
    571c:	f94006a1 	ldr	x1, [x21, #8]
    5720:	aa1403e0 	mov	x0, x20
    5724:	97fffef5 	bl	52f8 <mbedtls_mpi_grow>
    5728:	350002c0 	cbnz	w0, 5780 <mbedtls_mpi_safe_cond_swap+0x9c>
/home/nk/optee/optee_os/lib/libmbedtls/mbedtls/library/bignum.c:340
    572c:	4b1303e2 	neg	w2, w19
/home/nk/optee/optee_os/lib/libmbedtls/mbedtls/library/bignum.c:346
    5730:	794002a3 	ldrh	w3, [x21]
/home/nk/optee/optee_os/lib/libmbedtls/mbedtls/library/bignum.c:340
    5734:	2a020262 	orr	w2, w19, w2
/home/nk/optee/optee_os/lib/libmbedtls/mbedtls/library/bignum.c:346
    5738:	52800020 	mov	w0, #0x1                   	// #1
    573c:	79400284 	ldrh	w4, [x20]
/home/nk/optee/optee_os/lib/libmbedtls/mbedtls/library/bignum.c:340
    5740:	d3471c42 	ubfx	x2, x2, #7, #1
/home/nk/optee/optee_os/lib/libmbedtls/mbedtls/library/bignum.c:346
    5744:	4b020000 	sub	w0, w0, w2
    5748:	12003c45 	and	w5, w2, #0xffff
    574c:	12003c01 	and	w1, w0, #0xffff
/home/nk/optee/optee_os/lib/libmbedtls/mbedtls/library/bignum.c:350
    5750:	f94006a8 	ldr	x8, [x21, #8]
/home/nk/optee/optee_os/lib/libmbedtls/mbedtls/library/bignum.c:346
    5754:	1b017c66 	mul	w6, w3, w1
    5758:	1b0418a4 	madd	w4, w5, w4, w6
    575c:	790002a4 	strh	w4, [x21]
/home/nk/optee/optee_os/lib/libmbedtls/mbedtls/library/bignum.c:347
    5760:	1b057c63 	mul	w3, w3, w5
    5764:	79400284 	ldrh	w4, [x20]
    5768:	1b040c21 	madd	w1, w1, w4, w3
/home/nk/optee/optee_os/lib/libmbedtls/mbedtls/library/bignum.c:350
    576c:	d2800003 	mov	x3, #0x0                   	// #0
/home/nk/optee/optee_os/lib/libmbedtls/mbedtls/library/bignum.c:347
    5770:	79000281 	strh	w1, [x20]
/home/nk/optee/optee_os/lib/libmbedtls/mbedtls/library/bignum.c:350 (discriminator 1)
    5774:	eb03011f 	cmp	x8, x3
    5778:	540000c1 	b.ne	5790 <mbedtls_mpi_safe_cond_swap+0xac>  // b.any
/home/nk/optee/optee_os/lib/libmbedtls/mbedtls/library/bignum.c:337
    577c:	52800000 	mov	w0, #0x0                   	// #0
/home/nk/optee/optee_os/lib/libmbedtls/mbedtls/library/bignum.c:359
    5780:	a94153f3 	ldp	x19, x20, [sp, #16]
    5784:	f94013f5 	ldr	x21, [sp, #32]
    5788:	a8c37bfd 	ldp	x29, x30, [sp], #48
    578c:	d65f03c0 	ret
/home/nk/optee/optee_os/lib/libmbedtls/mbedtls/library/bignum.c:352 (discriminator 3)
    5790:	f9400aa7 	ldr	x7, [x21, #16]
    5794:	d37ef461 	lsl	x1, x3, #2
/home/nk/optee/optee_os/lib/libmbedtls/mbedtls/library/bignum.c:353 (discriminator 3)
    5798:	f9400a85 	ldr	x5, [x20, #16]
/home/nk/optee/optee_os/lib/libmbedtls/mbedtls/library/bignum.c:350 (discriminator 3)
    579c:	91000463 	add	x3, x3, #0x1
/home/nk/optee/optee_os/lib/libmbedtls/mbedtls/library/bignum.c:352 (discriminator 3)
    57a0:	b86168e4 	ldr	w4, [x7, x1]
/home/nk/optee/optee_os/lib/libmbedtls/mbedtls/library/bignum.c:353 (discriminator 3)
    57a4:	b86168a6 	ldr	w6, [x5, x1]
    57a8:	1b047c09 	mul	w9, w0, w4
/home/nk/optee/optee_os/lib/libmbedtls/mbedtls/library/bignum.c:354 (discriminator 3)
    57ac:	1b047c44 	mul	w4, w2, w4
/home/nk/optee/optee_os/lib/libmbedtls/mbedtls/library/bignum.c:353 (discriminator 3)
    57b0:	1b062446 	madd	w6, w2, w6, w9
    57b4:	b82168e6 	str	w6, [x7, x1]
/home/nk/optee/optee_os/lib/libmbedtls/mbedtls/library/bignum.c:354 (discriminator 3)
    57b8:	b86168a6 	ldr	w6, [x5, x1]
    57bc:	1b061004 	madd	w4, w0, w6, w4
    57c0:	b82168a4 	str	w4, [x5, x1]
    57c4:	17ffffec 	b	5774 <mbedtls_mpi_safe_cond_swap+0x90>

00000000000057c8 <mbedtls_mpi_lset>:
mbedtls_mpi_lset():
/home/nk/optee/optee_os/lib/libmbedtls/mbedtls/library/bignum.c:365
    57c8:	a9bd7bfd 	stp	x29, x30, [sp, #-48]!
    57cc:	910003fd 	mov	x29, sp
    57d0:	a90153f3 	stp	x19, x20, [sp, #16]
    57d4:	aa0003f3 	mov	x19, x0
    57d8:	2a0103f4 	mov	w20, w1
/home/nk/optee/optee_os/lib/libmbedtls/mbedtls/library/bignum.c:369
    57dc:	d2800021 	mov	x1, #0x1                   	// #1
/home/nk/optee/optee_os/lib/libmbedtls/mbedtls/library/bignum.c:365
    57e0:	f90013f5 	str	x21, [sp, #32]
/home/nk/optee/optee_os/lib/libmbedtls/mbedtls/library/bignum.c:369
    57e4:	97fffec5 	bl	52f8 <mbedtls_mpi_grow>
    57e8:	2a0003f5 	mov	w21, w0
    57ec:	35000180 	cbnz	w0, 581c <mbedtls_mpi_lset+0x54>
/home/nk/optee/optee_os/lib/libmbedtls/mbedtls/library/bignum.c:370
    57f0:	a9408262 	ldp	x2, x0, [x19, #8]
    57f4:	52800001 	mov	w1, #0x0                   	// #0
    57f8:	d37ef442 	lsl	x2, x2, #2
    57fc:	94000fe2 	bl	9784 <memset>
/home/nk/optee/optee_os/lib/libmbedtls/mbedtls/library/bignum.c:372
    5800:	f9400a60 	ldr	x0, [x19, #16]
    5804:	7100029f 	cmp	w20, #0x0
    5808:	5a94a681 	cneg	w1, w20, lt  // lt = tstop
    580c:	b9000001 	str	w1, [x0]
/home/nk/optee/optee_os/lib/libmbedtls/mbedtls/library/bignum.c:373
    5810:	52800020 	mov	w0, #0x1                   	// #1
    5814:	5a80a400 	cneg	w0, w0, lt  // lt = tstop
    5818:	79000260 	strh	w0, [x19]
/home/nk/optee/optee_os/lib/libmbedtls/mbedtls/library/bignum.c:378
    581c:	2a1503e0 	mov	w0, w21
    5820:	a94153f3 	ldp	x19, x20, [sp, #16]
    5824:	f94013f5 	ldr	x21, [sp, #32]
    5828:	a8c37bfd 	ldp	x29, x30, [sp], #48
    582c:	d65f03c0 	ret

0000000000005830 <mbedtls_mpi_get_bit>:
mbedtls_mpi_get_bit():
/home/nk/optee/optee_os/lib/libmbedtls/mbedtls/library/bignum.c:387
    5830:	f9400402 	ldr	x2, [x0, #8]
    5834:	eb02143f 	cmp	x1, x2, lsl #5
    5838:	540000e2 	b.cs	5854 <mbedtls_mpi_get_bit+0x24>  // b.hs, b.nlast
/home/nk/optee/optee_os/lib/libmbedtls/mbedtls/library/bignum.c:390
    583c:	f9400800 	ldr	x0, [x0, #16]
    5840:	d345fc22 	lsr	x2, x1, #5
    5844:	b8627800 	ldr	w0, [x0, x2, lsl #2]
    5848:	1ac12400 	lsr	w0, w0, w1
    584c:	12000000 	and	w0, w0, #0x1
/home/nk/optee/optee_os/lib/libmbedtls/mbedtls/library/bignum.c:391
    5850:	d65f03c0 	ret
/home/nk/optee/optee_os/lib/libmbedtls/mbedtls/library/bignum.c:388
    5854:	52800000 	mov	w0, #0x0                   	// #0
    5858:	17fffffe 	b	5850 <mbedtls_mpi_get_bit+0x20>

000000000000585c <mbedtls_mpi_set_bit>:
mbedtls_mpi_set_bit():
/home/nk/optee/optee_os/lib/libmbedtls/mbedtls/library/bignum.c:401
    585c:	a9bd7bfd 	stp	x29, x30, [sp, #-48]!
    5860:	910003fd 	mov	x29, sp
    5864:	a90153f3 	stp	x19, x20, [sp, #16]
    5868:	a9025bf5 	stp	x21, x22, [sp, #32]
    586c:	12001c55 	and	w21, w2, #0xff
/home/nk/optee/optee_os/lib/libmbedtls/mbedtls/library/bignum.c:407
    5870:	710006bf 	cmp	w21, #0x1
    5874:	54000368 	b.hi	58e0 <mbedtls_mpi_set_bit+0x84>  // b.pmore
    5878:	aa0103f3 	mov	x19, x1
/home/nk/optee/optee_os/lib/libmbedtls/mbedtls/library/bignum.c:410
    587c:	d345fc34 	lsr	x20, x1, #5
    5880:	f9400401 	ldr	x1, [x0, #8]
    5884:	aa0003f6 	mov	x22, x0
    5888:	eb01167f 	cmp	x19, x1, lsl #5
    588c:	540001a2 	b.cs	58c0 <mbedtls_mpi_set_bit+0x64>  // b.hs, b.nlast
/home/nk/optee/optee_os/lib/libmbedtls/mbedtls/library/bignum.c:418
    5890:	f9400ac3 	ldr	x3, [x22, #16]
    5894:	d37ef694 	lsl	x20, x20, #2
/home/nk/optee/optee_os/lib/libmbedtls/mbedtls/library/bignum.c:404
    5898:	92401273 	and	x19, x19, #0x1f
/home/nk/optee/optee_os/lib/libmbedtls/mbedtls/library/bignum.c:418
    589c:	52800020 	mov	w0, #0x1                   	// #1
    58a0:	1ad32001 	lsl	w1, w0, w19
    58a4:	b8746860 	ldr	w0, [x3, x20]
/home/nk/optee/optee_os/lib/libmbedtls/mbedtls/library/bignum.c:419
    58a8:	1ad322b3 	lsl	w19, w21, w19
/home/nk/optee/optee_os/lib/libmbedtls/mbedtls/library/bignum.c:418
    58ac:	0a210000 	bic	w0, w0, w1
/home/nk/optee/optee_os/lib/libmbedtls/mbedtls/library/bignum.c:419
    58b0:	2a130000 	orr	w0, w0, w19
    58b4:	b8346860 	str	w0, [x3, x20]
/home/nk/optee/optee_os/lib/libmbedtls/mbedtls/library/bignum.c:413
    58b8:	52800000 	mov	w0, #0x0                   	// #0
    58bc:	14000005 	b	58d0 <mbedtls_mpi_set_bit+0x74>
/home/nk/optee/optee_os/lib/libmbedtls/mbedtls/library/bignum.c:412
    58c0:	34ffffd5 	cbz	w21, 58b8 <mbedtls_mpi_set_bit+0x5c>
/home/nk/optee/optee_os/lib/libmbedtls/mbedtls/library/bignum.c:415
    58c4:	91000681 	add	x1, x20, #0x1
    58c8:	97fffe8c 	bl	52f8 <mbedtls_mpi_grow>
    58cc:	34fffe20 	cbz	w0, 5890 <mbedtls_mpi_set_bit+0x34>
/home/nk/optee/optee_os/lib/libmbedtls/mbedtls/library/bignum.c:424
    58d0:	a94153f3 	ldp	x19, x20, [sp, #16]
    58d4:	a9425bf5 	ldp	x21, x22, [sp, #32]
    58d8:	a8c37bfd 	ldp	x29, x30, [sp], #48
    58dc:	d65f03c0 	ret
/home/nk/optee/optee_os/lib/libmbedtls/mbedtls/library/bignum.c:408
    58e0:	12800060 	mov	w0, #0xfffffffc            	// #-4
    58e4:	17fffffb 	b	58d0 <mbedtls_mpi_set_bit+0x74>

00000000000058e8 <mbedtls_mpi_lsb>:
mbedtls_mpi_lsb():
/home/nk/optee/optee_os/lib/libmbedtls/mbedtls/library/bignum.c:434
    58e8:	f9400405 	ldr	x5, [x0, #8]
/home/nk/optee/optee_os/lib/libmbedtls/mbedtls/library/bignum.c:430
    58ec:	aa0003e4 	mov	x4, x0
/home/nk/optee/optee_os/lib/libmbedtls/mbedtls/library/bignum.c:431
    58f0:	d2800003 	mov	x3, #0x0                   	// #0
/home/nk/optee/optee_os/lib/libmbedtls/mbedtls/library/bignum.c:434
    58f4:	d2800002 	mov	x2, #0x0                   	// #0
/home/nk/optee/optee_os/lib/libmbedtls/mbedtls/library/bignum.c:434 (discriminator 1)
    58f8:	eb0200bf 	cmp	x5, x2
    58fc:	54000061 	b.ne	5908 <mbedtls_mpi_lsb+0x20>  // b.any
/home/nk/optee/optee_os/lib/libmbedtls/mbedtls/library/bignum.c:439
    5900:	d2800000 	mov	x0, #0x0                   	// #0
/home/nk/optee/optee_os/lib/libmbedtls/mbedtls/library/bignum.c:440
    5904:	d65f03c0 	ret
/home/nk/optee/optee_os/lib/libmbedtls/mbedtls/library/bignum.c:436
    5908:	f9400880 	ldr	x0, [x4, #16]
/home/nk/optee/optee_os/lib/libmbedtls/mbedtls/library/bignum.c:435
    590c:	d2800001 	mov	x1, #0x0                   	// #0
/home/nk/optee/optee_os/lib/libmbedtls/mbedtls/library/bignum.c:436
    5910:	b8627806 	ldr	w6, [x0, x2, lsl #2]
    5914:	8b010060 	add	x0, x3, x1
    5918:	1ac124c7 	lsr	w7, w6, w1
    591c:	3707ff47 	tbnz	w7, #0, 5904 <mbedtls_mpi_lsb+0x1c>
/home/nk/optee/optee_os/lib/libmbedtls/mbedtls/library/bignum.c:435 (discriminator 2)
    5920:	91000421 	add	x1, x1, #0x1
    5924:	8b010060 	add	x0, x3, x1
    5928:	f100803f 	cmp	x1, #0x20
    592c:	54ffff41 	b.ne	5914 <mbedtls_mpi_lsb+0x2c>  // b.any
/home/nk/optee/optee_os/lib/libmbedtls/mbedtls/library/bignum.c:434 (discriminator 2)
    5930:	91000442 	add	x2, x2, #0x1
/home/nk/optee/optee_os/lib/libmbedtls/mbedtls/library/bignum.c:435 (discriminator 2)
    5934:	aa0003e3 	mov	x3, x0
    5938:	17fffff0 	b	58f8 <mbedtls_mpi_lsb+0x10>

000000000000593c <mbedtls_mpi_bitlen>:
mbedtls_mpi_bitlen():
/home/nk/optee/optee_os/lib/libmbedtls/mbedtls/library/bignum.c:467
    593c:	f9400401 	ldr	x1, [x0, #8]
    5940:	b4000201 	cbz	x1, 5980 <mbedtls_mpi_bitlen+0x44>
/home/nk/optee/optee_os/lib/libmbedtls/mbedtls/library/bignum.c:470
    5944:	f9400800 	ldr	x0, [x0, #16]
    5948:	d1000421 	sub	x1, x1, #0x1
/home/nk/optee/optee_os/lib/libmbedtls/mbedtls/library/bignum.c:470 (discriminator 1)
    594c:	b50001e1 	cbnz	x1, 5988 <mbedtls_mpi_bitlen+0x4c>
/home/nk/optee/optee_os/lib/libmbedtls/mbedtls/library/bignum.c:474
    5950:	b8617803 	ldr	w3, [x0, x1, lsl #2]
mbedtls_clz():
/home/nk/optee/optee_os/lib/libmbedtls/mbedtls/library/bignum.c:448
    5954:	52b00002 	mov	w2, #0x80000000            	// #-2147483648
/home/nk/optee/optee_os/lib/libmbedtls/mbedtls/library/bignum.c:450
    5958:	d2800000 	mov	x0, #0x0                   	// #0
/home/nk/optee/optee_os/lib/libmbedtls/mbedtls/library/bignum.c:452
    595c:	6a02007f 	tst	w3, w2
    5960:	540000a1 	b.ne	5974 <mbedtls_mpi_bitlen+0x38>  // b.any
/home/nk/optee/optee_os/lib/libmbedtls/mbedtls/library/bignum.c:450
    5964:	91000400 	add	x0, x0, #0x1
/home/nk/optee/optee_os/lib/libmbedtls/mbedtls/library/bignum.c:454
    5968:	53017c42 	lsr	w2, w2, #1
/home/nk/optee/optee_os/lib/libmbedtls/mbedtls/library/bignum.c:450
    596c:	f100801f 	cmp	x0, #0x20
    5970:	54ffff61 	b.ne	595c <mbedtls_mpi_bitlen+0x20>  // b.any
mbedtls_mpi_bitlen():
/home/nk/optee/optee_os/lib/libmbedtls/mbedtls/library/bignum.c:476
    5974:	91000421 	add	x1, x1, #0x1
    5978:	d37be821 	lsl	x1, x1, #5
    597c:	cb000021 	sub	x1, x1, x0
/home/nk/optee/optee_os/lib/libmbedtls/mbedtls/library/bignum.c:477
    5980:	aa0103e0 	mov	x0, x1
    5984:	d65f03c0 	ret
/home/nk/optee/optee_os/lib/libmbedtls/mbedtls/library/bignum.c:471
    5988:	b8617802 	ldr	w2, [x0, x1, lsl #2]
    598c:	35fffe22 	cbnz	w2, 5950 <mbedtls_mpi_bitlen+0x14>
/home/nk/optee/optee_os/lib/libmbedtls/mbedtls/library/bignum.c:470 (discriminator 2)
    5990:	d1000421 	sub	x1, x1, #0x1
    5994:	17ffffee 	b	594c <mbedtls_mpi_bitlen+0x10>

0000000000005998 <mbedtls_mpi_size>:
mbedtls_mpi_size():
/home/nk/optee/optee_os/lib/libmbedtls/mbedtls/library/bignum.c:483
    5998:	a9bf7bfd 	stp	x29, x30, [sp, #-16]!
    599c:	910003fd 	mov	x29, sp
/home/nk/optee/optee_os/lib/libmbedtls/mbedtls/library/bignum.c:484
    59a0:	97ffffe7 	bl	593c <mbedtls_mpi_bitlen>
    59a4:	91001c00 	add	x0, x0, #0x7
/home/nk/optee/optee_os/lib/libmbedtls/mbedtls/library/bignum.c:485
    59a8:	a8c17bfd 	ldp	x29, x30, [sp], #16
    59ac:	d343fc00 	lsr	x0, x0, #3
    59b0:	d65f03c0 	ret

00000000000059b4 <mbedtls_mpi_read_binary_le>:
mbedtls_mpi_read_binary_le():
/home/nk/optee/optee_os/lib/libmbedtls/mbedtls/library/bignum.c:883
    59b4:	a9bd7bfd 	stp	x29, x30, [sp, #-48]!
/home/nk/optee/optee_os/lib/libmbedtls/mbedtls/library/bignum.c:886
    59b8:	f240045f 	tst	x2, #0x3
/home/nk/optee/optee_os/lib/libmbedtls/mbedtls/library/bignum.c:883
    59bc:	910003fd 	mov	x29, sp
    59c0:	a9025bf5 	stp	x21, x22, [sp, #32]
    59c4:	aa0103f6 	mov	x22, x1
    59c8:	aa0203f5 	mov	x21, x2
/home/nk/optee/optee_os/lib/libmbedtls/mbedtls/library/bignum.c:889
    59cc:	f9400401 	ldr	x1, [x0, #8]
/home/nk/optee/optee_os/lib/libmbedtls/mbedtls/library/bignum.c:883
    59d0:	a90153f3 	stp	x19, x20, [sp, #16]
/home/nk/optee/optee_os/lib/libmbedtls/mbedtls/library/bignum.c:886
    59d4:	d342fc54 	lsr	x20, x2, #2
    59d8:	9a940694 	cinc	x20, x20, ne  // ne = any
/home/nk/optee/optee_os/lib/libmbedtls/mbedtls/library/bignum.c:883
    59dc:	aa0003f3 	mov	x19, x0
/home/nk/optee/optee_os/lib/libmbedtls/mbedtls/library/bignum.c:889
    59e0:	eb14003f 	cmp	x1, x20
    59e4:	54000241 	b.ne	5a2c <mbedtls_mpi_read_binary_le+0x78>  // b.any
/home/nk/optee/optee_os/lib/libmbedtls/mbedtls/library/bignum.c:896
    59e8:	52800001 	mov	w1, #0x0                   	// #0
    59ec:	aa1303e0 	mov	x0, x19
    59f0:	97ffff76 	bl	57c8 <mbedtls_mpi_lset>
    59f4:	350002a0 	cbnz	w0, 5a48 <mbedtls_mpi_read_binary_le+0x94>
/home/nk/optee/optee_os/lib/libmbedtls/mbedtls/library/bignum.c:898
    59f8:	d2800001 	mov	x1, #0x0                   	// #0
/home/nk/optee/optee_os/lib/libmbedtls/mbedtls/library/bignum.c:898 (discriminator 1)
    59fc:	eb15003f 	cmp	x1, x21
    5a00:	54000240 	b.eq	5a48 <mbedtls_mpi_read_binary_le+0x94>  // b.none
/home/nk/optee/optee_os/lib/libmbedtls/mbedtls/library/bignum.c:899 (discriminator 3)
    5a04:	f9400a65 	ldr	x5, [x19, #16]
    5a08:	927ef424 	and	x4, x1, #0xfffffffffffffffc
    5a0c:	38616ac2 	ldrb	w2, [x22, x1]
    5a10:	531d0423 	ubfiz	w3, w1, #3, #2
/home/nk/optee/optee_os/lib/libmbedtls/mbedtls/library/bignum.c:898 (discriminator 3)
    5a14:	91000421 	add	x1, x1, #0x1
/home/nk/optee/optee_os/lib/libmbedtls/mbedtls/library/bignum.c:899 (discriminator 3)
    5a18:	1ac32043 	lsl	w3, w2, w3
    5a1c:	b86468a2 	ldr	w2, [x5, x4]
    5a20:	2a030042 	orr	w2, w2, w3
    5a24:	b82468a2 	str	w2, [x5, x4]
    5a28:	17fffff5 	b	59fc <mbedtls_mpi_read_binary_le+0x48>
/home/nk/optee/optee_os/lib/libmbedtls/mbedtls/library/bignum.c:891
    5a2c:	97fffe18 	bl	528c <mbedtls_mpi_free>
/home/nk/optee/optee_os/lib/libmbedtls/mbedtls/library/bignum.c:892
    5a30:	aa1303e0 	mov	x0, x19
    5a34:	97fffe08 	bl	5254 <mbedtls_mpi_init>
/home/nk/optee/optee_os/lib/libmbedtls/mbedtls/library/bignum.c:893
    5a38:	aa1403e1 	mov	x1, x20
    5a3c:	aa1303e0 	mov	x0, x19
    5a40:	97fffe2e 	bl	52f8 <mbedtls_mpi_grow>
    5a44:	34fffd20 	cbz	w0, 59e8 <mbedtls_mpi_read_binary_le+0x34>
/home/nk/optee/optee_os/lib/libmbedtls/mbedtls/library/bignum.c:909
    5a48:	a94153f3 	ldp	x19, x20, [sp, #16]
    5a4c:	a9425bf5 	ldp	x21, x22, [sp, #32]
    5a50:	a8c37bfd 	ldp	x29, x30, [sp], #48
    5a54:	d65f03c0 	ret

0000000000005a58 <mbedtls_mpi_read_binary>:
mbedtls_mpi_read_binary():
/home/nk/optee/optee_os/lib/libmbedtls/mbedtls/library/bignum.c:915
    5a58:	a9bc7bfd 	stp	x29, x30, [sp, #-64]!
/home/nk/optee/optee_os/lib/libmbedtls/mbedtls/library/bignum.c:917
    5a5c:	f240045f 	tst	x2, #0x3
/home/nk/optee/optee_os/lib/libmbedtls/mbedtls/library/bignum.c:915
    5a60:	910003fd 	mov	x29, sp
    5a64:	f9001bf7 	str	x23, [sp, #48]
    5a68:	aa0103f7 	mov	x23, x1
/home/nk/optee/optee_os/lib/libmbedtls/mbedtls/library/bignum.c:925
    5a6c:	f9400401 	ldr	x1, [x0, #8]
/home/nk/optee/optee_os/lib/libmbedtls/mbedtls/library/bignum.c:915
    5a70:	a90153f3 	stp	x19, x20, [sp, #16]
/home/nk/optee/optee_os/lib/libmbedtls/mbedtls/library/bignum.c:917
    5a74:	d342fc54 	lsr	x20, x2, #2
/home/nk/optee/optee_os/lib/libmbedtls/mbedtls/library/bignum.c:915
    5a78:	a9025bf5 	stp	x21, x22, [sp, #32]
/home/nk/optee/optee_os/lib/libmbedtls/mbedtls/library/bignum.c:917
    5a7c:	9a940694 	cinc	x20, x20, ne  // ne = any
/home/nk/optee/optee_os/lib/libmbedtls/mbedtls/library/bignum.c:915
    5a80:	aa0003f3 	mov	x19, x0
    5a84:	aa0203f6 	mov	x22, x2
/home/nk/optee/optee_os/lib/libmbedtls/mbedtls/library/bignum.c:925
    5a88:	eb14003f 	cmp	x1, x20
    5a8c:	54000181 	b.ne	5abc <mbedtls_mpi_read_binary+0x64>  // b.any
/home/nk/optee/optee_os/lib/libmbedtls/mbedtls/library/bignum.c:933
    5a90:	52800001 	mov	w1, #0x0                   	// #0
    5a94:	aa1303e0 	mov	x0, x19
    5a98:	97ffff4c 	bl	57c8 <mbedtls_mpi_lset>
    5a9c:	2a0003f5 	mov	w21, w0
    5aa0:	34000260 	cbz	w0, 5aec <mbedtls_mpi_read_binary+0x94>
/home/nk/optee/optee_os/lib/libmbedtls/mbedtls/library/bignum.c:953
    5aa4:	2a1503e0 	mov	w0, w21
    5aa8:	a94153f3 	ldp	x19, x20, [sp, #16]
    5aac:	a9425bf5 	ldp	x21, x22, [sp, #32]
    5ab0:	f9401bf7 	ldr	x23, [sp, #48]
    5ab4:	a8c47bfd 	ldp	x29, x30, [sp], #64
    5ab8:	d65f03c0 	ret
/home/nk/optee/optee_os/lib/libmbedtls/mbedtls/library/bignum.c:927
    5abc:	79c00415 	ldrsh	w21, [x0, #2]
/home/nk/optee/optee_os/lib/libmbedtls/mbedtls/library/bignum.c:929
    5ac0:	97fffdf3 	bl	528c <mbedtls_mpi_free>
mpi_init():
/home/nk/optee/optee_os/lib/libmbedtls/mbedtls/library/bignum.c:99
    5ac4:	52800020 	mov	w0, #0x1                   	// #1
    5ac8:	79000260 	strh	w0, [x19]
/home/nk/optee/optee_os/lib/libmbedtls/mbedtls/library/bignum.c:100
    5acc:	79000675 	strh	w21, [x19, #2]
mbedtls_mpi_read_binary():
/home/nk/optee/optee_os/lib/libmbedtls/mbedtls/library/bignum.c:931
    5ad0:	aa1403e1 	mov	x1, x20
mpi_init():
/home/nk/optee/optee_os/lib/libmbedtls/mbedtls/library/bignum.c:102
    5ad4:	a900fe7f 	stp	xzr, xzr, [x19, #8]
mbedtls_mpi_read_binary():
/home/nk/optee/optee_os/lib/libmbedtls/mbedtls/library/bignum.c:931
    5ad8:	aa1303e0 	mov	x0, x19
    5adc:	97fffe07 	bl	52f8 <mbedtls_mpi_grow>
    5ae0:	2a0003f5 	mov	w21, w0
    5ae4:	34fffd60 	cbz	w0, 5a90 <mbedtls_mpi_read_binary+0x38>
    5ae8:	17ffffef 	b	5aa4 <mbedtls_mpi_read_binary+0x4c>
/home/nk/optee/optee_os/lib/libmbedtls/mbedtls/library/bignum.c:937
    5aec:	b4fffdd7 	cbz	x23, 5aa4 <mbedtls_mpi_read_binary+0x4c>
/home/nk/optee/optee_os/lib/libmbedtls/mbedtls/library/bignum.c:940
    5af0:	f9400a63 	ldr	x3, [x19, #16]
/home/nk/optee/optee_os/lib/libmbedtls/mbedtls/library/bignum.c:918
    5af4:	d37ef680 	lsl	x0, x20, #2
    5af8:	cb160000 	sub	x0, x0, x22
/home/nk/optee/optee_os/lib/libmbedtls/mbedtls/library/bignum.c:940
    5afc:	aa1603e2 	mov	x2, x22
    5b00:	aa1703e1 	mov	x1, x23
    5b04:	8b000060 	add	x0, x3, x0
    5b08:	97ffe946 	bl	20 <memcpy>
mpi_bigendian_to_host():
/home/nk/optee/optee_os/lib/libmbedtls/mbedtls/library/bignum.c:853
    5b0c:	b4fffcd4 	cbz	x20, 5aa4 <mbedtls_mpi_read_binary+0x4c>
    5b10:	f9400a60 	ldr	x0, [x19, #16]
    5b14:	aa1403e1 	mov	x1, x20
    5b18:	97fffdb2 	bl	51e0 <mpi_bigendian_to_host.part.0>
mbedtls_mpi_read_binary():
/home/nk/optee/optee_os/lib/libmbedtls/mbedtls/library/bignum.c:952
    5b1c:	17ffffe2 	b	5aa4 <mbedtls_mpi_read_binary+0x4c>

0000000000005b20 <mbedtls_mpi_write_binary_le>:
mbedtls_mpi_write_binary_le():
/home/nk/optee/optee_os/lib/libmbedtls/mbedtls/library/bignum.c:961
    5b20:	f9400403 	ldr	x3, [x0, #8]
    5b24:	d37ef463 	lsl	x3, x3, #2
/home/nk/optee/optee_os/lib/libmbedtls/mbedtls/library/bignum.c:965
    5b28:	eb02007f 	cmp	x3, x2
    5b2c:	540003a3 	b.cc	5ba0 <mbedtls_mpi_write_binary_le+0x80>  // b.lo, b.ul, b.last
    5b30:	aa0203e4 	mov	x4, x2
/home/nk/optee/optee_os/lib/libmbedtls/mbedtls/library/bignum.c:975 (discriminator 1)
    5b34:	eb03009f 	cmp	x4, x3
    5b38:	54000221 	b.ne	5b7c <mbedtls_mpi_write_binary_le+0x5c>  // b.any
    5b3c:	aa0203e6 	mov	x6, x2
/home/nk/optee/optee_os/lib/libmbedtls/mbedtls/library/bignum.c:982
    5b40:	d2800004 	mov	x4, #0x0                   	// #0
/home/nk/optee/optee_os/lib/libmbedtls/mbedtls/library/bignum.c:982 (discriminator 1)
    5b44:	eb0400df 	cmp	x6, x4
    5b48:	54000301 	b.ne	5ba8 <mbedtls_mpi_write_binary_le+0x88>  // b.any
/home/nk/optee/optee_os/lib/libmbedtls/mbedtls/library/bignum.c:985
    5b4c:	eb02007f 	cmp	x3, x2
    5b50:	54000402 	b.cs	5bd0 <mbedtls_mpi_write_binary_le+0xb0>  // b.hs, b.nlast
/home/nk/optee/optee_os/lib/libmbedtls/mbedtls/library/bignum.c:960
    5b54:	a9bf7bfd 	stp	x29, x30, [sp, #-16]!
    5b58:	aa0103e0 	mov	x0, x1
/home/nk/optee/optee_os/lib/libmbedtls/mbedtls/library/bignum.c:988
    5b5c:	cb030042 	sub	x2, x2, x3
/home/nk/optee/optee_os/lib/libmbedtls/mbedtls/library/bignum.c:960
    5b60:	910003fd 	mov	x29, sp
/home/nk/optee/optee_os/lib/libmbedtls/mbedtls/library/bignum.c:988
    5b64:	52800001 	mov	w1, #0x0                   	// #0
    5b68:	8b030000 	add	x0, x0, x3
    5b6c:	94000f06 	bl	9784 <memset>
/home/nk/optee/optee_os/lib/libmbedtls/mbedtls/library/bignum.c:991
    5b70:	52800000 	mov	w0, #0x0                   	// #0
/home/nk/optee/optee_os/lib/libmbedtls/mbedtls/library/bignum.c:992
    5b74:	a8c17bfd 	ldp	x29, x30, [sp], #16
    5b78:	d65f03c0 	ret
/home/nk/optee/optee_os/lib/libmbedtls/mbedtls/library/bignum.c:977
    5b7c:	f9400807 	ldr	x7, [x0, #16]
    5b80:	927ef486 	and	x6, x4, #0xfffffffffffffffc
    5b84:	531d0485 	ubfiz	w5, w4, #3, #2
    5b88:	b86668e6 	ldr	w6, [x7, x6]
    5b8c:	1ac524c5 	lsr	w5, w6, w5
    5b90:	12001ca5 	and	w5, w5, #0xff
    5b94:	350001a5 	cbnz	w5, 5bc8 <mbedtls_mpi_write_binary_le+0xa8>
/home/nk/optee/optee_os/lib/libmbedtls/mbedtls/library/bignum.c:975 (discriminator 2)
    5b98:	91000484 	add	x4, x4, #0x1
    5b9c:	17ffffe6 	b	5b34 <mbedtls_mpi_write_binary_le+0x14>
    5ba0:	aa0303e6 	mov	x6, x3
    5ba4:	17ffffe7 	b	5b40 <mbedtls_mpi_write_binary_le+0x20>
/home/nk/optee/optee_os/lib/libmbedtls/mbedtls/library/bignum.c:983 (discriminator 3)
    5ba8:	f9400808 	ldr	x8, [x0, #16]
    5bac:	927ef485 	and	x5, x4, #0xfffffffffffffffc
    5bb0:	531d0487 	ubfiz	w7, w4, #3, #2
    5bb4:	b8656905 	ldr	w5, [x8, x5]
    5bb8:	1ac724a5 	lsr	w5, w5, w7
    5bbc:	38246825 	strb	w5, [x1, x4]
/home/nk/optee/optee_os/lib/libmbedtls/mbedtls/library/bignum.c:982 (discriminator 3)
    5bc0:	91000484 	add	x4, x4, #0x1
    5bc4:	17ffffe0 	b	5b44 <mbedtls_mpi_write_binary_le+0x24>
/home/nk/optee/optee_os/lib/libmbedtls/mbedtls/library/bignum.c:978
    5bc8:	128000e0 	mov	w0, #0xfffffff8            	// #-8
    5bcc:	d65f03c0 	ret
/home/nk/optee/optee_os/lib/libmbedtls/mbedtls/library/bignum.c:991
    5bd0:	52800000 	mov	w0, #0x0                   	// #0
/home/nk/optee/optee_os/lib/libmbedtls/mbedtls/library/bignum.c:992
    5bd4:	d65f03c0 	ret

0000000000005bd8 <mbedtls_mpi_write_binary>:
mbedtls_mpi_write_binary():
/home/nk/optee/optee_os/lib/libmbedtls/mbedtls/library/bignum.c:999
    5bd8:	a9bd7bfd 	stp	x29, x30, [sp, #-48]!
    5bdc:	910003fd 	mov	x29, sp
    5be0:	a90153f3 	stp	x19, x20, [sp, #16]
    5be4:	aa0003f4 	mov	x20, x0
    5be8:	aa0103e0 	mov	x0, x1
/home/nk/optee/optee_os/lib/libmbedtls/mbedtls/library/bignum.c:1008
    5bec:	f9400693 	ldr	x19, [x20, #8]
/home/nk/optee/optee_os/lib/libmbedtls/mbedtls/library/bignum.c:999
    5bf0:	f90013f5 	str	x21, [sp, #32]
/home/nk/optee/optee_os/lib/libmbedtls/mbedtls/library/bignum.c:1008
    5bf4:	d37ef673 	lsl	x19, x19, #2
/home/nk/optee/optee_os/lib/libmbedtls/mbedtls/library/bignum.c:1010
    5bf8:	eb02027f 	cmp	x19, x2
    5bfc:	54000382 	b.cs	5c6c <mbedtls_mpi_write_binary+0x94>  // b.hs, b.nlast
/home/nk/optee/optee_os/lib/libmbedtls/mbedtls/library/bignum.c:1018
    5c00:	cb130042 	sub	x2, x2, x19
    5c04:	8b020035 	add	x21, x1, x2
/home/nk/optee/optee_os/lib/libmbedtls/mbedtls/library/bignum.c:1019
    5c08:	52800001 	mov	w1, #0x0                   	// #0
    5c0c:	94000ede 	bl	9784 <memset>
/home/nk/optee/optee_os/lib/libmbedtls/mbedtls/library/bignum.c:1018
    5c10:	aa1503e0 	mov	x0, x21
    5c14:	aa1303e2 	mov	x2, x19
/home/nk/optee/optee_os/lib/libmbedtls/mbedtls/library/bignum.c:1034
    5c18:	8b020000 	add	x0, x0, x2
    5c1c:	d2800001 	mov	x1, #0x0                   	// #0
    5c20:	d1000400 	sub	x0, x0, #0x1
/home/nk/optee/optee_os/lib/libmbedtls/mbedtls/library/bignum.c:1034 (discriminator 1)
    5c24:	eb01005f 	cmp	x2, x1
    5c28:	54000261 	b.ne	5c74 <mbedtls_mpi_write_binary+0x9c>  // b.any
/home/nk/optee/optee_os/lib/libmbedtls/mbedtls/library/bignum.c:1037
    5c2c:	52800000 	mov	w0, #0x0                   	// #0
/home/nk/optee/optee_os/lib/libmbedtls/mbedtls/library/bignum.c:1038
    5c30:	a94153f3 	ldp	x19, x20, [sp, #16]
    5c34:	f94013f5 	ldr	x21, [sp, #32]
    5c38:	a8c37bfd 	ldp	x29, x30, [sp], #48
    5c3c:	d65f03c0 	ret
/home/nk/optee/optee_os/lib/libmbedtls/mbedtls/library/bignum.c:1029
    5c40:	f9400a85 	ldr	x5, [x20, #16]
    5c44:	927ef424 	and	x4, x1, #0xfffffffffffffffc
    5c48:	531d0423 	ubfiz	w3, w1, #3, #2
    5c4c:	b86468a4 	ldr	w4, [x5, x4]
    5c50:	1ac32483 	lsr	w3, w4, w3
    5c54:	12001c63 	and	w3, w3, #0xff
    5c58:	350001e3 	cbnz	w3, 5c94 <mbedtls_mpi_write_binary+0xbc>
/home/nk/optee/optee_os/lib/libmbedtls/mbedtls/library/bignum.c:1027 (discriminator 2)
    5c5c:	91000421 	add	x1, x1, #0x1
/home/nk/optee/optee_os/lib/libmbedtls/mbedtls/library/bignum.c:1027 (discriminator 1)
    5c60:	eb13003f 	cmp	x1, x19
    5c64:	54fffee1 	b.ne	5c40 <mbedtls_mpi_write_binary+0x68>  // b.any
    5c68:	17ffffec 	b	5c18 <mbedtls_mpi_write_binary+0x40>
    5c6c:	aa0203e1 	mov	x1, x2
    5c70:	17fffffc 	b	5c60 <mbedtls_mpi_write_binary+0x88>
/home/nk/optee/optee_os/lib/libmbedtls/mbedtls/library/bignum.c:1035 (discriminator 3)
    5c74:	f9400a85 	ldr	x5, [x20, #16]
    5c78:	927ef423 	and	x3, x1, #0xfffffffffffffffc
    5c7c:	531d0424 	ubfiz	w4, w1, #3, #2
/home/nk/optee/optee_os/lib/libmbedtls/mbedtls/library/bignum.c:1034 (discriminator 3)
    5c80:	91000421 	add	x1, x1, #0x1
/home/nk/optee/optee_os/lib/libmbedtls/mbedtls/library/bignum.c:1035 (discriminator 3)
    5c84:	b86368a3 	ldr	w3, [x5, x3]
    5c88:	1ac42463 	lsr	w3, w3, w4
    5c8c:	39000003 	strb	w3, [x0]
    5c90:	17ffffe4 	b	5c20 <mbedtls_mpi_write_binary+0x48>
/home/nk/optee/optee_os/lib/libmbedtls/mbedtls/library/bignum.c:1030
    5c94:	128000e0 	mov	w0, #0xfffffff8            	// #-8
    5c98:	17ffffe6 	b	5c30 <mbedtls_mpi_write_binary+0x58>

0000000000005c9c <mbedtls_mpi_shift_l>:
mbedtls_mpi_shift_l():
/home/nk/optee/optee_os/lib/libmbedtls/mbedtls/library/bignum.c:1044
    5c9c:	a9bd7bfd 	stp	x29, x30, [sp, #-48]!
    5ca0:	910003fd 	mov	x29, sp
    5ca4:	a90153f3 	stp	x19, x20, [sp, #16]
    5ca8:	aa0003f3 	mov	x19, x0
/home/nk/optee/optee_os/lib/libmbedtls/mbedtls/library/bignum.c:1050
    5cac:	d345fc34 	lsr	x20, x1, #5
/home/nk/optee/optee_os/lib/libmbedtls/mbedtls/library/bignum.c:1044
    5cb0:	a9025bf5 	stp	x21, x22, [sp, #32]
    5cb4:	aa0103f5 	mov	x21, x1
/home/nk/optee/optee_os/lib/libmbedtls/mbedtls/library/bignum.c:1051
    5cb8:	92401036 	and	x22, x1, #0x1f
/home/nk/optee/optee_os/lib/libmbedtls/mbedtls/library/bignum.c:1053
    5cbc:	97ffff20 	bl	593c <mbedtls_mpi_bitlen>
    5cc0:	8b150000 	add	x0, x0, x21
/home/nk/optee/optee_os/lib/libmbedtls/mbedtls/library/bignum.c:1055
    5cc4:	f9400661 	ldr	x1, [x19, #8]
    5cc8:	eb01141f 	cmp	x0, x1, lsl #5
    5ccc:	540000c8 	b.hi	5ce4 <mbedtls_mpi_shift_l+0x48>  // b.pmore
/home/nk/optee/optee_os/lib/libmbedtls/mbedtls/library/bignum.c:1063
    5cd0:	f1007ebf 	cmp	x21, #0x1f
    5cd4:	540001c8 	b.hi	5d0c <mbedtls_mpi_shift_l+0x70>  // b.pmore
/home/nk/optee/optee_os/lib/libmbedtls/mbedtls/library/bignum.c:1075
    5cd8:	b5000456 	cbnz	x22, 5d60 <mbedtls_mpi_shift_l+0xc4>
/home/nk/optee/optee_os/lib/libmbedtls/mbedtls/library/bignum.c:1058
    5cdc:	52800000 	mov	w0, #0x0                   	// #0
    5ce0:	14000007 	b	5cfc <mbedtls_mpi_shift_l+0x60>
/home/nk/optee/optee_os/lib/libmbedtls/mbedtls/library/bignum.c:1056
    5ce4:	f240101f 	tst	x0, #0x1f
    5ce8:	d345fc00 	lsr	x0, x0, #5
    5cec:	9a800401 	cinc	x1, x0, ne  // ne = any
    5cf0:	aa1303e0 	mov	x0, x19
    5cf4:	97fffd81 	bl	52f8 <mbedtls_mpi_grow>
    5cf8:	34fffec0 	cbz	w0, 5cd0 <mbedtls_mpi_shift_l+0x34>
/home/nk/optee/optee_os/lib/libmbedtls/mbedtls/library/bignum.c:1089
    5cfc:	a94153f3 	ldp	x19, x20, [sp, #16]
    5d00:	a9425bf5 	ldp	x21, x22, [sp, #32]
    5d04:	a8c37bfd 	ldp	x29, x30, [sp], #48
    5d08:	d65f03c0 	ret
/home/nk/optee/optee_os/lib/libmbedtls/mbedtls/library/bignum.c:1065
    5d0c:	f9400660 	ldr	x0, [x19, #8]
    5d10:	92800062 	mov	x2, #0xfffffffffffffffc    	// #-4
    5d14:	9b027e82 	mul	x2, x20, x2
    5d18:	d37ef401 	lsl	x1, x0, #2
    5d1c:	d1001021 	sub	x1, x1, #0x4
/home/nk/optee/optee_os/lib/libmbedtls/mbedtls/library/bignum.c:1065 (discriminator 1)
    5d20:	eb14001f 	cmp	x0, x20
    5d24:	54000108 	b.hi	5d44 <mbedtls_mpi_shift_l+0xa8>  // b.pmore
    5d28:	d37ef400 	lsl	x0, x0, #2
    5d2c:	d1001000 	sub	x0, x0, #0x4
/home/nk/optee/optee_os/lib/libmbedtls/mbedtls/library/bignum.c:1068 (discriminator 2)
    5d30:	b100101f 	cmn	x0, #0x4
    5d34:	54fffd20 	b.eq	5cd8 <mbedtls_mpi_shift_l+0x3c>  // b.none
/home/nk/optee/optee_os/lib/libmbedtls/mbedtls/library/bignum.c:1069 (discriminator 2)
    5d38:	f9400a61 	ldr	x1, [x19, #16]
    5d3c:	b820683f 	str	wzr, [x1, x0]
    5d40:	17fffffb 	b	5d2c <mbedtls_mpi_shift_l+0x90>
/home/nk/optee/optee_os/lib/libmbedtls/mbedtls/library/bignum.c:1066 (discriminator 3)
    5d44:	f9400a63 	ldr	x3, [x19, #16]
/home/nk/optee/optee_os/lib/libmbedtls/mbedtls/library/bignum.c:1065 (discriminator 3)
    5d48:	d1000400 	sub	x0, x0, #0x1
/home/nk/optee/optee_os/lib/libmbedtls/mbedtls/library/bignum.c:1066 (discriminator 3)
    5d4c:	8b010064 	add	x4, x3, x1
    5d50:	b8626884 	ldr	w4, [x4, x2]
    5d54:	b8216864 	str	w4, [x3, x1]
    5d58:	d1001021 	sub	x1, x1, #0x4
    5d5c:	17fffff1 	b	5d20 <mbedtls_mpi_shift_l+0x84>
/home/nk/optee/optee_os/lib/libmbedtls/mbedtls/library/bignum.c:1077
    5d60:	f9400666 	ldr	x6, [x19, #8]
/home/nk/optee/optee_os/lib/libmbedtls/mbedtls/library/bignum.c:1079
    5d64:	52800400 	mov	w0, #0x20                  	// #32
    5d68:	4b160000 	sub	w0, w0, w22
/home/nk/optee/optee_os/lib/libmbedtls/mbedtls/library/bignum.c:1047
    5d6c:	52800002 	mov	w2, #0x0                   	// #0
/home/nk/optee/optee_os/lib/libmbedtls/mbedtls/library/bignum.c:1077 (discriminator 1)
    5d70:	eb1400df 	cmp	x6, x20
    5d74:	54fffb49 	b.ls	5cdc <mbedtls_mpi_shift_l+0x40>  // b.plast
/home/nk/optee/optee_os/lib/libmbedtls/mbedtls/library/bignum.c:1079 (discriminator 3)
    5d78:	f9400a65 	ldr	x5, [x19, #16]
    5d7c:	d37ef684 	lsl	x4, x20, #2
/home/nk/optee/optee_os/lib/libmbedtls/mbedtls/library/bignum.c:1077 (discriminator 3)
    5d80:	91000694 	add	x20, x20, #0x1
/home/nk/optee/optee_os/lib/libmbedtls/mbedtls/library/bignum.c:1079 (discriminator 3)
    5d84:	b86468a3 	ldr	w3, [x5, x4]
/home/nk/optee/optee_os/lib/libmbedtls/mbedtls/library/bignum.c:1080 (discriminator 3)
    5d88:	1ad62061 	lsl	w1, w3, w22
/home/nk/optee/optee_os/lib/libmbedtls/mbedtls/library/bignum.c:1081 (discriminator 3)
    5d8c:	2a020021 	orr	w1, w1, w2
/home/nk/optee/optee_os/lib/libmbedtls/mbedtls/library/bignum.c:1079 (discriminator 3)
    5d90:	1ac02462 	lsr	w2, w3, w0
/home/nk/optee/optee_os/lib/libmbedtls/mbedtls/library/bignum.c:1081 (discriminator 3)
    5d94:	b82468a1 	str	w1, [x5, x4]
/home/nk/optee/optee_os/lib/libmbedtls/mbedtls/library/bignum.c:1082 (discriminator 3)
    5d98:	17fffff6 	b	5d70 <mbedtls_mpi_shift_l+0xd4>

0000000000005d9c <mbedtls_mpi_shift_r>:
mbedtls_mpi_shift_r():
/home/nk/optee/optee_os/lib/libmbedtls/mbedtls/library/bignum.c:1103
    5d9c:	f9400402 	ldr	x2, [x0, #8]
/home/nk/optee/optee_os/lib/libmbedtls/mbedtls/library/bignum.c:1100
    5da0:	d345fc25 	lsr	x5, x1, #5
/home/nk/optee/optee_os/lib/libmbedtls/mbedtls/library/bignum.c:1101
    5da4:	92401023 	and	x3, x1, #0x1f
/home/nk/optee/optee_os/lib/libmbedtls/mbedtls/library/bignum.c:1103
    5da8:	eb05005f 	cmp	x2, x5
    5dac:	54000063 	b.cc	5db8 <mbedtls_mpi_shift_r+0x1c>  // b.lo, b.ul, b.last
/home/nk/optee/optee_os/lib/libmbedtls/mbedtls/library/bignum.c:1103 (discriminator 1)
    5db0:	54000081 	b.ne	5dc0 <mbedtls_mpi_shift_r+0x24>  // b.any
/home/nk/optee/optee_os/lib/libmbedtls/mbedtls/library/bignum.c:1103 (discriminator 2)
    5db4:	b4000503 	cbz	x3, 5e54 <mbedtls_mpi_shift_r+0xb8>
/home/nk/optee/optee_os/lib/libmbedtls/mbedtls/library/bignum.c:1104
    5db8:	52800001 	mov	w1, #0x0                   	// #0
    5dbc:	17fffe83 	b	57c8 <mbedtls_mpi_lset>
/home/nk/optee/optee_os/lib/libmbedtls/mbedtls/library/bignum.c:1109
    5dc0:	f1007c3f 	cmp	x1, #0x1f
    5dc4:	54000109 	b.ls	5de4 <mbedtls_mpi_shift_r+0x48>  // b.plast
    5dc8:	d37ef4a6 	lsl	x6, x5, #2
    5dcc:	d2800004 	mov	x4, #0x0                   	// #0
/home/nk/optee/optee_os/lib/libmbedtls/mbedtls/library/bignum.c:1111 (discriminator 1)
    5dd0:	cb050041 	sub	x1, x2, x5
    5dd4:	eb04003f 	cmp	x1, x4
    5dd8:	540000c8 	b.hi	5df0 <mbedtls_mpi_shift_r+0x54>  // b.pmore
/home/nk/optee/optee_os/lib/libmbedtls/mbedtls/library/bignum.c:1114 (discriminator 1)
    5ddc:	eb01005f 	cmp	x2, x1
    5de0:	54000148 	b.hi	5e08 <mbedtls_mpi_shift_r+0x6c>  // b.pmore
/home/nk/optee/optee_os/lib/libmbedtls/mbedtls/library/bignum.c:1121
    5de4:	b5000303 	cbnz	x3, 5e44 <mbedtls_mpi_shift_r+0xa8>
/home/nk/optee/optee_os/lib/libmbedtls/mbedtls/library/bignum.c:1133
    5de8:	52800000 	mov	w0, #0x0                   	// #0
    5dec:	d65f03c0 	ret
/home/nk/optee/optee_os/lib/libmbedtls/mbedtls/library/bignum.c:1112 (discriminator 3)
    5df0:	f9400801 	ldr	x1, [x0, #16]
    5df4:	b8666827 	ldr	w7, [x1, x6]
    5df8:	910010c6 	add	x6, x6, #0x4
    5dfc:	b8247827 	str	w7, [x1, x4, lsl #2]
/home/nk/optee/optee_os/lib/libmbedtls/mbedtls/library/bignum.c:1111 (discriminator 3)
    5e00:	91000484 	add	x4, x4, #0x1
    5e04:	17fffff3 	b	5dd0 <mbedtls_mpi_shift_r+0x34>
/home/nk/optee/optee_os/lib/libmbedtls/mbedtls/library/bignum.c:1115 (discriminator 2)
    5e08:	f9400804 	ldr	x4, [x0, #16]
    5e0c:	b821789f 	str	wzr, [x4, x1, lsl #2]
/home/nk/optee/optee_os/lib/libmbedtls/mbedtls/library/bignum.c:1114 (discriminator 2)
    5e10:	91000421 	add	x1, x1, #0x1
    5e14:	17fffff2 	b	5ddc <mbedtls_mpi_shift_r+0x40>
/home/nk/optee/optee_os/lib/libmbedtls/mbedtls/library/bignum.c:1125 (discriminator 3)
    5e18:	f9400808 	ldr	x8, [x0, #16]
    5e1c:	d37ef447 	lsl	x7, x2, #2
    5e20:	b8676906 	ldr	w6, [x8, x7]
/home/nk/optee/optee_os/lib/libmbedtls/mbedtls/library/bignum.c:1126 (discriminator 3)
    5e24:	1ac324c4 	lsr	w4, w6, w3
/home/nk/optee/optee_os/lib/libmbedtls/mbedtls/library/bignum.c:1127 (discriminator 3)
    5e28:	2a050084 	orr	w4, w4, w5
/home/nk/optee/optee_os/lib/libmbedtls/mbedtls/library/bignum.c:1125 (discriminator 3)
    5e2c:	1ac120c5 	lsl	w5, w6, w1
/home/nk/optee/optee_os/lib/libmbedtls/mbedtls/library/bignum.c:1127 (discriminator 3)
    5e30:	b8276904 	str	w4, [x8, x7]
/home/nk/optee/optee_os/lib/libmbedtls/mbedtls/library/bignum.c:1128 (discriminator 3)
    5e34:	d1000442 	sub	x2, x2, #0x1
/home/nk/optee/optee_os/lib/libmbedtls/mbedtls/library/bignum.c:1123 (discriminator 1)
    5e38:	b100045f 	cmn	x2, #0x1
    5e3c:	54fffee1 	b.ne	5e18 <mbedtls_mpi_shift_r+0x7c>  // b.any
    5e40:	17ffffea 	b	5de8 <mbedtls_mpi_shift_r+0x4c>
/home/nk/optee/optee_os/lib/libmbedtls/mbedtls/library/bignum.c:1125
    5e44:	52800401 	mov	w1, #0x20                  	// #32
/home/nk/optee/optee_os/lib/libmbedtls/mbedtls/library/bignum.c:1097
    5e48:	52800005 	mov	w5, #0x0                   	// #0
/home/nk/optee/optee_os/lib/libmbedtls/mbedtls/library/bignum.c:1125
    5e4c:	4b030021 	sub	w1, w1, w3
    5e50:	17fffff9 	b	5e34 <mbedtls_mpi_shift_r+0x98>
/home/nk/optee/optee_os/lib/libmbedtls/mbedtls/library/bignum.c:1109
    5e54:	f1007c3f 	cmp	x1, #0x1f
    5e58:	54fffc89 	b.ls	5de8 <mbedtls_mpi_shift_r+0x4c>  // b.plast
    5e5c:	d2800001 	mov	x1, #0x0                   	// #0
    5e60:	17ffffdf 	b	5ddc <mbedtls_mpi_shift_r+0x40>

0000000000005e64 <mbedtls_mpi_cmp_abs>:
mbedtls_mpi_cmp_abs():
/home/nk/optee/optee_os/lib/libmbedtls/mbedtls/library/bignum.c:1144
    5e64:	f9400402 	ldr	x2, [x0, #8]
/home/nk/optee/optee_os/lib/libmbedtls/mbedtls/library/bignum.c:1144 (discriminator 1)
    5e68:	b50000c2 	cbnz	x2, 5e80 <mbedtls_mpi_cmp_abs+0x1c>
/home/nk/optee/optee_os/lib/libmbedtls/mbedtls/library/bignum.c:1148
    5e6c:	f9400423 	ldr	x3, [x1, #8]
/home/nk/optee/optee_os/lib/libmbedtls/mbedtls/library/bignum.c:1148 (discriminator 1)
    5e70:	b5000143 	cbnz	x3, 5e98 <mbedtls_mpi_cmp_abs+0x34>
/home/nk/optee/optee_os/lib/libmbedtls/mbedtls/library/bignum.c:1152
    5e74:	f100005f 	cmp	x2, #0x0
    5e78:	1a9f07e0 	cset	w0, ne  // ne = any
/home/nk/optee/optee_os/lib/libmbedtls/mbedtls/library/bignum.c:1165
    5e7c:	d65f03c0 	ret
/home/nk/optee/optee_os/lib/libmbedtls/mbedtls/library/bignum.c:1145
    5e80:	f9400803 	ldr	x3, [x0, #16]
    5e84:	8b020863 	add	x3, x3, x2, lsl #2
    5e88:	b85fc063 	ldur	w3, [x3, #-4]
    5e8c:	35ffff03 	cbnz	w3, 5e6c <mbedtls_mpi_cmp_abs+0x8>
/home/nk/optee/optee_os/lib/libmbedtls/mbedtls/library/bignum.c:1144 (discriminator 2)
    5e90:	d1000442 	sub	x2, x2, #0x1
    5e94:	17fffff5 	b	5e68 <mbedtls_mpi_cmp_abs+0x4>
/home/nk/optee/optee_os/lib/libmbedtls/mbedtls/library/bignum.c:1149
    5e98:	f9400824 	ldr	x4, [x1, #16]
    5e9c:	8b030885 	add	x5, x4, x3, lsl #2
    5ea0:	b85fc0a5 	ldur	w5, [x5, #-4]
    5ea4:	340000a5 	cbz	w5, 5eb8 <mbedtls_mpi_cmp_abs+0x54>
/home/nk/optee/optee_os/lib/libmbedtls/mbedtls/library/bignum.c:1155
    5ea8:	eb03005f 	cmp	x2, x3
    5eac:	540000a9 	b.ls	5ec0 <mbedtls_mpi_cmp_abs+0x5c>  // b.plast
    5eb0:	52800020 	mov	w0, #0x1                   	// #1
    5eb4:	17fffff2 	b	5e7c <mbedtls_mpi_cmp_abs+0x18>
/home/nk/optee/optee_os/lib/libmbedtls/mbedtls/library/bignum.c:1148 (discriminator 2)
    5eb8:	d1000463 	sub	x3, x3, #0x1
    5ebc:	17ffffed 	b	5e70 <mbedtls_mpi_cmp_abs+0xc>
/home/nk/optee/optee_os/lib/libmbedtls/mbedtls/library/bignum.c:1156
    5ec0:	540001c3 	b.cc	5ef8 <mbedtls_mpi_cmp_abs+0x94>  // b.lo, b.ul, b.last
    5ec4:	d1000442 	sub	x2, x2, #0x1
/home/nk/optee/optee_os/lib/libmbedtls/mbedtls/library/bignum.c:1158 (discriminator 1)
    5ec8:	b100045f 	cmn	x2, #0x1
    5ecc:	54000061 	b.ne	5ed8 <mbedtls_mpi_cmp_abs+0x74>  // b.any
/home/nk/optee/optee_os/lib/libmbedtls/mbedtls/library/bignum.c:1153
    5ed0:	52800000 	mov	w0, #0x0                   	// #0
    5ed4:	17ffffea 	b	5e7c <mbedtls_mpi_cmp_abs+0x18>
/home/nk/optee/optee_os/lib/libmbedtls/mbedtls/library/bignum.c:1160
    5ed8:	f9400803 	ldr	x3, [x0, #16]
    5edc:	d37ef441 	lsl	x1, x2, #2
    5ee0:	b8616863 	ldr	w3, [x3, x1]
    5ee4:	b8616881 	ldr	w1, [x4, x1]
    5ee8:	6b01007f 	cmp	w3, w1
    5eec:	54fffe28 	b.hi	5eb0 <mbedtls_mpi_cmp_abs+0x4c>  // b.pmore
/home/nk/optee/optee_os/lib/libmbedtls/mbedtls/library/bignum.c:1161
    5ef0:	d1000442 	sub	x2, x2, #0x1
    5ef4:	54fffea2 	b.cs	5ec8 <mbedtls_mpi_cmp_abs+0x64>  // b.hs, b.nlast
/home/nk/optee/optee_os/lib/libmbedtls/mbedtls/library/bignum.c:1156
    5ef8:	12800000 	mov	w0, #0xffffffff            	// #-1
    5efc:	17ffffe0 	b	5e7c <mbedtls_mpi_cmp_abs+0x18>

0000000000005f00 <mbedtls_mpi_cmp_mpi>:
mbedtls_mpi_cmp_mpi():
/home/nk/optee/optee_os/lib/libmbedtls/mbedtls/library/bignum.c:1176
    5f00:	f9400403 	ldr	x3, [x0, #8]
/home/nk/optee/optee_os/lib/libmbedtls/mbedtls/library/bignum.c:1176 (discriminator 1)
    5f04:	b5000103 	cbnz	x3, 5f24 <mbedtls_mpi_cmp_mpi+0x24>
/home/nk/optee/optee_os/lib/libmbedtls/mbedtls/library/bignum.c:1180
    5f08:	f9400422 	ldr	x2, [x1, #8]
/home/nk/optee/optee_os/lib/libmbedtls/mbedtls/library/bignum.c:1180 (discriminator 1)
    5f0c:	b5000182 	cbnz	x2, 5f3c <mbedtls_mpi_cmp_mpi+0x3c>
/home/nk/optee/optee_os/lib/libmbedtls/mbedtls/library/bignum.c:1184
    5f10:	b4000603 	cbz	x3, 5fd0 <mbedtls_mpi_cmp_mpi+0xd0>
/home/nk/optee/optee_os/lib/libmbedtls/mbedtls/library/bignum.c:1187
    5f14:	eb02007f 	cmp	x3, x2
    5f18:	540001e9 	b.ls	5f54 <mbedtls_mpi_cmp_mpi+0x54>  // b.plast
/home/nk/optee/optee_os/lib/libmbedtls/mbedtls/library/bignum.c:1187 (discriminator 1)
    5f1c:	79c00000 	ldrsh	w0, [x0]
/home/nk/optee/optee_os/lib/libmbedtls/mbedtls/library/bignum.c:1200
    5f20:	d65f03c0 	ret
/home/nk/optee/optee_os/lib/libmbedtls/mbedtls/library/bignum.c:1177
    5f24:	f9400802 	ldr	x2, [x0, #16]
    5f28:	8b030842 	add	x2, x2, x3, lsl #2
    5f2c:	b85fc042 	ldur	w2, [x2, #-4]
    5f30:	35fffec2 	cbnz	w2, 5f08 <mbedtls_mpi_cmp_mpi+0x8>
/home/nk/optee/optee_os/lib/libmbedtls/mbedtls/library/bignum.c:1176 (discriminator 2)
    5f34:	d1000463 	sub	x3, x3, #0x1
    5f38:	17fffff3 	b	5f04 <mbedtls_mpi_cmp_mpi+0x4>
/home/nk/optee/optee_os/lib/libmbedtls/mbedtls/library/bignum.c:1181
    5f3c:	f9400824 	ldr	x4, [x1, #16]
    5f40:	8b020884 	add	x4, x4, x2, lsl #2
    5f44:	b85fc084 	ldur	w4, [x4, #-4]
    5f48:	35fffe64 	cbnz	w4, 5f14 <mbedtls_mpi_cmp_mpi+0x14>
/home/nk/optee/optee_os/lib/libmbedtls/mbedtls/library/bignum.c:1180 (discriminator 2)
    5f4c:	d1000442 	sub	x2, x2, #0x1
    5f50:	17ffffef 	b	5f0c <mbedtls_mpi_cmp_mpi+0xc>
/home/nk/optee/optee_os/lib/libmbedtls/mbedtls/library/bignum.c:1188
    5f54:	79c00024 	ldrsh	w4, [x1]
    5f58:	54000062 	b.cs	5f64 <mbedtls_mpi_cmp_mpi+0x64>  // b.hs, b.nlast
/home/nk/optee/optee_os/lib/libmbedtls/mbedtls/library/bignum.c:1188 (discriminator 1)
    5f5c:	4b0403e0 	neg	w0, w4
    5f60:	17fffff0 	b	5f20 <mbedtls_mpi_cmp_mpi+0x20>
/home/nk/optee/optee_os/lib/libmbedtls/mbedtls/library/bignum.c:1190
    5f64:	79c00002 	ldrsh	w2, [x0]
    5f68:	7100005f 	cmp	w2, #0x0
    5f6c:	5400008d 	b.le	5f7c <mbedtls_mpi_cmp_mpi+0x7c>
/home/nk/optee/optee_os/lib/libmbedtls/mbedtls/library/bignum.c:1190 (discriminator 1)
    5f70:	36f802a4 	tbz	w4, #31, 5fc4 <mbedtls_mpi_cmp_mpi+0xc4>
/home/nk/optee/optee_os/lib/libmbedtls/mbedtls/library/bignum.c:1190
    5f74:	52800020 	mov	w0, #0x1                   	// #1
    5f78:	17ffffea 	b	5f20 <mbedtls_mpi_cmp_mpi+0x20>
/home/nk/optee/optee_os/lib/libmbedtls/mbedtls/library/bignum.c:1191
    5f7c:	7100009f 	cmp	w4, #0x0
    5f80:	5400022d 	b.le	5fc4 <mbedtls_mpi_cmp_mpi+0xc4>
/home/nk/optee/optee_os/lib/libmbedtls/mbedtls/library/bignum.c:1191 (discriminator 1)
    5f84:	34000202 	cbz	w2, 5fc4 <mbedtls_mpi_cmp_mpi+0xc4>
/home/nk/optee/optee_os/lib/libmbedtls/mbedtls/library/bignum.c:1191
    5f88:	12800000 	mov	w0, #0xffffffff            	// #-1
    5f8c:	17ffffe5 	b	5f20 <mbedtls_mpi_cmp_mpi+0x20>
/home/nk/optee/optee_os/lib/libmbedtls/mbedtls/library/bignum.c:1195
    5f90:	f9400805 	ldr	x5, [x0, #16]
    5f94:	d37ef464 	lsl	x4, x3, #2
    5f98:	f9400826 	ldr	x6, [x1, #16]
    5f9c:	b86468a5 	ldr	w5, [x5, x4]
    5fa0:	b86468c4 	ldr	w4, [x6, x4]
    5fa4:	6b0400bf 	cmp	w5, w4
    5fa8:	54000069 	b.ls	5fb4 <mbedtls_mpi_cmp_mpi+0xb4>  // b.plast
/home/nk/optee/optee_os/lib/libmbedtls/mbedtls/library/bignum.c:1195 (discriminator 1)
    5fac:	2a0203e0 	mov	w0, w2
    5fb0:	17ffffdc 	b	5f20 <mbedtls_mpi_cmp_mpi+0x20>
/home/nk/optee/optee_os/lib/libmbedtls/mbedtls/library/bignum.c:1196
    5fb4:	d1000463 	sub	x3, x3, #0x1
    5fb8:	54000082 	b.cs	5fc8 <mbedtls_mpi_cmp_mpi+0xc8>  // b.hs, b.nlast
/home/nk/optee/optee_os/lib/libmbedtls/mbedtls/library/bignum.c:1196 (discriminator 1)
    5fbc:	4b0203e0 	neg	w0, w2
    5fc0:	17ffffd8 	b	5f20 <mbedtls_mpi_cmp_mpi+0x20>
    5fc4:	d1000463 	sub	x3, x3, #0x1
/home/nk/optee/optee_os/lib/libmbedtls/mbedtls/library/bignum.c:1193 (discriminator 1)
    5fc8:	b100047f 	cmn	x3, #0x1
    5fcc:	54fffe21 	b.ne	5f90 <mbedtls_mpi_cmp_mpi+0x90>  // b.any
/home/nk/optee/optee_os/lib/libmbedtls/mbedtls/library/bignum.c:1185
    5fd0:	52800000 	mov	w0, #0x0                   	// #0
    5fd4:	17ffffd3 	b	5f20 <mbedtls_mpi_cmp_mpi+0x20>

0000000000005fd8 <mbedtls_mpi_lt_mpi_ct>:
mbedtls_mpi_lt_mpi_ct():
/home/nk/optee/optee_os/lib/libmbedtls/mbedtls/library/bignum.c:1251
    5fd8:	f9400406 	ldr	x6, [x0, #8]
    5fdc:	f9400423 	ldr	x3, [x1, #8]
    5fe0:	eb0300df 	cmp	x6, x3
    5fe4:	54000621 	b.ne	60a8 <mbedtls_mpi_lt_mpi_ct+0xd0>  // b.any
/home/nk/optee/optee_os/lib/libmbedtls/mbedtls/library/bignum.c:1258
    5fe8:	79400003 	ldrh	w3, [x0]
/home/nk/optee/optee_os/lib/libmbedtls/mbedtls/library/bignum.c:1285
    5fec:	52800029 	mov	w9, #0x1                   	// #1
/home/nk/optee/optee_os/lib/libmbedtls/mbedtls/library/bignum.c:1258
    5ff0:	13017c64 	asr	w4, w3, #1
/home/nk/optee/optee_os/lib/libmbedtls/mbedtls/library/bignum.c:1259
    5ff4:	79400023 	ldrh	w3, [x1]
/home/nk/optee/optee_os/lib/libmbedtls/mbedtls/library/bignum.c:1258
    5ff8:	12000088 	and	w8, w4, #0x1
/home/nk/optee/optee_os/lib/libmbedtls/mbedtls/library/bignum.c:1296
    5ffc:	4b08012b 	sub	w11, w9, w8
/home/nk/optee/optee_os/lib/libmbedtls/mbedtls/library/bignum.c:1266
    6000:	4a430483 	eor	w3, w4, w3, lsr #1
    6004:	12000063 	and	w3, w3, #0x1
/home/nk/optee/optee_os/lib/libmbedtls/mbedtls/library/bignum.c:1267
    6008:	0a030104 	and	w4, w8, w3
    600c:	b9000044 	str	w4, [x2]
/home/nk/optee/optee_os/lib/libmbedtls/mbedtls/library/bignum.c:1275
    6010:	d10004c6 	sub	x6, x6, #0x1
/home/nk/optee/optee_os/lib/libmbedtls/mbedtls/library/bignum.c:1275 (discriminator 1)
    6014:	b10004df 	cmn	x6, #0x1
    6018:	54000061 	b.ne	6024 <mbedtls_mpi_lt_mpi_ct+0x4c>  // b.any
/home/nk/optee/optee_os/lib/libmbedtls/mbedtls/library/bignum.c:1300
    601c:	52800000 	mov	w0, #0x0                   	// #0
/home/nk/optee/optee_os/lib/libmbedtls/mbedtls/library/bignum.c:1301
    6020:	d65f03c0 	ret
/home/nk/optee/optee_os/lib/libmbedtls/mbedtls/library/bignum.c:1284 (discriminator 3)
    6024:	f940082c 	ldr	x12, [x1, #16]
    6028:	d37ef4c7 	lsl	x7, x6, #2
    602c:	f940080d 	ldr	x13, [x0, #16]
    6030:	b8676984 	ldr	w4, [x12, x7]
    6034:	b86769aa 	ldr	w10, [x13, x7]
ct_lt_mpi_uint():
/home/nk/optee/optee_os/lib/libmbedtls/mbedtls/library/bignum.c:1223 (discriminator 3)
    6038:	4a2a0085 	eon	w5, w4, w10
    603c:	4b0a008e 	sub	w14, w4, w10
    6040:	0a0e00a5 	and	w5, w5, w14
/home/nk/optee/optee_os/lib/libmbedtls/mbedtls/library/bignum.c:1229 (discriminator 3)
    6044:	0a240144 	bic	w4, w10, w4
    6048:	2a050084 	orr	w4, w4, w5
mbedtls_mpi_lt_mpi_ct():
/home/nk/optee/optee_os/lib/libmbedtls/mbedtls/library/bignum.c:1285 (discriminator 3)
    604c:	4b030125 	sub	w5, w9, w3
ct_lt_mpi_uint():
/home/nk/optee/optee_os/lib/libmbedtls/mbedtls/library/bignum.c:1232 (discriminator 3)
    6050:	531f7c84 	lsr	w4, w4, #31
mbedtls_mpi_lt_mpi_ct():
/home/nk/optee/optee_os/lib/libmbedtls/mbedtls/library/bignum.c:1285 (discriminator 3)
    6054:	0a04010a 	and	w10, w8, w4
/home/nk/optee/optee_os/lib/libmbedtls/mbedtls/library/bignum.c:1286 (discriminator 3)
    6058:	2a040063 	orr	w3, w3, w4
/home/nk/optee/optee_os/lib/libmbedtls/mbedtls/library/bignum.c:1285 (discriminator 3)
    605c:	0a0a00a5 	and	w5, w5, w10
    6060:	b940004a 	ldr	w10, [x2]
    6064:	2a0a00a5 	orr	w5, w5, w10
    6068:	b9000045 	str	w5, [x2]
/home/nk/optee/optee_os/lib/libmbedtls/mbedtls/library/bignum.c:1295 (discriminator 3)
    606c:	b867698a 	ldr	w10, [x12, x7]
    6070:	b86769a4 	ldr	w4, [x13, x7]
ct_lt_mpi_uint():
/home/nk/optee/optee_os/lib/libmbedtls/mbedtls/library/bignum.c:1223 (discriminator 3)
    6074:	4a2a0087 	eon	w7, w4, w10
    6078:	4b0a008c 	sub	w12, w4, w10
    607c:	0a0c00e7 	and	w7, w7, w12
/home/nk/optee/optee_os/lib/libmbedtls/mbedtls/library/bignum.c:1229 (discriminator 3)
    6080:	0a240144 	bic	w4, w10, w4
    6084:	2a070084 	orr	w4, w4, w7
mbedtls_mpi_lt_mpi_ct():
/home/nk/optee/optee_os/lib/libmbedtls/mbedtls/library/bignum.c:1296 (discriminator 3)
    6088:	4b03012a 	sub	w10, w9, w3
ct_lt_mpi_uint():
/home/nk/optee/optee_os/lib/libmbedtls/mbedtls/library/bignum.c:1232 (discriminator 3)
    608c:	531f7c84 	lsr	w4, w4, #31
mbedtls_mpi_lt_mpi_ct():
/home/nk/optee/optee_os/lib/libmbedtls/mbedtls/library/bignum.c:1296 (discriminator 3)
    6090:	0a040167 	and	w7, w11, w4
/home/nk/optee/optee_os/lib/libmbedtls/mbedtls/library/bignum.c:1297 (discriminator 3)
    6094:	2a040063 	orr	w3, w3, w4
/home/nk/optee/optee_os/lib/libmbedtls/mbedtls/library/bignum.c:1296 (discriminator 3)
    6098:	0a0a00e7 	and	w7, w7, w10
    609c:	2a0500e5 	orr	w5, w7, w5
    60a0:	b9000045 	str	w5, [x2]
/home/nk/optee/optee_os/lib/libmbedtls/mbedtls/library/bignum.c:1297 (discriminator 3)
    60a4:	17ffffdb 	b	6010 <mbedtls_mpi_lt_mpi_ct+0x38>
/home/nk/optee/optee_os/lib/libmbedtls/mbedtls/library/bignum.c:1252
    60a8:	12800060 	mov	w0, #0xfffffffc            	// #-4
    60ac:	17ffffdd 	b	6020 <mbedtls_mpi_lt_mpi_ct+0x48>

00000000000060b0 <mbedtls_mpi_cmp_int>:
mbedtls_mpi_cmp_int():
/home/nk/optee/optee_os/lib/libmbedtls/mbedtls/library/bignum.c:1307
    60b0:	a9bd7bfd 	stp	x29, x30, [sp, #-48]!
/home/nk/optee/optee_os/lib/libmbedtls/mbedtls/library/bignum.c:1312
    60b4:	7100003f 	cmp	w1, #0x0
    60b8:	5a81a422 	cneg	w2, w1, lt  // lt = tstop
/home/nk/optee/optee_os/lib/libmbedtls/mbedtls/library/bignum.c:1307
    60bc:	910003fd 	mov	x29, sp
/home/nk/optee/optee_os/lib/libmbedtls/mbedtls/library/bignum.c:1312
    60c0:	b90013e2 	str	w2, [sp, #16]
/home/nk/optee/optee_os/lib/libmbedtls/mbedtls/library/bignum.c:1313
    60c4:	52800022 	mov	w2, #0x1                   	// #1
    60c8:	5a82a442 	cneg	w2, w2, lt  // lt = tstop
/home/nk/optee/optee_os/lib/libmbedtls/mbedtls/library/bignum.c:1314
    60cc:	d2800021 	mov	x1, #0x1                   	// #1
    60d0:	f90013e1 	str	x1, [sp, #32]
/home/nk/optee/optee_os/lib/libmbedtls/mbedtls/library/bignum.c:1315
    60d4:	910043e1 	add	x1, sp, #0x10
/home/nk/optee/optee_os/lib/libmbedtls/mbedtls/library/bignum.c:1313
    60d8:	790033e2 	strh	w2, [sp, #24]
/home/nk/optee/optee_os/lib/libmbedtls/mbedtls/library/bignum.c:1315
    60dc:	f90017e1 	str	x1, [sp, #40]
/home/nk/optee/optee_os/lib/libmbedtls/mbedtls/library/bignum.c:1317
    60e0:	910063e1 	add	x1, sp, #0x18
    60e4:	97ffff87 	bl	5f00 <mbedtls_mpi_cmp_mpi>
/home/nk/optee/optee_os/lib/libmbedtls/mbedtls/library/bignum.c:1318
    60e8:	a8c37bfd 	ldp	x29, x30, [sp], #48
    60ec:	d65f03c0 	ret

00000000000060f0 <mbedtls_mpi_add_abs>:
mbedtls_mpi_add_abs():
/home/nk/optee/optee_os/lib/libmbedtls/mbedtls/library/bignum.c:1324
    60f0:	a9bc7bfd 	stp	x29, x30, [sp, #-64]!
/home/nk/optee/optee_os/lib/libmbedtls/mbedtls/library/bignum.c:1332
    60f4:	eb02001f 	cmp	x0, x2
/home/nk/optee/optee_os/lib/libmbedtls/mbedtls/library/bignum.c:1324
    60f8:	910003fd 	mov	x29, sp
    60fc:	a90153f3 	stp	x19, x20, [sp, #16]
    6100:	aa0103f4 	mov	x20, x1
    6104:	a9025bf5 	stp	x21, x22, [sp, #32]
    6108:	aa0003f5 	mov	x21, x0
    610c:	f9001bf7 	str	x23, [sp, #48]
/home/nk/optee/optee_os/lib/libmbedtls/mbedtls/library/bignum.c:1332
    6110:	540000a0 	b.eq	6124 <mbedtls_mpi_add_abs+0x34>  // b.none
    6114:	aa0203f3 	mov	x19, x2
/home/nk/optee/optee_os/lib/libmbedtls/mbedtls/library/bignum.c:1337
    6118:	eb01001f 	cmp	x0, x1
    611c:	54000481 	b.ne	61ac <mbedtls_mpi_add_abs+0xbc>  // b.any
/home/nk/optee/optee_os/lib/libmbedtls/mbedtls/library/bignum.c:1324
    6120:	aa1303f4 	mov	x20, x19
/home/nk/optee/optee_os/lib/libmbedtls/mbedtls/library/bignum.c:1345
    6124:	f9400693 	ldr	x19, [x20, #8]
/home/nk/optee/optee_os/lib/libmbedtls/mbedtls/library/bignum.c:1343
    6128:	52800020 	mov	w0, #0x1                   	// #1
    612c:	790002a0 	strh	w0, [x21]
/home/nk/optee/optee_os/lib/libmbedtls/mbedtls/library/bignum.c:1345 (discriminator 1)
    6130:	b5000513 	cbnz	x19, 61d0 <mbedtls_mpi_add_abs+0xe0>
/home/nk/optee/optee_os/lib/libmbedtls/mbedtls/library/bignum.c:1349
    6134:	aa1303e1 	mov	x1, x19
    6138:	aa1503e0 	mov	x0, x21
    613c:	97fffc6f 	bl	52f8 <mbedtls_mpi_grow>
    6140:	2a0003f6 	mov	w22, w0
    6144:	350003a0 	cbnz	w0, 61b8 <mbedtls_mpi_add_abs+0xc8>
/home/nk/optee/optee_os/lib/libmbedtls/mbedtls/library/bignum.c:1351
    6148:	f9400aa0 	ldr	x0, [x21, #16]
/home/nk/optee/optee_os/lib/libmbedtls/mbedtls/library/bignum.c:1356
    614c:	d2800002 	mov	x2, #0x0                   	// #0
/home/nk/optee/optee_os/lib/libmbedtls/mbedtls/library/bignum.c:1351
    6150:	f9400a84 	ldr	x4, [x20, #16]
    6154:	52800014 	mov	w20, #0x0                   	// #0
/home/nk/optee/optee_os/lib/libmbedtls/mbedtls/library/bignum.c:1356 (discriminator 1)
    6158:	eb02027f 	cmp	x19, x2
    615c:	54000461 	b.ne	61e8 <mbedtls_mpi_add_abs+0xf8>  // b.any
    6160:	8b130800 	add	x0, x0, x19, lsl #2
/home/nk/optee/optee_os/lib/libmbedtls/mbedtls/library/bignum.c:1363
    6164:	340002b4 	cbz	w20, 61b8 <mbedtls_mpi_add_abs+0xc8>
/home/nk/optee/optee_os/lib/libmbedtls/mbedtls/library/bignum.c:1365
    6168:	f94006a1 	ldr	x1, [x21, #8]
    616c:	91000677 	add	x23, x19, #0x1
    6170:	eb13003f 	cmp	x1, x19
    6174:	540000e8 	b.hi	6190 <mbedtls_mpi_add_abs+0xa0>  // b.pmore
/home/nk/optee/optee_os/lib/libmbedtls/mbedtls/library/bignum.c:1367
    6178:	aa1703e1 	mov	x1, x23
    617c:	aa1503e0 	mov	x0, x21
    6180:	97fffc5e 	bl	52f8 <mbedtls_mpi_grow>
    6184:	35000480 	cbnz	w0, 6214 <mbedtls_mpi_add_abs+0x124>
/home/nk/optee/optee_os/lib/libmbedtls/mbedtls/library/bignum.c:1368
    6188:	f9400aa0 	ldr	x0, [x21, #16]
    618c:	8b130800 	add	x0, x0, x19, lsl #2
/home/nk/optee/optee_os/lib/libmbedtls/mbedtls/library/bignum.c:1371
    6190:	b9400001 	ldr	w1, [x0]
    6194:	aa1703f3 	mov	x19, x23
    6198:	0b010281 	add	w1, w20, w1
    619c:	b8004401 	str	w1, [x0], #4
    61a0:	6b14003f 	cmp	w1, w20
    61a4:	1a9f27f4 	cset	w20, cc  // cc = lo, ul, last
    61a8:	17ffffef 	b	6164 <mbedtls_mpi_add_abs+0x74>
/home/nk/optee/optee_os/lib/libmbedtls/mbedtls/library/bignum.c:1338
    61ac:	97fffcd9 	bl	5510 <mbedtls_mpi_copy>
    61b0:	2a0003f6 	mov	w22, w0
    61b4:	34fffb60 	cbz	w0, 6120 <mbedtls_mpi_add_abs+0x30>
/home/nk/optee/optee_os/lib/libmbedtls/mbedtls/library/bignum.c:1377
    61b8:	2a1603e0 	mov	w0, w22
    61bc:	a94153f3 	ldp	x19, x20, [sp, #16]
    61c0:	a9425bf5 	ldp	x21, x22, [sp, #32]
    61c4:	f9401bf7 	ldr	x23, [sp, #48]
    61c8:	a8c47bfd 	ldp	x29, x30, [sp], #64
    61cc:	d65f03c0 	ret
/home/nk/optee/optee_os/lib/libmbedtls/mbedtls/library/bignum.c:1346
    61d0:	f9400a80 	ldr	x0, [x20, #16]
    61d4:	8b130800 	add	x0, x0, x19, lsl #2
    61d8:	b85fc000 	ldur	w0, [x0, #-4]
    61dc:	35fffac0 	cbnz	w0, 6134 <mbedtls_mpi_add_abs+0x44>
/home/nk/optee/optee_os/lib/libmbedtls/mbedtls/library/bignum.c:1345 (discriminator 2)
    61e0:	d1000673 	sub	x19, x19, #0x1
    61e4:	17ffffd3 	b	6130 <mbedtls_mpi_add_abs+0x40>
/home/nk/optee/optee_os/lib/libmbedtls/mbedtls/library/bignum.c:1359 (discriminator 3)
    61e8:	b8627801 	ldr	w1, [x0, x2, lsl #2]
/home/nk/optee/optee_os/lib/libmbedtls/mbedtls/library/bignum.c:1358 (discriminator 3)
    61ec:	b8627883 	ldr	w3, [x4, x2, lsl #2]
/home/nk/optee/optee_os/lib/libmbedtls/mbedtls/library/bignum.c:1359 (discriminator 3)
    61f0:	0b010281 	add	w1, w20, w1
    61f4:	6b14003f 	cmp	w1, w20
/home/nk/optee/optee_os/lib/libmbedtls/mbedtls/library/bignum.c:1360 (discriminator 3)
    61f8:	0b030021 	add	w1, w1, w3
/home/nk/optee/optee_os/lib/libmbedtls/mbedtls/library/bignum.c:1359 (discriminator 3)
    61fc:	1a9f27f4 	cset	w20, cc  // cc = lo, ul, last
/home/nk/optee/optee_os/lib/libmbedtls/mbedtls/library/bignum.c:1360 (discriminator 3)
    6200:	6b03003f 	cmp	w1, w3
    6204:	1a942694 	cinc	w20, w20, cc  // cc = lo, ul, last
    6208:	b8227801 	str	w1, [x0, x2, lsl #2]
/home/nk/optee/optee_os/lib/libmbedtls/mbedtls/library/bignum.c:1356 (discriminator 3)
    620c:	91000442 	add	x2, x2, #0x1
    6210:	17ffffd2 	b	6158 <mbedtls_mpi_add_abs+0x68>
/home/nk/optee/optee_os/lib/libmbedtls/mbedtls/library/bignum.c:1367
    6214:	2a0003f6 	mov	w22, w0
/home/nk/optee/optee_os/lib/libmbedtls/mbedtls/library/bignum.c:1376
    6218:	17ffffe8 	b	61b8 <mbedtls_mpi_add_abs+0xc8>

000000000000621c <mbedtls_mpi_sub_abs>:
mbedtls_mpi_sub_abs():
/home/nk/optee/optee_os/lib/libmbedtls/mbedtls/library/bignum.c:1404
    621c:	a9ba7bfd 	stp	x29, x30, [sp, #-96]!
    6220:	910003fd 	mov	x29, sp
    6224:	f9001bf7 	str	x23, [sp, #48]
    6228:	aa0103f7 	mov	x23, x1
/home/nk/optee/optee_os/lib/libmbedtls/mbedtls/library/bignum.c:1412
    622c:	aa0203e1 	mov	x1, x2
/home/nk/optee/optee_os/lib/libmbedtls/mbedtls/library/bignum.c:1404
    6230:	a90153f3 	stp	x19, x20, [sp, #16]
    6234:	aa0203f4 	mov	x20, x2
    6238:	a9025bf5 	stp	x21, x22, [sp, #32]
    623c:	aa0003f5 	mov	x21, x0
/home/nk/optee/optee_os/lib/libmbedtls/mbedtls/library/bignum.c:1412
    6240:	aa1703e0 	mov	x0, x23
    6244:	97ffff08 	bl	5e64 <mbedtls_mpi_cmp_abs>
    6248:	37f80500 	tbnz	w0, #31, 62e8 <mbedtls_mpi_sub_abs+0xcc>
/home/nk/optee/optee_os/lib/libmbedtls/mbedtls/library/bignum.c:1415
    624c:	910123f6 	add	x22, sp, #0x48
    6250:	aa1603e0 	mov	x0, x22
    6254:	97fffc04 	bl	5264 <mbedtls_mpi_init_mempool>
/home/nk/optee/optee_os/lib/libmbedtls/mbedtls/library/bignum.c:1417
    6258:	eb15029f 	cmp	x20, x21
    625c:	540000e1 	b.ne	6278 <mbedtls_mpi_sub_abs+0x5c>  // b.any
/home/nk/optee/optee_os/lib/libmbedtls/mbedtls/library/bignum.c:1419
    6260:	aa1403e1 	mov	x1, x20
    6264:	aa1603e0 	mov	x0, x22
    6268:	97fffcaa 	bl	5510 <mbedtls_mpi_copy>
    626c:	2a0003f3 	mov	w19, w0
    6270:	35000220 	cbnz	w0, 62b4 <mbedtls_mpi_sub_abs+0x98>
/home/nk/optee/optee_os/lib/libmbedtls/mbedtls/library/bignum.c:1420
    6274:	aa1603f4 	mov	x20, x22
/home/nk/optee/optee_os/lib/libmbedtls/mbedtls/library/bignum.c:1423
    6278:	eb1502ff 	cmp	x23, x21
    627c:	54000121 	b.ne	62a0 <mbedtls_mpi_sub_abs+0x84>  // b.any
/home/nk/optee/optee_os/lib/libmbedtls/mbedtls/library/bignum.c:1429
    6280:	52800020 	mov	w0, #0x1                   	// #1
    6284:	790002a0 	strh	w0, [x21]
/home/nk/optee/optee_os/lib/libmbedtls/mbedtls/library/bignum.c:1433
    6288:	a9408680 	ldp	x0, x1, [x20, #8]
/home/nk/optee/optee_os/lib/libmbedtls/mbedtls/library/bignum.c:1433 (discriminator 1)
    628c:	b5000240 	cbnz	x0, 62d4 <mbedtls_mpi_sub_abs+0xb8>
/home/nk/optee/optee_os/lib/libmbedtls/mbedtls/library/bignum.c:1437
    6290:	f9400aa2 	ldr	x2, [x21, #16]
/home/nk/optee/optee_os/lib/libmbedtls/mbedtls/library/bignum.c:1431
    6294:	52800013 	mov	w19, #0x0                   	// #0
/home/nk/optee/optee_os/lib/libmbedtls/mbedtls/library/bignum.c:1437
    6298:	97fffa85 	bl	4cac <mpi_sub_hlp>
    629c:	14000006 	b	62b4 <mbedtls_mpi_sub_abs+0x98>
/home/nk/optee/optee_os/lib/libmbedtls/mbedtls/library/bignum.c:1424
    62a0:	aa1703e1 	mov	x1, x23
    62a4:	aa1503e0 	mov	x0, x21
    62a8:	97fffc9a 	bl	5510 <mbedtls_mpi_copy>
    62ac:	2a0003f3 	mov	w19, w0
    62b0:	34fffe80 	cbz	w0, 6280 <mbedtls_mpi_sub_abs+0x64>
/home/nk/optee/optee_os/lib/libmbedtls/mbedtls/library/bignum.c:1441
    62b4:	aa1603e0 	mov	x0, x22
    62b8:	97fffbf5 	bl	528c <mbedtls_mpi_free>
/home/nk/optee/optee_os/lib/libmbedtls/mbedtls/library/bignum.c:1444
    62bc:	2a1303e0 	mov	w0, w19
    62c0:	a94153f3 	ldp	x19, x20, [sp, #16]
    62c4:	a9425bf5 	ldp	x21, x22, [sp, #32]
    62c8:	f9401bf7 	ldr	x23, [sp, #48]
    62cc:	a8c67bfd 	ldp	x29, x30, [sp], #96
    62d0:	d65f03c0 	ret
/home/nk/optee/optee_os/lib/libmbedtls/mbedtls/library/bignum.c:1434
    62d4:	8b000822 	add	x2, x1, x0, lsl #2
    62d8:	b85fc042 	ldur	w2, [x2, #-4]
    62dc:	35fffda2 	cbnz	w2, 6290 <mbedtls_mpi_sub_abs+0x74>
/home/nk/optee/optee_os/lib/libmbedtls/mbedtls/library/bignum.c:1433 (discriminator 2)
    62e0:	d1000400 	sub	x0, x0, #0x1
    62e4:	17ffffea 	b	628c <mbedtls_mpi_sub_abs+0x70>
/home/nk/optee/optee_os/lib/libmbedtls/mbedtls/library/bignum.c:1413
    62e8:	12800133 	mov	w19, #0xfffffff6            	// #-10
    62ec:	17fffff4 	b	62bc <mbedtls_mpi_sub_abs+0xa0>

00000000000062f0 <mbedtls_mpi_add_mpi>:
mbedtls_mpi_add_mpi():
/home/nk/optee/optee_os/lib/libmbedtls/mbedtls/library/bignum.c:1450
    62f0:	a9bd7bfd 	stp	x29, x30, [sp, #-48]!
    62f4:	910003fd 	mov	x29, sp
/home/nk/optee/optee_os/lib/libmbedtls/mbedtls/library/bignum.c:1457
    62f8:	79c00043 	ldrsh	w3, [x2]
/home/nk/optee/optee_os/lib/libmbedtls/mbedtls/library/bignum.c:1450
    62fc:	a90153f3 	stp	x19, x20, [sp, #16]
    6300:	aa0003f4 	mov	x20, x0
/home/nk/optee/optee_os/lib/libmbedtls/mbedtls/library/bignum.c:1456
    6304:	79c00033 	ldrsh	w19, [x1]
/home/nk/optee/optee_os/lib/libmbedtls/mbedtls/library/bignum.c:1450
    6308:	a9025bf5 	stp	x21, x22, [sp, #32]
/home/nk/optee/optee_os/lib/libmbedtls/mbedtls/library/bignum.c:1457
    630c:	1b137c63 	mul	w3, w3, w19
    6310:	36f80303 	tbz	w3, #31, 6370 <mbedtls_mpi_add_mpi+0x80>
    6314:	aa0103f6 	mov	x22, x1
    6318:	aa0203f5 	mov	x21, x2
/home/nk/optee/optee_os/lib/libmbedtls/mbedtls/library/bignum.c:1459
    631c:	aa0203e1 	mov	x1, x2
    6320:	aa1603e0 	mov	x0, x22
    6324:	97fffed0 	bl	5e64 <mbedtls_mpi_cmp_abs>
    6328:	37f80140 	tbnz	w0, #31, 6350 <mbedtls_mpi_add_mpi+0x60>
/home/nk/optee/optee_os/lib/libmbedtls/mbedtls/library/bignum.c:1461
    632c:	aa1503e2 	mov	x2, x21
    6330:	aa1603e1 	mov	x1, x22
    6334:	aa1403e0 	mov	x0, x20
    6338:	97ffffb9 	bl	621c <mbedtls_mpi_sub_abs>
/home/nk/optee/optee_os/lib/libmbedtls/mbedtls/library/bignum.c:1472
    633c:	34000160 	cbz	w0, 6368 <mbedtls_mpi_add_mpi+0x78>
/home/nk/optee/optee_os/lib/libmbedtls/mbedtls/library/bignum.c:1479
    6340:	a94153f3 	ldp	x19, x20, [sp, #16]
    6344:	a9425bf5 	ldp	x21, x22, [sp, #32]
    6348:	a8c37bfd 	ldp	x29, x30, [sp], #48
    634c:	d65f03c0 	ret
/home/nk/optee/optee_os/lib/libmbedtls/mbedtls/library/bignum.c:1466
    6350:	aa1603e2 	mov	x2, x22
    6354:	aa1503e1 	mov	x1, x21
    6358:	aa1403e0 	mov	x0, x20
    635c:	97ffffb0 	bl	621c <mbedtls_mpi_sub_abs>
    6360:	35ffff00 	cbnz	w0, 6340 <mbedtls_mpi_add_mpi+0x50>
/home/nk/optee/optee_os/lib/libmbedtls/mbedtls/library/bignum.c:1467
    6364:	4b1303f3 	neg	w19, w19
/home/nk/optee/optee_os/lib/libmbedtls/mbedtls/library/bignum.c:1473
    6368:	79000293 	strh	w19, [x20]
/home/nk/optee/optee_os/lib/libmbedtls/mbedtls/library/bignum.c:1478
    636c:	17fffff5 	b	6340 <mbedtls_mpi_add_mpi+0x50>
/home/nk/optee/optee_os/lib/libmbedtls/mbedtls/library/bignum.c:1472
    6370:	97ffff60 	bl	60f0 <mbedtls_mpi_add_abs>
    6374:	17fffff2 	b	633c <mbedtls_mpi_add_mpi+0x4c>

0000000000006378 <mbedtls_mpi_sub_mpi>:
mbedtls_mpi_sub_mpi():
/home/nk/optee/optee_os/lib/libmbedtls/mbedtls/library/bignum.c:1485
    6378:	a9bd7bfd 	stp	x29, x30, [sp, #-48]!
    637c:	910003fd 	mov	x29, sp
/home/nk/optee/optee_os/lib/libmbedtls/mbedtls/library/bignum.c:1492
    6380:	79c00043 	ldrsh	w3, [x2]
/home/nk/optee/optee_os/lib/libmbedtls/mbedtls/library/bignum.c:1485
    6384:	a90153f3 	stp	x19, x20, [sp, #16]
    6388:	aa0003f4 	mov	x20, x0
/home/nk/optee/optee_os/lib/libmbedtls/mbedtls/library/bignum.c:1491
    638c:	79c00033 	ldrsh	w19, [x1]
/home/nk/optee/optee_os/lib/libmbedtls/mbedtls/library/bignum.c:1485
    6390:	a9025bf5 	stp	x21, x22, [sp, #32]
/home/nk/optee/optee_os/lib/libmbedtls/mbedtls/library/bignum.c:1492
    6394:	1b137c63 	mul	w3, w3, w19
    6398:	7100007f 	cmp	w3, #0x0
    639c:	5400030d 	b.le	63fc <mbedtls_mpi_sub_mpi+0x84>
    63a0:	aa0103f6 	mov	x22, x1
    63a4:	aa0203f5 	mov	x21, x2
/home/nk/optee/optee_os/lib/libmbedtls/mbedtls/library/bignum.c:1494
    63a8:	aa0203e1 	mov	x1, x2
    63ac:	aa1603e0 	mov	x0, x22
    63b0:	97fffead 	bl	5e64 <mbedtls_mpi_cmp_abs>
    63b4:	37f80140 	tbnz	w0, #31, 63dc <mbedtls_mpi_sub_mpi+0x64>
/home/nk/optee/optee_os/lib/libmbedtls/mbedtls/library/bignum.c:1496
    63b8:	aa1503e2 	mov	x2, x21
    63bc:	aa1603e1 	mov	x1, x22
    63c0:	aa1403e0 	mov	x0, x20
    63c4:	97ffff96 	bl	621c <mbedtls_mpi_sub_abs>
/home/nk/optee/optee_os/lib/libmbedtls/mbedtls/library/bignum.c:1507
    63c8:	34000160 	cbz	w0, 63f4 <mbedtls_mpi_sub_mpi+0x7c>
/home/nk/optee/optee_os/lib/libmbedtls/mbedtls/library/bignum.c:1514
    63cc:	a94153f3 	ldp	x19, x20, [sp, #16]
    63d0:	a9425bf5 	ldp	x21, x22, [sp, #32]
    63d4:	a8c37bfd 	ldp	x29, x30, [sp], #48
    63d8:	d65f03c0 	ret
/home/nk/optee/optee_os/lib/libmbedtls/mbedtls/library/bignum.c:1501
    63dc:	aa1603e2 	mov	x2, x22
    63e0:	aa1503e1 	mov	x1, x21
    63e4:	aa1403e0 	mov	x0, x20
    63e8:	97ffff8d 	bl	621c <mbedtls_mpi_sub_abs>
    63ec:	35ffff00 	cbnz	w0, 63cc <mbedtls_mpi_sub_mpi+0x54>
/home/nk/optee/optee_os/lib/libmbedtls/mbedtls/library/bignum.c:1502
    63f0:	4b1303f3 	neg	w19, w19
/home/nk/optee/optee_os/lib/libmbedtls/mbedtls/library/bignum.c:1508
    63f4:	79000293 	strh	w19, [x20]
/home/nk/optee/optee_os/lib/libmbedtls/mbedtls/library/bignum.c:1513
    63f8:	17fffff5 	b	63cc <mbedtls_mpi_sub_mpi+0x54>
/home/nk/optee/optee_os/lib/libmbedtls/mbedtls/library/bignum.c:1507
    63fc:	97ffff3d 	bl	60f0 <mbedtls_mpi_add_abs>
    6400:	17fffff2 	b	63c8 <mbedtls_mpi_sub_mpi+0x50>

0000000000006404 <mbedtls_mpi_add_int>:
mbedtls_mpi_add_int():
/home/nk/optee/optee_os/lib/libmbedtls/mbedtls/library/bignum.c:1520
    6404:	a9bd7bfd 	stp	x29, x30, [sp, #-48]!
/home/nk/optee/optee_os/lib/libmbedtls/mbedtls/library/bignum.c:1526
    6408:	7100005f 	cmp	w2, #0x0
    640c:	5a82a443 	cneg	w3, w2, lt  // lt = tstop
/home/nk/optee/optee_os/lib/libmbedtls/mbedtls/library/bignum.c:1520
    6410:	910003fd 	mov	x29, sp
/home/nk/optee/optee_os/lib/libmbedtls/mbedtls/library/bignum.c:1526
    6414:	b90013e3 	str	w3, [sp, #16]
/home/nk/optee/optee_os/lib/libmbedtls/mbedtls/library/bignum.c:1527
    6418:	52800023 	mov	w3, #0x1                   	// #1
    641c:	5a83a463 	cneg	w3, w3, lt  // lt = tstop
/home/nk/optee/optee_os/lib/libmbedtls/mbedtls/library/bignum.c:1528
    6420:	d2800022 	mov	x2, #0x1                   	// #1
    6424:	f90013e2 	str	x2, [sp, #32]
/home/nk/optee/optee_os/lib/libmbedtls/mbedtls/library/bignum.c:1529
    6428:	910043e2 	add	x2, sp, #0x10
/home/nk/optee/optee_os/lib/libmbedtls/mbedtls/library/bignum.c:1527
    642c:	790033e3 	strh	w3, [sp, #24]
/home/nk/optee/optee_os/lib/libmbedtls/mbedtls/library/bignum.c:1529
    6430:	f90017e2 	str	x2, [sp, #40]
/home/nk/optee/optee_os/lib/libmbedtls/mbedtls/library/bignum.c:1531
    6434:	910063e2 	add	x2, sp, #0x18
    6438:	97ffffae 	bl	62f0 <mbedtls_mpi_add_mpi>
/home/nk/optee/optee_os/lib/libmbedtls/mbedtls/library/bignum.c:1532
    643c:	a8c37bfd 	ldp	x29, x30, [sp], #48
    6440:	d65f03c0 	ret

0000000000006444 <mbedtls_mpi_sub_int>:
mbedtls_mpi_sub_int():
/home/nk/optee/optee_os/lib/libmbedtls/mbedtls/library/bignum.c:1538
    6444:	a9bd7bfd 	stp	x29, x30, [sp, #-48]!
/home/nk/optee/optee_os/lib/libmbedtls/mbedtls/library/bignum.c:1544
    6448:	7100005f 	cmp	w2, #0x0
    644c:	5a82a443 	cneg	w3, w2, lt  // lt = tstop
/home/nk/optee/optee_os/lib/libmbedtls/mbedtls/library/bignum.c:1538
    6450:	910003fd 	mov	x29, sp
/home/nk/optee/optee_os/lib/libmbedtls/mbedtls/library/bignum.c:1544
    6454:	b90013e3 	str	w3, [sp, #16]
/home/nk/optee/optee_os/lib/libmbedtls/mbedtls/library/bignum.c:1545
    6458:	52800023 	mov	w3, #0x1                   	// #1
    645c:	5a83a463 	cneg	w3, w3, lt  // lt = tstop
/home/nk/optee/optee_os/lib/libmbedtls/mbedtls/library/bignum.c:1546
    6460:	d2800022 	mov	x2, #0x1                   	// #1
    6464:	f90013e2 	str	x2, [sp, #32]
/home/nk/optee/optee_os/lib/libmbedtls/mbedtls/library/bignum.c:1547
    6468:	910043e2 	add	x2, sp, #0x10
/home/nk/optee/optee_os/lib/libmbedtls/mbedtls/library/bignum.c:1545
    646c:	790033e3 	strh	w3, [sp, #24]
/home/nk/optee/optee_os/lib/libmbedtls/mbedtls/library/bignum.c:1547
    6470:	f90017e2 	str	x2, [sp, #40]
/home/nk/optee/optee_os/lib/libmbedtls/mbedtls/library/bignum.c:1549
    6474:	910063e2 	add	x2, sp, #0x18
    6478:	97ffffc0 	bl	6378 <mbedtls_mpi_sub_mpi>
/home/nk/optee/optee_os/lib/libmbedtls/mbedtls/library/bignum.c:1550
    647c:	a8c37bfd 	ldp	x29, x30, [sp], #48
    6480:	d65f03c0 	ret

0000000000006484 <mbedtls_mpi_mul_mpi>:
mbedtls_mpi_mul_mpi():
/home/nk/optee/optee_os/lib/libmbedtls/mbedtls/library/bignum.c:1628
    6484:	a9b87bfd 	stp	x29, x30, [sp, #-128]!
    6488:	910003fd 	mov	x29, sp
    648c:	a9046bf9 	stp	x25, x26, [sp, #64]
/home/nk/optee/optee_os/lib/libmbedtls/mbedtls/library/bignum.c:1636
    6490:	910143f9 	add	x25, sp, #0x50
    6494:	9101a3fa 	add	x26, sp, #0x68
/home/nk/optee/optee_os/lib/libmbedtls/mbedtls/library/bignum.c:1628
    6498:	a90153f3 	stp	x19, x20, [sp, #16]
    649c:	a9025bf5 	stp	x21, x22, [sp, #32]
    64a0:	aa0003f5 	mov	x21, x0
    64a4:	aa0203f6 	mov	x22, x2
/home/nk/optee/optee_os/lib/libmbedtls/mbedtls/library/bignum.c:1636
    64a8:	aa1903e0 	mov	x0, x25
/home/nk/optee/optee_os/lib/libmbedtls/mbedtls/library/bignum.c:1628
    64ac:	a90363f7 	stp	x23, x24, [sp, #48]
    64b0:	aa0103f7 	mov	x23, x1
/home/nk/optee/optee_os/lib/libmbedtls/mbedtls/library/bignum.c:1636
    64b4:	97fffb6c 	bl	5264 <mbedtls_mpi_init_mempool>
    64b8:	aa1a03e0 	mov	x0, x26
    64bc:	97fffb6a 	bl	5264 <mbedtls_mpi_init_mempool>
/home/nk/optee/optee_os/lib/libmbedtls/mbedtls/library/bignum.c:1638
    64c0:	eb1702bf 	cmp	x21, x23
    64c4:	540000e1 	b.ne	64e0 <mbedtls_mpi_mul_mpi+0x5c>  // b.any
/home/nk/optee/optee_os/lib/libmbedtls/mbedtls/library/bignum.c:1638 (discriminator 1)
    64c8:	aa1503e1 	mov	x1, x21
    64cc:	aa1903e0 	mov	x0, x25
    64d0:	97fffc10 	bl	5510 <mbedtls_mpi_copy>
    64d4:	2a0003f4 	mov	w20, w0
    64d8:	35000300 	cbnz	w0, 6538 <mbedtls_mpi_mul_mpi+0xb4>
/home/nk/optee/optee_os/lib/libmbedtls/mbedtls/library/bignum.c:1638
    64dc:	aa1903f7 	mov	x23, x25
/home/nk/optee/optee_os/lib/libmbedtls/mbedtls/library/bignum.c:1639
    64e0:	eb1602bf 	cmp	x21, x22
    64e4:	540000e1 	b.ne	6500 <mbedtls_mpi_mul_mpi+0x7c>  // b.any
/home/nk/optee/optee_os/lib/libmbedtls/mbedtls/library/bignum.c:1639 (discriminator 1)
    64e8:	aa1503e1 	mov	x1, x21
    64ec:	aa1a03e0 	mov	x0, x26
    64f0:	97fffc08 	bl	5510 <mbedtls_mpi_copy>
    64f4:	2a0003f4 	mov	w20, w0
    64f8:	35000200 	cbnz	w0, 6538 <mbedtls_mpi_mul_mpi+0xb4>
/home/nk/optee/optee_os/lib/libmbedtls/mbedtls/library/bignum.c:1639
    64fc:	aa1a03f6 	mov	x22, x26
/home/nk/optee/optee_os/lib/libmbedtls/mbedtls/library/bignum.c:1641
    6500:	f94006f8 	ldr	x24, [x23, #8]
/home/nk/optee/optee_os/lib/libmbedtls/mbedtls/library/bignum.c:1641 (discriminator 1)
    6504:	b5000318 	cbnz	x24, 6564 <mbedtls_mpi_mul_mpi+0xe0>
/home/nk/optee/optee_os/lib/libmbedtls/mbedtls/library/bignum.c:1645
    6508:	f94006d3 	ldr	x19, [x22, #8]
/home/nk/optee/optee_os/lib/libmbedtls/mbedtls/library/bignum.c:1645 (discriminator 1)
    650c:	b5000393 	cbnz	x19, 657c <mbedtls_mpi_mul_mpi+0xf8>
/home/nk/optee/optee_os/lib/libmbedtls/mbedtls/library/bignum.c:1649
    6510:	8b130301 	add	x1, x24, x19
    6514:	aa1503e0 	mov	x0, x21
    6518:	97fffb78 	bl	52f8 <mbedtls_mpi_grow>
    651c:	2a0003f4 	mov	w20, w0
    6520:	350000c0 	cbnz	w0, 6538 <mbedtls_mpi_mul_mpi+0xb4>
/home/nk/optee/optee_os/lib/libmbedtls/mbedtls/library/bignum.c:1650
    6524:	52800001 	mov	w1, #0x0                   	// #0
    6528:	aa1503e0 	mov	x0, x21
    652c:	97fffca7 	bl	57c8 <mbedtls_mpi_lset>
    6530:	2a0003f4 	mov	w20, w0
    6534:	34000400 	cbz	w0, 65b4 <mbedtls_mpi_mul_mpi+0x130>
/home/nk/optee/optee_os/lib/libmbedtls/mbedtls/library/bignum.c:1659
    6538:	aa1a03e0 	mov	x0, x26
    653c:	97fffb54 	bl	528c <mbedtls_mpi_free>
    6540:	aa1903e0 	mov	x0, x25
    6544:	97fffb52 	bl	528c <mbedtls_mpi_free>
/home/nk/optee/optee_os/lib/libmbedtls/mbedtls/library/bignum.c:1662
    6548:	2a1403e0 	mov	w0, w20
    654c:	a94153f3 	ldp	x19, x20, [sp, #16]
    6550:	a9425bf5 	ldp	x21, x22, [sp, #32]
    6554:	a94363f7 	ldp	x23, x24, [sp, #48]
    6558:	a9446bf9 	ldp	x25, x26, [sp, #64]
    655c:	a8c87bfd 	ldp	x29, x30, [sp], #128
    6560:	d65f03c0 	ret
/home/nk/optee/optee_os/lib/libmbedtls/mbedtls/library/bignum.c:1642
    6564:	f9400ae0 	ldr	x0, [x23, #16]
    6568:	8b180800 	add	x0, x0, x24, lsl #2
    656c:	b85fc000 	ldur	w0, [x0, #-4]
    6570:	35fffcc0 	cbnz	w0, 6508 <mbedtls_mpi_mul_mpi+0x84>
/home/nk/optee/optee_os/lib/libmbedtls/mbedtls/library/bignum.c:1641 (discriminator 2)
    6574:	d1000718 	sub	x24, x24, #0x1
    6578:	17ffffe3 	b	6504 <mbedtls_mpi_mul_mpi+0x80>
/home/nk/optee/optee_os/lib/libmbedtls/mbedtls/library/bignum.c:1646
    657c:	f9400ac0 	ldr	x0, [x22, #16]
    6580:	8b130800 	add	x0, x0, x19, lsl #2
    6584:	b85fc000 	ldur	w0, [x0, #-4]
    6588:	35fffc40 	cbnz	w0, 6510 <mbedtls_mpi_mul_mpi+0x8c>
/home/nk/optee/optee_os/lib/libmbedtls/mbedtls/library/bignum.c:1645 (discriminator 2)
    658c:	d1000673 	sub	x19, x19, #0x1
    6590:	17ffffdf 	b	650c <mbedtls_mpi_mul_mpi+0x88>
/home/nk/optee/optee_os/lib/libmbedtls/mbedtls/library/bignum.c:1653 (discriminator 2)
    6594:	f9400ac1 	ldr	x1, [x22, #16]
    6598:	d37ef662 	lsl	x2, x19, #2
    659c:	f9400aa0 	ldr	x0, [x21, #16]
    65a0:	b8626823 	ldr	w3, [x1, x2]
    65a4:	f9400ae1 	ldr	x1, [x23, #16]
    65a8:	8b020002 	add	x2, x0, x2
    65ac:	aa1803e0 	mov	x0, x24
    65b0:	97fff9d7 	bl	4d0c <mpi_mul_hlp>
    65b4:	d1000673 	sub	x19, x19, #0x1
/home/nk/optee/optee_os/lib/libmbedtls/mbedtls/library/bignum.c:1652 (discriminator 1)
    65b8:	b100067f 	cmn	x19, #0x1
    65bc:	54fffec1 	b.ne	6594 <mbedtls_mpi_mul_mpi+0x110>  // b.any
/home/nk/optee/optee_os/lib/libmbedtls/mbedtls/library/bignum.c:1655
    65c0:	794002e0 	ldrh	w0, [x23]
    65c4:	794002c1 	ldrh	w1, [x22]
    65c8:	1b017c00 	mul	w0, w0, w1
    65cc:	790002a0 	strh	w0, [x21]
    65d0:	17ffffda 	b	6538 <mbedtls_mpi_mul_mpi+0xb4>

00000000000065d4 <mbedtls_mpi_mul_int>:
mbedtls_mpi_mul_int():
/home/nk/optee/optee_os/lib/libmbedtls/mbedtls/library/bignum.c:1668
    65d4:	a9bd7bfd 	stp	x29, x30, [sp, #-48]!
/home/nk/optee/optee_os/lib/libmbedtls/mbedtls/library/bignum.c:1674
    65d8:	52800023 	mov	w3, #0x1                   	// #1
/home/nk/optee/optee_os/lib/libmbedtls/mbedtls/library/bignum.c:1668
    65dc:	910003fd 	mov	x29, sp
/home/nk/optee/optee_os/lib/libmbedtls/mbedtls/library/bignum.c:1674
    65e0:	790033e3 	strh	w3, [sp, #24]
/home/nk/optee/optee_os/lib/libmbedtls/mbedtls/library/bignum.c:1675
    65e4:	d2800023 	mov	x3, #0x1                   	// #1
    65e8:	f90013e3 	str	x3, [sp, #32]
/home/nk/optee/optee_os/lib/libmbedtls/mbedtls/library/bignum.c:1676
    65ec:	910043e3 	add	x3, sp, #0x10
/home/nk/optee/optee_os/lib/libmbedtls/mbedtls/library/bignum.c:1677
    65f0:	b90013e2 	str	w2, [sp, #16]
/home/nk/optee/optee_os/lib/libmbedtls/mbedtls/library/bignum.c:1679
    65f4:	910063e2 	add	x2, sp, #0x18
/home/nk/optee/optee_os/lib/libmbedtls/mbedtls/library/bignum.c:1676
    65f8:	f90017e3 	str	x3, [sp, #40]
/home/nk/optee/optee_os/lib/libmbedtls/mbedtls/library/bignum.c:1679
    65fc:	97ffffa2 	bl	6484 <mbedtls_mpi_mul_mpi>
/home/nk/optee/optee_os/lib/libmbedtls/mbedtls/library/bignum.c:1680
    6600:	a8c37bfd 	ldp	x29, x30, [sp], #48
    6604:	d65f03c0 	ret

0000000000006608 <mbedtls_mpi_read_string>:
mbedtls_mpi_read_string():
/home/nk/optee/optee_os/lib/libmbedtls/mbedtls/library/bignum.c:508
    6608:	a9b87bfd 	stp	x29, x30, [sp, #-128]!
/home/nk/optee/optee_os/lib/libmbedtls/mbedtls/library/bignum.c:516
    660c:	51000823 	sub	w3, w1, #0x2
    6610:	7100387f 	cmp	w3, #0xe
/home/nk/optee/optee_os/lib/libmbedtls/mbedtls/library/bignum.c:508
    6614:	910003fd 	mov	x29, sp
    6618:	a90153f3 	stp	x19, x20, [sp, #16]
    661c:	a9025bf5 	stp	x21, x22, [sp, #32]
    6620:	a90363f7 	stp	x23, x24, [sp, #48]
    6624:	a9046bf9 	stp	x25, x26, [sp, #64]
    6628:	f9002bfb 	str	x27, [sp, #80]
/home/nk/optee/optee_os/lib/libmbedtls/mbedtls/library/bignum.c:516
    662c:	54000149 	b.ls	6654 <mbedtls_mpi_read_string+0x4c>  // b.plast
/home/nk/optee/optee_os/lib/libmbedtls/mbedtls/library/bignum.c:517
    6630:	12800073 	mov	w19, #0xfffffffc            	// #-4
/home/nk/optee/optee_os/lib/libmbedtls/mbedtls/library/bignum.c:576
    6634:	2a1303e0 	mov	w0, w19
    6638:	a94153f3 	ldp	x19, x20, [sp, #16]
    663c:	a9425bf5 	ldp	x21, x22, [sp, #32]
    6640:	a94363f7 	ldp	x23, x24, [sp, #48]
    6644:	a9446bf9 	ldp	x25, x26, [sp, #64]
    6648:	f9402bfb 	ldr	x27, [sp, #80]
    664c:	a8c87bfd 	ldp	x29, x30, [sp], #128
    6650:	d65f03c0 	ret
/home/nk/optee/optee_os/lib/libmbedtls/mbedtls/library/bignum.c:519
    6654:	9101a3f8 	add	x24, sp, #0x68
    6658:	aa0203f6 	mov	x22, x2
    665c:	2a0103f7 	mov	w23, w1
    6660:	aa0003f4 	mov	x20, x0
    6664:	aa1803e0 	mov	x0, x24
    6668:	97fffaff 	bl	5264 <mbedtls_mpi_init_mempool>
/home/nk/optee/optee_os/lib/libmbedtls/mbedtls/library/bignum.c:521
    666c:	aa1603e0 	mov	x0, x22
    6670:	97ffeb6f 	bl	142c <strlen>
/home/nk/optee/optee_os/lib/libmbedtls/mbedtls/library/bignum.c:523
    6674:	710042ff 	cmp	w23, #0x10
/home/nk/optee/optee_os/lib/libmbedtls/mbedtls/library/bignum.c:521
    6678:	aa0003f5 	mov	x21, x0
/home/nk/optee/optee_os/lib/libmbedtls/mbedtls/library/bignum.c:523
    667c:	54000621 	b.ne	6740 <mbedtls_mpi_read_string+0x138>  // b.any
/home/nk/optee/optee_os/lib/libmbedtls/mbedtls/library/bignum.c:525
    6680:	92f80000 	mov	x0, #0x3fffffffffffffff    	// #4611686018427387903
    6684:	eb0002bf 	cmp	x21, x0
    6688:	54fffd48 	b.hi	6630 <mbedtls_mpi_read_string+0x28>  // b.pmore
/home/nk/optee/optee_os/lib/libmbedtls/mbedtls/library/bignum.c:528
    668c:	d37ef6a1 	lsl	x1, x21, #2
/home/nk/optee/optee_os/lib/libmbedtls/mbedtls/library/bignum.c:530
    6690:	aa1403e0 	mov	x0, x20
/home/nk/optee/optee_os/lib/libmbedtls/mbedtls/library/bignum.c:528
    6694:	f27e083f 	tst	x1, #0x1c
    6698:	d345fc21 	lsr	x1, x1, #5
/home/nk/optee/optee_os/lib/libmbedtls/mbedtls/library/bignum.c:530
    669c:	9a810421 	cinc	x1, x1, ne  // ne = any
    66a0:	97fffb16 	bl	52f8 <mbedtls_mpi_grow>
    66a4:	2a0003f3 	mov	w19, w0
    66a8:	35000240 	cbnz	w0, 66f0 <mbedtls_mpi_read_string+0xe8>
/home/nk/optee/optee_os/lib/libmbedtls/mbedtls/library/bignum.c:531
    66ac:	52800001 	mov	w1, #0x0                   	// #0
    66b0:	aa1403e0 	mov	x0, x20
    66b4:	97fffc45 	bl	57c8 <mbedtls_mpi_lset>
    66b8:	2a0003f3 	mov	w19, w0
    66bc:	350001a0 	cbnz	w0, 66f0 <mbedtls_mpi_read_string+0xe8>
/home/nk/optee/optee_os/lib/libmbedtls/mbedtls/library/bignum.c:541
    66c0:	910193e6 	add	x6, sp, #0x64
/home/nk/optee/optee_os/lib/libmbedtls/mbedtls/library/bignum.c:533
    66c4:	d2800005 	mov	x5, #0x0                   	// #0
/home/nk/optee/optee_os/lib/libmbedtls/mbedtls/library/bignum.c:533 (discriminator 1)
    66c8:	b5000075 	cbnz	x21, 66d4 <mbedtls_mpi_read_string+0xcc>
/home/nk/optee/optee_os/lib/libmbedtls/mbedtls/library/bignum.c:541
    66cc:	52800013 	mov	w19, #0x0                   	// #0
    66d0:	14000008 	b	66f0 <mbedtls_mpi_read_string+0xe8>
/home/nk/optee/optee_os/lib/libmbedtls/mbedtls/library/bignum.c:535
    66d4:	f10006bf 	cmp	x21, #0x1
    66d8:	54000121 	b.ne	66fc <mbedtls_mpi_read_string+0xf4>  // b.any
/home/nk/optee/optee_os/lib/libmbedtls/mbedtls/library/bignum.c:535 (discriminator 1)
    66dc:	394002c0 	ldrb	w0, [x22]
    66e0:	7100b41f 	cmp	w0, #0x2d
    66e4:	540000c1 	b.ne	66fc <mbedtls_mpi_read_string+0xf4>  // b.any
/home/nk/optee/optee_os/lib/libmbedtls/mbedtls/library/bignum.c:537
    66e8:	12800000 	mov	w0, #0xffffffff            	// #-1
    66ec:	79000280 	strh	w0, [x20]
/home/nk/optee/optee_os/lib/libmbedtls/mbedtls/library/bignum.c:573
    66f0:	aa1803e0 	mov	x0, x24
    66f4:	97fffae6 	bl	528c <mbedtls_mpi_free>
/home/nk/optee/optee_os/lib/libmbedtls/mbedtls/library/bignum.c:575
    66f8:	17ffffcf 	b	6634 <mbedtls_mpi_read_string+0x2c>
/home/nk/optee/optee_os/lib/libmbedtls/mbedtls/library/bignum.c:541
    66fc:	d10006b5 	sub	x21, x21, #0x1
    6700:	52800201 	mov	w1, #0x10                  	// #16
    6704:	aa0603e0 	mov	x0, x6
    6708:	38756ac2 	ldrb	w2, [x22, x21]
    670c:	97fff94f 	bl	4c48 <mpi_get_digit>
    6710:	350006a0 	cbnz	w0, 67e4 <mbedtls_mpi_read_string+0x1dc>
/home/nk/optee/optee_os/lib/libmbedtls/mbedtls/library/bignum.c:542 (discriminator 2)
    6714:	d343fca0 	lsr	x0, x5, #3
    6718:	b94067e1 	ldr	w1, [sp, #100]
    671c:	f9400a83 	ldr	x3, [x20, #16]
    6720:	d37ef400 	lsl	x0, x0, #2
    6724:	531e08a2 	ubfiz	w2, w5, #2, #3
/home/nk/optee/optee_os/lib/libmbedtls/mbedtls/library/bignum.c:533 (discriminator 2)
    6728:	910004a5 	add	x5, x5, #0x1
/home/nk/optee/optee_os/lib/libmbedtls/mbedtls/library/bignum.c:542 (discriminator 2)
    672c:	1ac22022 	lsl	w2, w1, w2
    6730:	b8606861 	ldr	w1, [x3, x0]
    6734:	2a020021 	orr	w1, w1, w2
    6738:	b8206861 	str	w1, [x3, x0]
    673c:	17ffffe3 	b	66c8 <mbedtls_mpi_read_string+0xc0>
/home/nk/optee/optee_os/lib/libmbedtls/mbedtls/library/bignum.c:547
    6740:	52800001 	mov	w1, #0x0                   	// #0
    6744:	aa1403e0 	mov	x0, x20
    6748:	97fffc20 	bl	57c8 <mbedtls_mpi_lset>
    674c:	2a0003f3 	mov	w19, w0
    6750:	35fffd00 	cbnz	w0, 66f0 <mbedtls_mpi_read_string+0xe8>
/home/nk/optee/optee_os/lib/libmbedtls/mbedtls/library/bignum.c:557
    6754:	910193fa 	add	x26, sp, #0x64
/home/nk/optee/optee_os/lib/libmbedtls/mbedtls/library/bignum.c:549
    6758:	d2800019 	mov	x25, #0x0                   	// #0
/home/nk/optee/optee_os/lib/libmbedtls/mbedtls/library/bignum.c:553
    675c:	1280001b 	mov	w27, #0xffffffff            	// #-1
/home/nk/optee/optee_os/lib/libmbedtls/mbedtls/library/bignum.c:549 (discriminator 1)
    6760:	eb15033f 	cmp	x25, x21
    6764:	54fffb40 	b.eq	66cc <mbedtls_mpi_read_string+0xc4>  // b.none
/home/nk/optee/optee_os/lib/libmbedtls/mbedtls/library/bignum.c:551
    6768:	b50000f9 	cbnz	x25, 6784 <mbedtls_mpi_read_string+0x17c>
/home/nk/optee/optee_os/lib/libmbedtls/mbedtls/library/bignum.c:551 (discriminator 1)
    676c:	394002c0 	ldrb	w0, [x22]
    6770:	7100b41f 	cmp	w0, #0x2d
    6774:	54000081 	b.ne	6784 <mbedtls_mpi_read_string+0x17c>  // b.any
/home/nk/optee/optee_os/lib/libmbedtls/mbedtls/library/bignum.c:553
    6778:	7900029b 	strh	w27, [x20]
/home/nk/optee/optee_os/lib/libmbedtls/mbedtls/library/bignum.c:549 (discriminator 2)
    677c:	91000739 	add	x25, x25, #0x1
    6780:	17fffff8 	b	6760 <mbedtls_mpi_read_string+0x158>
/home/nk/optee/optee_os/lib/libmbedtls/mbedtls/library/bignum.c:557
    6784:	38796ac2 	ldrb	w2, [x22, x25]
    6788:	2a1703e1 	mov	w1, w23
    678c:	aa1a03e0 	mov	x0, x26
    6790:	97fff92e 	bl	4c48 <mpi_get_digit>
    6794:	2a0003f3 	mov	w19, w0
    6798:	35fffac0 	cbnz	w0, 66f0 <mbedtls_mpi_read_string+0xe8>
/home/nk/optee/optee_os/lib/libmbedtls/mbedtls/library/bignum.c:558
    679c:	2a1703e2 	mov	w2, w23
    67a0:	aa1403e1 	mov	x1, x20
    67a4:	aa1803e0 	mov	x0, x24
    67a8:	97ffff8b 	bl	65d4 <mbedtls_mpi_mul_int>
    67ac:	2a0003f3 	mov	w19, w0
    67b0:	35fffa00 	cbnz	w0, 66f0 <mbedtls_mpi_read_string+0xe8>
/home/nk/optee/optee_os/lib/libmbedtls/mbedtls/library/bignum.c:560
    67b4:	79c00280 	ldrsh	w0, [x20]
/home/nk/optee/optee_os/lib/libmbedtls/mbedtls/library/bignum.c:562
    67b8:	aa1803e1 	mov	x1, x24
    67bc:	b94067e2 	ldr	w2, [sp, #100]
/home/nk/optee/optee_os/lib/libmbedtls/mbedtls/library/bignum.c:560
    67c0:	7100041f 	cmp	w0, #0x1
/home/nk/optee/optee_os/lib/libmbedtls/mbedtls/library/bignum.c:562
    67c4:	aa1403e0 	mov	x0, x20
/home/nk/optee/optee_os/lib/libmbedtls/mbedtls/library/bignum.c:560
    67c8:	540000a1 	b.ne	67dc <mbedtls_mpi_read_string+0x1d4>  // b.any
/home/nk/optee/optee_os/lib/libmbedtls/mbedtls/library/bignum.c:562
    67cc:	97ffff0e 	bl	6404 <mbedtls_mpi_add_int>
/home/nk/optee/optee_os/lib/libmbedtls/mbedtls/library/bignum.c:566
    67d0:	2a0003f3 	mov	w19, w0
    67d4:	34fffd40 	cbz	w0, 677c <mbedtls_mpi_read_string+0x174>
    67d8:	17ffffc6 	b	66f0 <mbedtls_mpi_read_string+0xe8>
    67dc:	97ffff1a 	bl	6444 <mbedtls_mpi_sub_int>
    67e0:	17fffffc 	b	67d0 <mbedtls_mpi_read_string+0x1c8>
/home/nk/optee/optee_os/lib/libmbedtls/mbedtls/library/bignum.c:541
    67e4:	2a0003f3 	mov	w19, w0
    67e8:	17ffffc2 	b	66f0 <mbedtls_mpi_read_string+0xe8>

00000000000067ec <mbedtls_mpi_div_mpi>:
mbedtls_mpi_div_mpi():
/home/nk/optee/optee_os/lib/libmbedtls/mbedtls/library/bignum.c:1783
    67ec:	a9ac7bfd 	stp	x29, x30, [sp, #-320]!
    67f0:	910003fd 	mov	x29, sp
    67f4:	a90153f3 	stp	x19, x20, [sp, #16]
    67f8:	a9025bf5 	stp	x21, x22, [sp, #32]
    67fc:	a90363f7 	stp	x23, x24, [sp, #48]
    6800:	aa0103f7 	mov	x23, x1
    6804:	aa0203f8 	mov	x24, x2
/home/nk/optee/optee_os/lib/libmbedtls/mbedtls/library/bignum.c:1791
    6808:	52800001 	mov	w1, #0x0                   	// #0
/home/nk/optee/optee_os/lib/libmbedtls/mbedtls/library/bignum.c:1783
    680c:	a9046bf9 	stp	x25, x26, [sp, #64]
    6810:	a90573fb 	stp	x27, x28, [sp, #80]
    6814:	aa0003fb 	mov	x27, x0
/home/nk/optee/optee_os/lib/libmbedtls/mbedtls/library/bignum.c:1791
    6818:	aa0303e0 	mov	x0, x3
/home/nk/optee/optee_os/lib/libmbedtls/mbedtls/library/bignum.c:1783
    681c:	fd0033e8 	str	d8, [sp, #96]
    6820:	f90043e3 	str	x3, [sp, #128]
/home/nk/optee/optee_os/lib/libmbedtls/mbedtls/library/bignum.c:1791
    6824:	97fffe23 	bl	60b0 <mbedtls_mpi_cmp_int>
    6828:	34002500 	cbz	w0, 6cc8 <mbedtls_mpi_div_mpi+0x4dc>
/home/nk/optee/optee_os/lib/libmbedtls/mbedtls/library/bignum.c:1794
    682c:	910323f4 	add	x20, sp, #0xc8
    6830:	910383f6 	add	x22, sp, #0xe0
    6834:	aa1403e0 	mov	x0, x20
    6838:	97fffa8b 	bl	5264 <mbedtls_mpi_init_mempool>
    683c:	aa1603e0 	mov	x0, x22
/home/nk/optee/optee_os/lib/libmbedtls/mbedtls/library/bignum.c:1795
    6840:	9103e3fa 	add	x26, sp, #0xf8
/home/nk/optee/optee_os/lib/libmbedtls/mbedtls/library/bignum.c:1794
    6844:	97fffa88 	bl	5264 <mbedtls_mpi_init_mempool>
/home/nk/optee/optee_os/lib/libmbedtls/mbedtls/library/bignum.c:1795
    6848:	910443f5 	add	x21, sp, #0x110
    684c:	aa1a03e0 	mov	x0, x26
    6850:	97fffa85 	bl	5264 <mbedtls_mpi_init_mempool>
    6854:	aa1503e0 	mov	x0, x21
    6858:	97fffa83 	bl	5264 <mbedtls_mpi_init_mempool>
/home/nk/optee/optee_os/lib/libmbedtls/mbedtls/library/bignum.c:1807
    685c:	f94043e1 	ldr	x1, [sp, #128]
/home/nk/optee/optee_os/lib/libmbedtls/mbedtls/library/bignum.c:1804
    6860:	d2800060 	mov	x0, #0x3                   	// #3
    6864:	f9009be0 	str	x0, [sp, #304]
/home/nk/optee/optee_os/lib/libmbedtls/mbedtls/library/bignum.c:1805
    6868:	9102e3e0 	add	x0, sp, #0xb8
/home/nk/optee/optee_os/lib/libmbedtls/mbedtls/library/bignum.c:1803
    686c:	52800033 	mov	w19, #0x1                   	// #1
/home/nk/optee/optee_os/lib/libmbedtls/mbedtls/library/bignum.c:1805
    6870:	f9004fe0 	str	x0, [sp, #152]
/home/nk/optee/optee_os/lib/libmbedtls/mbedtls/library/bignum.c:1803
    6874:	790253f3 	strh	w19, [sp, #296]
/home/nk/optee/optee_os/lib/libmbedtls/mbedtls/library/bignum.c:1805
    6878:	f9009fe0 	str	x0, [sp, #312]
/home/nk/optee/optee_os/lib/libmbedtls/mbedtls/library/bignum.c:1807
    687c:	aa1803e0 	mov	x0, x24
    6880:	97fffd79 	bl	5e64 <mbedtls_mpi_cmp_abs>
    6884:	36f80480 	tbz	w0, #31, 6914 <mbedtls_mpi_div_mpi+0x128>
/home/nk/optee/optee_os/lib/libmbedtls/mbedtls/library/bignum.c:1809
    6888:	b500019b 	cbnz	x27, 68b8 <mbedtls_mpi_div_mpi+0xcc>
/home/nk/optee/optee_os/lib/libmbedtls/mbedtls/library/bignum.c:1810
    688c:	b5000397 	cbnz	x23, 68fc <mbedtls_mpi_div_mpi+0x110>
/home/nk/optee/optee_os/lib/libmbedtls/mbedtls/library/bignum.c:1811
    6890:	52800019 	mov	w25, #0x0                   	// #0
/home/nk/optee/optee_os/lib/libmbedtls/mbedtls/library/bignum.c:1904
    6894:	2a1903e0 	mov	w0, w25
    6898:	fd4033e8 	ldr	d8, [sp, #96]
    689c:	a94153f3 	ldp	x19, x20, [sp, #16]
    68a0:	a9425bf5 	ldp	x21, x22, [sp, #32]
    68a4:	a94363f7 	ldp	x23, x24, [sp, #48]
    68a8:	a9446bf9 	ldp	x25, x26, [sp, #64]
    68ac:	a94573fb 	ldp	x27, x28, [sp, #80]
    68b0:	a8d47bfd 	ldp	x29, x30, [sp], #320
    68b4:	d65f03c0 	ret
/home/nk/optee/optee_os/lib/libmbedtls/mbedtls/library/bignum.c:1809 (discriminator 1)
    68b8:	52800001 	mov	w1, #0x0                   	// #0
    68bc:	aa1b03e0 	mov	x0, x27
    68c0:	97fffbc2 	bl	57c8 <mbedtls_mpi_lset>
    68c4:	2a0003f9 	mov	w25, w0
    68c8:	34fffe20 	cbz	w0, 688c <mbedtls_mpi_div_mpi+0xa0>
/home/nk/optee/optee_os/lib/libmbedtls/mbedtls/library/bignum.c:1899
    68cc:	aa1403e0 	mov	x0, x20
    68d0:	97fffa6f 	bl	528c <mbedtls_mpi_free>
    68d4:	aa1603e0 	mov	x0, x22
    68d8:	97fffa6d 	bl	528c <mbedtls_mpi_free>
    68dc:	aa1a03e0 	mov	x0, x26
    68e0:	97fffa6b 	bl	528c <mbedtls_mpi_free>
/home/nk/optee/optee_os/lib/libmbedtls/mbedtls/library/bignum.c:1900
    68e4:	aa1503e0 	mov	x0, x21
    68e8:	97fffa69 	bl	528c <mbedtls_mpi_free>
/home/nk/optee/optee_os/lib/libmbedtls/mbedtls/library/bignum.c:1901
    68ec:	f9404fe0 	ldr	x0, [sp, #152]
    68f0:	d2800181 	mov	x1, #0xc                   	// #12
    68f4:	9400084f 	bl	8a30 <mbedtls_platform_zeroize>
/home/nk/optee/optee_os/lib/libmbedtls/mbedtls/library/bignum.c:1903
    68f8:	17ffffe7 	b	6894 <mbedtls_mpi_div_mpi+0xa8>
/home/nk/optee/optee_os/lib/libmbedtls/mbedtls/library/bignum.c:1810 (discriminator 1)
    68fc:	aa1803e1 	mov	x1, x24
    6900:	aa1703e0 	mov	x0, x23
    6904:	97fffb03 	bl	5510 <mbedtls_mpi_copy>
    6908:	2a0003f9 	mov	w25, w0
    690c:	35fffe00 	cbnz	w0, 68cc <mbedtls_mpi_div_mpi+0xe0>
    6910:	17ffffe0 	b	6890 <mbedtls_mpi_div_mpi+0xa4>
/home/nk/optee/optee_os/lib/libmbedtls/mbedtls/library/bignum.c:1814
    6914:	aa1803e1 	mov	x1, x24
    6918:	aa1403e0 	mov	x0, x20
    691c:	97fffafd 	bl	5510 <mbedtls_mpi_copy>
    6920:	2a0003f9 	mov	w25, w0
    6924:	35fffd40 	cbnz	w0, 68cc <mbedtls_mpi_div_mpi+0xe0>
/home/nk/optee/optee_os/lib/libmbedtls/mbedtls/library/bignum.c:1815
    6928:	f94043e1 	ldr	x1, [sp, #128]
    692c:	aa1603e0 	mov	x0, x22
    6930:	97fffaf8 	bl	5510 <mbedtls_mpi_copy>
    6934:	2a0003f9 	mov	w25, w0
    6938:	35fffca0 	cbnz	w0, 68cc <mbedtls_mpi_div_mpi+0xe0>
/home/nk/optee/optee_os/lib/libmbedtls/mbedtls/library/bignum.c:1818
    693c:	f9400701 	ldr	x1, [x24, #8]
    6940:	aa1a03e0 	mov	x0, x26
/home/nk/optee/optee_os/lib/libmbedtls/mbedtls/library/bignum.c:1816
    6944:	790193f3 	strh	w19, [sp, #200]
/home/nk/optee/optee_os/lib/libmbedtls/mbedtls/library/bignum.c:1818
    6948:	91000821 	add	x1, x1, #0x2
/home/nk/optee/optee_os/lib/libmbedtls/mbedtls/library/bignum.c:1816
    694c:	7901c3f3 	strh	w19, [sp, #224]
/home/nk/optee/optee_os/lib/libmbedtls/mbedtls/library/bignum.c:1818
    6950:	97fffa6a 	bl	52f8 <mbedtls_mpi_grow>
    6954:	2a0003f9 	mov	w25, w0
    6958:	35fffba0 	cbnz	w0, 68cc <mbedtls_mpi_div_mpi+0xe0>
/home/nk/optee/optee_os/lib/libmbedtls/mbedtls/library/bignum.c:1819
    695c:	52800001 	mov	w1, #0x0                   	// #0
    6960:	aa1a03e0 	mov	x0, x26
    6964:	97fffb99 	bl	57c8 <mbedtls_mpi_lset>
    6968:	2a0003f9 	mov	w25, w0
    696c:	35fffb00 	cbnz	w0, 68cc <mbedtls_mpi_div_mpi+0xe0>
/home/nk/optee/optee_os/lib/libmbedtls/mbedtls/library/bignum.c:1820
    6970:	d2800041 	mov	x1, #0x2                   	// #2
    6974:	aa1503e0 	mov	x0, x21
    6978:	97fffa60 	bl	52f8 <mbedtls_mpi_grow>
    697c:	2a0003f9 	mov	w25, w0
    6980:	35fffa60 	cbnz	w0, 68cc <mbedtls_mpi_div_mpi+0xe0>
/home/nk/optee/optee_os/lib/libmbedtls/mbedtls/library/bignum.c:1822
    6984:	aa1603e0 	mov	x0, x22
    6988:	97fffbed 	bl	593c <mbedtls_mpi_bitlen>
    698c:	92401000 	and	x0, x0, #0x1f
/home/nk/optee/optee_os/lib/libmbedtls/mbedtls/library/bignum.c:1823
    6990:	f1007c1f 	cmp	x0, #0x1f
    6994:	54000980 	b.eq	6ac4 <mbedtls_mpi_div_mpi+0x2d8>  // b.none
/home/nk/optee/optee_os/lib/libmbedtls/mbedtls/library/bignum.c:1825
    6998:	d28003f9 	mov	x25, #0x1f                  	// #31
    699c:	cb000320 	sub	x0, x25, x0
/home/nk/optee/optee_os/lib/libmbedtls/mbedtls/library/bignum.c:1826
    69a0:	aa0003e1 	mov	x1, x0
/home/nk/optee/optee_os/lib/libmbedtls/mbedtls/library/bignum.c:1825
    69a4:	f9003fe0 	str	x0, [sp, #120]
/home/nk/optee/optee_os/lib/libmbedtls/mbedtls/library/bignum.c:1826
    69a8:	aa1403e0 	mov	x0, x20
    69ac:	97fffcbc 	bl	5c9c <mbedtls_mpi_shift_l>
    69b0:	2a0003f9 	mov	w25, w0
    69b4:	35fff8c0 	cbnz	w0, 68cc <mbedtls_mpi_div_mpi+0xe0>
/home/nk/optee/optee_os/lib/libmbedtls/mbedtls/library/bignum.c:1827
    69b8:	f9403fe1 	ldr	x1, [sp, #120]
    69bc:	aa1603e0 	mov	x0, x22
    69c0:	97fffcb7 	bl	5c9c <mbedtls_mpi_shift_l>
    69c4:	2a0003f9 	mov	w25, w0
    69c8:	35fff820 	cbnz	w0, 68cc <mbedtls_mpi_div_mpi+0xe0>
/home/nk/optee/optee_os/lib/libmbedtls/mbedtls/library/bignum.c:1831
    69cc:	f9406bfc 	ldr	x28, [sp, #208]
/home/nk/optee/optee_os/lib/libmbedtls/mbedtls/library/bignum.c:1832
    69d0:	f94077e0 	ldr	x0, [sp, #232]
    69d4:	f90047e0 	str	x0, [sp, #136]
/home/nk/optee/optee_os/lib/libmbedtls/mbedtls/library/bignum.c:1833
    69d8:	cb000393 	sub	x19, x28, x0
    69dc:	9e670260 	fmov	d0, x19
    69e0:	aa1603e0 	mov	x0, x22
    69e4:	5f455408 	shl	d8, d0, #5
    69e8:	9e660101 	fmov	x1, d8
    69ec:	97fffcac 	bl	5c9c <mbedtls_mpi_shift_l>
    69f0:	2a0003f9 	mov	w25, w0
    69f4:	35fff6c0 	cbnz	w0, 68cc <mbedtls_mpi_div_mpi+0xe0>
/home/nk/optee/optee_os/lib/libmbedtls/mbedtls/library/bignum.c:1837
    69f8:	d37ef673 	lsl	x19, x19, #2
/home/nk/optee/optee_os/lib/libmbedtls/mbedtls/library/bignum.c:1835
    69fc:	aa1603e1 	mov	x1, x22
    6a00:	aa1403e0 	mov	x0, x20
    6a04:	97fffd3f 	bl	5f00 <mbedtls_mpi_cmp_mpi>
    6a08:	36f80620 	tbz	w0, #31, 6acc <mbedtls_mpi_div_mpi+0x2e0>
/home/nk/optee/optee_os/lib/libmbedtls/mbedtls/library/bignum.c:1840
    6a0c:	9e660101 	fmov	x1, d8
    6a10:	aa1603e0 	mov	x0, x22
    6a14:	97fffce2 	bl	5d9c <mbedtls_mpi_shift_r>
    6a18:	2a0003f9 	mov	w25, w0
    6a1c:	35fff580 	cbnz	w0, 68cc <mbedtls_mpi_div_mpi+0xe0>
/home/nk/optee/optee_os/lib/libmbedtls/mbedtls/library/bignum.c:1832
    6a20:	f94047e0 	ldr	x0, [sp, #136]
/home/nk/optee/optee_os/lib/libmbedtls/mbedtls/library/bignum.c:1831
    6a24:	d100079c 	sub	x28, x28, #0x1
    6a28:	d1001273 	sub	x19, x19, #0x4
/home/nk/optee/optee_os/lib/libmbedtls/mbedtls/library/bignum.c:1832
    6a2c:	d1000400 	sub	x0, x0, #0x1
    6a30:	f9004be0 	str	x0, [sp, #144]
/home/nk/optee/optee_os/lib/libmbedtls/mbedtls/library/bignum.c:1844
    6a34:	d37ef400 	lsl	x0, x0, #2
    6a38:	f90047e0 	str	x0, [sp, #136]
/home/nk/optee/optee_os/lib/libmbedtls/mbedtls/library/bignum.c:1866
    6a3c:	9104a3e0 	add	x0, sp, #0x128
    6a40:	f90053e0 	str	x0, [sp, #160]
/home/nk/optee/optee_os/lib/libmbedtls/mbedtls/library/bignum.c:1842 (discriminator 1)
    6a44:	f9404be0 	ldr	x0, [sp, #144]
    6a48:	eb00039f 	cmp	x28, x0
    6a4c:	54000568 	b.hi	6af8 <mbedtls_mpi_div_mpi+0x30c>  // b.pmore
/home/nk/optee/optee_os/lib/libmbedtls/mbedtls/library/bignum.c:1881
    6a50:	b400015b 	cbz	x27, 6a78 <mbedtls_mpi_div_mpi+0x28c>
/home/nk/optee/optee_os/lib/libmbedtls/mbedtls/library/bignum.c:1883
    6a54:	aa1a03e1 	mov	x1, x26
    6a58:	aa1b03e0 	mov	x0, x27
    6a5c:	97fffaad 	bl	5510 <mbedtls_mpi_copy>
    6a60:	35001300 	cbnz	w0, 6cc0 <mbedtls_mpi_div_mpi+0x4d4>
/home/nk/optee/optee_os/lib/libmbedtls/mbedtls/library/bignum.c:1884
    6a64:	f94043e1 	ldr	x1, [sp, #128]
    6a68:	79400300 	ldrh	w0, [x24]
    6a6c:	79400021 	ldrh	w1, [x1]
    6a70:	1b017c00 	mul	w0, w0, w1
    6a74:	79000360 	strh	w0, [x27]
/home/nk/optee/optee_os/lib/libmbedtls/mbedtls/library/bignum.c:1887
    6a78:	b4fff2b7 	cbz	x23, 68cc <mbedtls_mpi_div_mpi+0xe0>
/home/nk/optee/optee_os/lib/libmbedtls/mbedtls/library/bignum.c:1889
    6a7c:	f9403fe1 	ldr	x1, [sp, #120]
    6a80:	aa1403e0 	mov	x0, x20
    6a84:	97fffcc6 	bl	5d9c <mbedtls_mpi_shift_r>
    6a88:	350011c0 	cbnz	w0, 6cc0 <mbedtls_mpi_div_mpi+0x4d4>
/home/nk/optee/optee_os/lib/libmbedtls/mbedtls/library/bignum.c:1890
    6a8c:	79400300 	ldrh	w0, [x24]
/home/nk/optee/optee_os/lib/libmbedtls/mbedtls/library/bignum.c:1891
    6a90:	aa1403e1 	mov	x1, x20
/home/nk/optee/optee_os/lib/libmbedtls/mbedtls/library/bignum.c:1890
    6a94:	790193e0 	strh	w0, [sp, #200]
/home/nk/optee/optee_os/lib/libmbedtls/mbedtls/library/bignum.c:1891
    6a98:	aa1703e0 	mov	x0, x23
    6a9c:	97fffa9d 	bl	5510 <mbedtls_mpi_copy>
    6aa0:	35001100 	cbnz	w0, 6cc0 <mbedtls_mpi_div_mpi+0x4d4>
/home/nk/optee/optee_os/lib/libmbedtls/mbedtls/library/bignum.c:1893
    6aa4:	52800001 	mov	w1, #0x0                   	// #0
    6aa8:	aa1703e0 	mov	x0, x23
    6aac:	97fffd81 	bl	60b0 <mbedtls_mpi_cmp_int>
    6ab0:	35fff0e0 	cbnz	w0, 68cc <mbedtls_mpi_div_mpi+0xe0>
/home/nk/optee/optee_os/lib/libmbedtls/mbedtls/library/bignum.c:1894
    6ab4:	52800020 	mov	w0, #0x1                   	// #1
/home/nk/optee/optee_os/lib/libmbedtls/mbedtls/library/bignum.c:1891
    6ab8:	52800019 	mov	w25, #0x0                   	// #0
/home/nk/optee/optee_os/lib/libmbedtls/mbedtls/library/bignum.c:1894
    6abc:	790002e0 	strh	w0, [x23]
    6ac0:	17ffff83 	b	68cc <mbedtls_mpi_div_mpi+0xe0>
/home/nk/optee/optee_os/lib/libmbedtls/mbedtls/library/bignum.c:1829
    6ac4:	f9003fff 	str	xzr, [sp, #120]
    6ac8:	17ffffc1 	b	69cc <mbedtls_mpi_div_mpi+0x1e0>
/home/nk/optee/optee_os/lib/libmbedtls/mbedtls/library/bignum.c:1837
    6acc:	f94087e1 	ldr	x1, [sp, #264]
/home/nk/optee/optee_os/lib/libmbedtls/mbedtls/library/bignum.c:1838
    6ad0:	aa1603e2 	mov	x2, x22
/home/nk/optee/optee_os/lib/libmbedtls/mbedtls/library/bignum.c:1837
    6ad4:	b8736820 	ldr	w0, [x1, x19]
    6ad8:	11000400 	add	w0, w0, #0x1
    6adc:	b8336820 	str	w0, [x1, x19]
/home/nk/optee/optee_os/lib/libmbedtls/mbedtls/library/bignum.c:1838
    6ae0:	aa1403e1 	mov	x1, x20
    6ae4:	aa1403e0 	mov	x0, x20
    6ae8:	97fffe24 	bl	6378 <mbedtls_mpi_sub_mpi>
    6aec:	2a0003f9 	mov	w25, w0
    6af0:	34fff860 	cbz	w0, 69fc <mbedtls_mpi_div_mpi+0x210>
    6af4:	17ffff76 	b	68cc <mbedtls_mpi_div_mpi+0xe0>
/home/nk/optee/optee_os/lib/libmbedtls/mbedtls/library/bignum.c:1844
    6af8:	f94047e3 	ldr	x3, [sp, #136]
    6afc:	d37ef785 	lsl	x5, x28, #2
    6b00:	f9407be0 	ldr	x0, [sp, #240]
    6b04:	d10010a7 	sub	x7, x5, #0x4
    6b08:	f9406fe2 	ldr	x2, [sp, #216]
    6b0c:	b8636804 	ldr	w4, [x0, x3]
    6b10:	f94087e0 	ldr	x0, [sp, #264]
    6b14:	8b050048 	add	x8, x2, x5
    6b18:	b8656841 	ldr	w1, [x2, x5]
    6b1c:	8b130006 	add	x6, x0, x19
    6b20:	6b04003f 	cmp	w1, w4
    6b24:	54000ac3 	b.cc	6c7c <mbedtls_mpi_div_mpi+0x490>  // b.lo, b.ul, b.last
/home/nk/optee/optee_os/lib/libmbedtls/mbedtls/library/bignum.c:1845
    6b28:	12800001 	mov	w1, #0xffffffff            	// #-1
    6b2c:	b8336801 	str	w1, [x0, x19]
/home/nk/optee/optee_os/lib/libmbedtls/mbedtls/library/bignum.c:1852
    6b30:	f100079f 	cmp	x28, #0x1
    6b34:	54000be0 	b.eq	6cb0 <mbedtls_mpi_div_mpi+0x4c4>  // b.none
/home/nk/optee/optee_os/lib/libmbedtls/mbedtls/library/bignum.c:1852 (discriminator 1)
    6b38:	b85f8101 	ldur	w1, [x8, #-8]
/home/nk/optee/optee_os/lib/libmbedtls/mbedtls/library/bignum.c:1852 (discriminator 4)
    6b3c:	f9409fe0 	ldr	x0, [sp, #312]
    6b40:	b9000001 	str	w1, [x0]
/home/nk/optee/optee_os/lib/libmbedtls/mbedtls/library/bignum.c:1853 (discriminator 4)
    6b44:	b8676841 	ldr	w1, [x2, x7]
    6b48:	b9000401 	str	w1, [x0, #4]
/home/nk/optee/optee_os/lib/libmbedtls/mbedtls/library/bignum.c:1854 (discriminator 4)
    6b4c:	b8656841 	ldr	w1, [x2, x5]
    6b50:	b9000801 	str	w1, [x0, #8]
/home/nk/optee/optee_os/lib/libmbedtls/mbedtls/library/bignum.c:1856 (discriminator 4)
    6b54:	b94000c0 	ldr	w0, [x6]
    6b58:	11000400 	add	w0, w0, #0x1
    6b5c:	b90000c0 	str	w0, [x6]
/home/nk/optee/optee_os/lib/libmbedtls/mbedtls/library/bignum.c:1859
    6b60:	f94087e1 	ldr	x1, [sp, #264]
    6b64:	b8736820 	ldr	w0, [x1, x19]
    6b68:	51000400 	sub	w0, w0, #0x1
    6b6c:	b8336820 	str	w0, [x1, x19]
/home/nk/optee/optee_os/lib/libmbedtls/mbedtls/library/bignum.c:1861
    6b70:	52800001 	mov	w1, #0x0                   	// #0
    6b74:	aa1503e0 	mov	x0, x21
    6b78:	97fffb14 	bl	57c8 <mbedtls_mpi_lset>
    6b7c:	35000a20 	cbnz	w0, 6cc0 <mbedtls_mpi_div_mpi+0x4d4>
/home/nk/optee/optee_os/lib/libmbedtls/mbedtls/library/bignum.c:1862
    6b80:	f9404be0 	ldr	x0, [sp, #144]
    6b84:	f9407be1 	ldr	x1, [sp, #240]
    6b88:	b4000980 	cbz	x0, 6cb8 <mbedtls_mpi_div_mpi+0x4cc>
/home/nk/optee/optee_os/lib/libmbedtls/mbedtls/library/bignum.c:1862 (discriminator 1)
    6b8c:	f94047e0 	ldr	x0, [sp, #136]
    6b90:	8b000020 	add	x0, x1, x0
    6b94:	b85fc002 	ldur	w2, [x0, #-4]
/home/nk/optee/optee_os/lib/libmbedtls/mbedtls/library/bignum.c:1862 (discriminator 4)
    6b98:	f94093e0 	ldr	x0, [sp, #288]
    6b9c:	b9000002 	str	w2, [x0]
/home/nk/optee/optee_os/lib/libmbedtls/mbedtls/library/bignum.c:1863 (discriminator 4)
    6ba0:	f94047e2 	ldr	x2, [sp, #136]
    6ba4:	b8626821 	ldr	w1, [x1, x2]
    6ba8:	b9000401 	str	w1, [x0, #4]
/home/nk/optee/optee_os/lib/libmbedtls/mbedtls/library/bignum.c:1864 (discriminator 4)
    6bac:	aa1503e1 	mov	x1, x21
    6bb0:	f94087e0 	ldr	x0, [sp, #264]
    6bb4:	b8736802 	ldr	w2, [x0, x19]
    6bb8:	aa1503e0 	mov	x0, x21
    6bbc:	97fffe86 	bl	65d4 <mbedtls_mpi_mul_int>
    6bc0:	35000800 	cbnz	w0, 6cc0 <mbedtls_mpi_div_mpi+0x4d4>
/home/nk/optee/optee_os/lib/libmbedtls/mbedtls/library/bignum.c:1866
    6bc4:	f94053e1 	ldr	x1, [sp, #160]
    6bc8:	aa1503e0 	mov	x0, x21
    6bcc:	97fffccd 	bl	5f00 <mbedtls_mpi_cmp_mpi>
    6bd0:	7100001f 	cmp	w0, #0x0
    6bd4:	54fffc6c 	b.gt	6b60 <mbedtls_mpi_div_mpi+0x374>
/home/nk/optee/optee_os/lib/libmbedtls/mbedtls/library/bignum.c:1868
    6bd8:	f94087e0 	ldr	x0, [sp, #264]
    6bdc:	aa1603e1 	mov	x1, x22
    6be0:	b8736802 	ldr	w2, [x0, x19]
    6be4:	aa1503e0 	mov	x0, x21
    6be8:	97fffe7b 	bl	65d4 <mbedtls_mpi_mul_int>
    6bec:	350006a0 	cbnz	w0, 6cc0 <mbedtls_mpi_div_mpi+0x4d4>
/home/nk/optee/optee_os/lib/libmbedtls/mbedtls/library/bignum.c:1869
    6bf0:	d37df260 	lsl	x0, x19, #3
    6bf4:	f90057e0 	str	x0, [sp, #168]
    6bf8:	aa0003e1 	mov	x1, x0
    6bfc:	aa1503e0 	mov	x0, x21
    6c00:	97fffc27 	bl	5c9c <mbedtls_mpi_shift_l>
    6c04:	350005e0 	cbnz	w0, 6cc0 <mbedtls_mpi_div_mpi+0x4d4>
/home/nk/optee/optee_os/lib/libmbedtls/mbedtls/library/bignum.c:1870
    6c08:	aa1503e2 	mov	x2, x21
    6c0c:	aa1403e1 	mov	x1, x20
    6c10:	aa1403e0 	mov	x0, x20
    6c14:	97fffdd9 	bl	6378 <mbedtls_mpi_sub_mpi>
    6c18:	35000540 	cbnz	w0, 6cc0 <mbedtls_mpi_div_mpi+0x4d4>
/home/nk/optee/optee_os/lib/libmbedtls/mbedtls/library/bignum.c:1872
    6c1c:	52800001 	mov	w1, #0x0                   	// #0
    6c20:	aa1403e0 	mov	x0, x20
    6c24:	97fffd23 	bl	60b0 <mbedtls_mpi_cmp_int>
    6c28:	36f80240 	tbz	w0, #31, 6c70 <mbedtls_mpi_div_mpi+0x484>
/home/nk/optee/optee_os/lib/libmbedtls/mbedtls/library/bignum.c:1874
    6c2c:	aa1603e1 	mov	x1, x22
    6c30:	aa1503e0 	mov	x0, x21
    6c34:	97fffa37 	bl	5510 <mbedtls_mpi_copy>
    6c38:	35000440 	cbnz	w0, 6cc0 <mbedtls_mpi_div_mpi+0x4d4>
/home/nk/optee/optee_os/lib/libmbedtls/mbedtls/library/bignum.c:1875
    6c3c:	d37df261 	lsl	x1, x19, #3
    6c40:	aa1503e0 	mov	x0, x21
    6c44:	97fffc16 	bl	5c9c <mbedtls_mpi_shift_l>
    6c48:	350003c0 	cbnz	w0, 6cc0 <mbedtls_mpi_div_mpi+0x4d4>
/home/nk/optee/optee_os/lib/libmbedtls/mbedtls/library/bignum.c:1876
    6c4c:	aa1503e2 	mov	x2, x21
    6c50:	aa1403e1 	mov	x1, x20
    6c54:	aa1403e0 	mov	x0, x20
    6c58:	97fffda6 	bl	62f0 <mbedtls_mpi_add_mpi>
    6c5c:	35000320 	cbnz	w0, 6cc0 <mbedtls_mpi_div_mpi+0x4d4>
/home/nk/optee/optee_os/lib/libmbedtls/mbedtls/library/bignum.c:1877
    6c60:	f94087e1 	ldr	x1, [sp, #264]
    6c64:	b8736820 	ldr	w0, [x1, x19]
    6c68:	51000400 	sub	w0, w0, #0x1
    6c6c:	b8336820 	str	w0, [x1, x19]
/home/nk/optee/optee_os/lib/libmbedtls/mbedtls/library/bignum.c:1842 (discriminator 2)
    6c70:	d100079c 	sub	x28, x28, #0x1
    6c74:	d1001273 	sub	x19, x19, #0x4
    6c78:	17ffff73 	b	6a44 <mbedtls_mpi_div_mpi+0x258>
/home/nk/optee/optee_os/lib/libmbedtls/mbedtls/library/bignum.c:1848
    6c7c:	b8676840 	ldr	w0, [x2, x7]
mbedtls_int_div_int():
/home/nk/optee/optee_os/lib/libmbedtls/mbedtls/library/bignum.c:1702
    6c80:	34000144 	cbz	w4, 6ca8 <mbedtls_mpi_div_mpi+0x4bc>
/home/nk/optee/optee_os/lib/libmbedtls/mbedtls/library/bignum.c:1711
    6c84:	2a0003e0 	mov	w0, w0
/home/nk/optee/optee_os/lib/libmbedtls/mbedtls/library/bignum.c:1712
    6c88:	2a0403e4 	mov	w4, w4
/home/nk/optee/optee_os/lib/libmbedtls/mbedtls/library/bignum.c:1711
    6c8c:	aa018000 	orr	x0, x0, x1, lsl #32
/home/nk/optee/optee_os/lib/libmbedtls/mbedtls/library/bignum.c:1719
    6c90:	b2407fe1 	mov	x1, #0xffffffff            	// #4294967295
/home/nk/optee/optee_os/lib/libmbedtls/mbedtls/library/bignum.c:1712
    6c94:	9ac40800 	udiv	x0, x0, x4
/home/nk/optee/optee_os/lib/libmbedtls/mbedtls/library/bignum.c:1719
    6c98:	eb01001f 	cmp	x0, x1
    6c9c:	9a819000 	csel	x0, x0, x1, ls  // ls = plast
mbedtls_mpi_div_mpi():
/home/nk/optee/optee_os/lib/libmbedtls/mbedtls/library/bignum.c:1848
    6ca0:	b90000c0 	str	w0, [x6]
    6ca4:	17ffffa3 	b	6b30 <mbedtls_mpi_div_mpi+0x344>
mbedtls_int_div_int():
/home/nk/optee/optee_os/lib/libmbedtls/mbedtls/library/bignum.c:1706
    6ca8:	12800000 	mov	w0, #0xffffffff            	// #-1
    6cac:	17fffffd 	b	6ca0 <mbedtls_mpi_div_mpi+0x4b4>
mbedtls_mpi_div_mpi():
/home/nk/optee/optee_os/lib/libmbedtls/mbedtls/library/bignum.c:1852
    6cb0:	52800001 	mov	w1, #0x0                   	// #0
    6cb4:	17ffffa2 	b	6b3c <mbedtls_mpi_div_mpi+0x350>
/home/nk/optee/optee_os/lib/libmbedtls/mbedtls/library/bignum.c:1862
    6cb8:	52800002 	mov	w2, #0x0                   	// #0
    6cbc:	17ffffb7 	b	6b98 <mbedtls_mpi_div_mpi+0x3ac>
    6cc0:	2a0003f9 	mov	w25, w0
    6cc4:	17ffff02 	b	68cc <mbedtls_mpi_div_mpi+0xe0>
/home/nk/optee/optee_os/lib/libmbedtls/mbedtls/library/bignum.c:1792
    6cc8:	12800179 	mov	w25, #0xfffffff4            	// #-12
    6ccc:	17fffef2 	b	6894 <mbedtls_mpi_div_mpi+0xa8>

0000000000006cd0 <mbedtls_mpi_div_int>:
mbedtls_mpi_div_int():
/home/nk/optee/optee_os/lib/libmbedtls/mbedtls/library/bignum.c:1912
    6cd0:	a9bd7bfd 	stp	x29, x30, [sp, #-48]!
/home/nk/optee/optee_os/lib/libmbedtls/mbedtls/library/bignum.c:1917
    6cd4:	7100007f 	cmp	w3, #0x0
    6cd8:	5a83a464 	cneg	w4, w3, lt  // lt = tstop
/home/nk/optee/optee_os/lib/libmbedtls/mbedtls/library/bignum.c:1912
    6cdc:	910003fd 	mov	x29, sp
/home/nk/optee/optee_os/lib/libmbedtls/mbedtls/library/bignum.c:1917
    6ce0:	b90013e4 	str	w4, [sp, #16]
/home/nk/optee/optee_os/lib/libmbedtls/mbedtls/library/bignum.c:1918
    6ce4:	52800024 	mov	w4, #0x1                   	// #1
    6ce8:	5a84a484 	cneg	w4, w4, lt  // lt = tstop
/home/nk/optee/optee_os/lib/libmbedtls/mbedtls/library/bignum.c:1919
    6cec:	d2800023 	mov	x3, #0x1                   	// #1
    6cf0:	f90013e3 	str	x3, [sp, #32]
/home/nk/optee/optee_os/lib/libmbedtls/mbedtls/library/bignum.c:1920
    6cf4:	910043e3 	add	x3, sp, #0x10
/home/nk/optee/optee_os/lib/libmbedtls/mbedtls/library/bignum.c:1918
    6cf8:	790033e4 	strh	w4, [sp, #24]
/home/nk/optee/optee_os/lib/libmbedtls/mbedtls/library/bignum.c:1920
    6cfc:	f90017e3 	str	x3, [sp, #40]
/home/nk/optee/optee_os/lib/libmbedtls/mbedtls/library/bignum.c:1922
    6d00:	910063e3 	add	x3, sp, #0x18
    6d04:	97fffeba 	bl	67ec <mbedtls_mpi_div_mpi>
/home/nk/optee/optee_os/lib/libmbedtls/mbedtls/library/bignum.c:1923
    6d08:	a8c37bfd 	ldp	x29, x30, [sp], #48
    6d0c:	d65f03c0 	ret

0000000000006d10 <mbedtls_mpi_mod_mpi>:
mbedtls_mpi_mod_mpi():
/home/nk/optee/optee_os/lib/libmbedtls/mbedtls/library/bignum.c:1929
    6d10:	a9bd7bfd 	stp	x29, x30, [sp, #-48]!
    6d14:	910003fd 	mov	x29, sp
    6d18:	a90153f3 	stp	x19, x20, [sp, #16]
    6d1c:	aa0003f3 	mov	x19, x0
    6d20:	aa0103f4 	mov	x20, x1
/home/nk/optee/optee_os/lib/libmbedtls/mbedtls/library/bignum.c:1935
    6d24:	aa0203e0 	mov	x0, x2
    6d28:	52800001 	mov	w1, #0x0                   	// #0
/home/nk/optee/optee_os/lib/libmbedtls/mbedtls/library/bignum.c:1929
    6d2c:	f90013f5 	str	x21, [sp, #32]
    6d30:	aa0203f5 	mov	x21, x2
/home/nk/optee/optee_os/lib/libmbedtls/mbedtls/library/bignum.c:1935
    6d34:	97fffcdf 	bl	60b0 <mbedtls_mpi_cmp_int>
    6d38:	37f80420 	tbnz	w0, #31, 6dbc <mbedtls_mpi_mod_mpi+0xac>
/home/nk/optee/optee_os/lib/libmbedtls/mbedtls/library/bignum.c:1938
    6d3c:	aa1403e2 	mov	x2, x20
    6d40:	aa1503e3 	mov	x3, x21
    6d44:	aa1303e1 	mov	x1, x19
    6d48:	d2800000 	mov	x0, #0x0                   	// #0
    6d4c:	97fffea8 	bl	67ec <mbedtls_mpi_div_mpi>
    6d50:	2a0003f4 	mov	w20, w0
    6d54:	34000160 	cbz	w0, 6d80 <mbedtls_mpi_mod_mpi+0x70>
/home/nk/optee/optee_os/lib/libmbedtls/mbedtls/library/bignum.c:1949
    6d58:	2a1403e0 	mov	w0, w20
    6d5c:	a94153f3 	ldp	x19, x20, [sp, #16]
    6d60:	f94013f5 	ldr	x21, [sp, #32]
    6d64:	a8c37bfd 	ldp	x29, x30, [sp], #48
    6d68:	d65f03c0 	ret
/home/nk/optee/optee_os/lib/libmbedtls/mbedtls/library/bignum.c:1941
    6d6c:	aa1503e2 	mov	x2, x21
    6d70:	aa1303e1 	mov	x1, x19
    6d74:	aa1303e0 	mov	x0, x19
    6d78:	97fffd5e 	bl	62f0 <mbedtls_mpi_add_mpi>
    6d7c:	350001c0 	cbnz	w0, 6db4 <mbedtls_mpi_mod_mpi+0xa4>
/home/nk/optee/optee_os/lib/libmbedtls/mbedtls/library/bignum.c:1940
    6d80:	52800001 	mov	w1, #0x0                   	// #0
    6d84:	aa1303e0 	mov	x0, x19
    6d88:	97fffcca 	bl	60b0 <mbedtls_mpi_cmp_int>
    6d8c:	37ffff00 	tbnz	w0, #31, 6d6c <mbedtls_mpi_mod_mpi+0x5c>
/home/nk/optee/optee_os/lib/libmbedtls/mbedtls/library/bignum.c:1943
    6d90:	aa1503e1 	mov	x1, x21
    6d94:	aa1303e0 	mov	x0, x19
    6d98:	97fffc5a 	bl	5f00 <mbedtls_mpi_cmp_mpi>
    6d9c:	37fffde0 	tbnz	w0, #31, 6d58 <mbedtls_mpi_mod_mpi+0x48>
/home/nk/optee/optee_os/lib/libmbedtls/mbedtls/library/bignum.c:1944
    6da0:	aa1503e2 	mov	x2, x21
    6da4:	aa1303e1 	mov	x1, x19
    6da8:	aa1303e0 	mov	x0, x19
    6dac:	97fffd73 	bl	6378 <mbedtls_mpi_sub_mpi>
    6db0:	34ffff00 	cbz	w0, 6d90 <mbedtls_mpi_mod_mpi+0x80>
    6db4:	2a0003f4 	mov	w20, w0
    6db8:	17ffffe8 	b	6d58 <mbedtls_mpi_mod_mpi+0x48>
/home/nk/optee/optee_os/lib/libmbedtls/mbedtls/library/bignum.c:1936
    6dbc:	12800134 	mov	w20, #0xfffffff6            	// #-10
    6dc0:	17ffffe6 	b	6d58 <mbedtls_mpi_mod_mpi+0x48>

0000000000006dc4 <mbedtls_mpi_mod_int>:
mbedtls_mpi_mod_int():
/home/nk/optee/optee_os/lib/libmbedtls/mbedtls/library/bignum.c:1961
    6dc4:	7100005f 	cmp	w2, #0x0
    6dc8:	54000460 	b.eq	6e54 <mbedtls_mpi_mod_int+0x90>  // b.none
/home/nk/optee/optee_os/lib/libmbedtls/mbedtls/library/bignum.c:1964
    6dcc:	5400048b 	b.lt	6e5c <mbedtls_mpi_mod_int+0x98>  // b.tstop
/home/nk/optee/optee_os/lib/libmbedtls/mbedtls/library/bignum.c:1970
    6dd0:	7100045f 	cmp	w2, #0x1
    6dd4:	54000081 	b.ne	6de4 <mbedtls_mpi_mod_int+0x20>  // b.any
/home/nk/optee/optee_os/lib/libmbedtls/mbedtls/library/bignum.c:1972
    6dd8:	b900001f 	str	wzr, [x0]
/home/nk/optee/optee_os/lib/libmbedtls/mbedtls/library/bignum.c:2005
    6ddc:	52800000 	mov	w0, #0x0                   	// #0
/home/nk/optee/optee_os/lib/libmbedtls/mbedtls/library/bignum.c:2008
    6de0:	d65f03c0 	ret
/home/nk/optee/optee_os/lib/libmbedtls/mbedtls/library/bignum.c:1976
    6de4:	7100085f 	cmp	w2, #0x2
    6de8:	540000c1 	b.ne	6e00 <mbedtls_mpi_mod_int+0x3c>  // b.any
/home/nk/optee/optee_os/lib/libmbedtls/mbedtls/library/bignum.c:1978
    6dec:	f9400821 	ldr	x1, [x1, #16]
    6df0:	b9400021 	ldr	w1, [x1]
    6df4:	12000021 	and	w1, w1, #0x1
    6df8:	b9000001 	str	w1, [x0]
/home/nk/optee/optee_os/lib/libmbedtls/mbedtls/library/bignum.c:1979
    6dfc:	17fffff8 	b	6ddc <mbedtls_mpi_mod_int+0x18>
/home/nk/optee/optee_os/lib/libmbedtls/mbedtls/library/bignum.c:1985
    6e00:	f9400425 	ldr	x5, [x1, #8]
    6e04:	52800003 	mov	w3, #0x0                   	// #0
    6e08:	d10004a5 	sub	x5, x5, #0x1
    6e0c:	b10004bf 	cmn	x5, #0x1
    6e10:	540000e1 	b.ne	6e2c <mbedtls_mpi_mod_int+0x68>  // b.any
/home/nk/optee/optee_os/lib/libmbedtls/mbedtls/library/bignum.c:2002
    6e14:	79c00021 	ldrsh	w1, [x1]
    6e18:	36f80061 	tbz	w1, #31, 6e24 <mbedtls_mpi_mod_int+0x60>
    6e1c:	34000043 	cbz	w3, 6e24 <mbedtls_mpi_mod_int+0x60>
/home/nk/optee/optee_os/lib/libmbedtls/mbedtls/library/bignum.c:2003
    6e20:	4b030043 	sub	w3, w2, w3
/home/nk/optee/optee_os/lib/libmbedtls/mbedtls/library/bignum.c:2005
    6e24:	b9000003 	str	w3, [x0]
    6e28:	17ffffed 	b	6ddc <mbedtls_mpi_mod_int+0x18>
/home/nk/optee/optee_os/lib/libmbedtls/mbedtls/library/bignum.c:1987
    6e2c:	f9400824 	ldr	x4, [x1, #16]
    6e30:	b8657886 	ldr	w6, [x4, x5, lsl #2]
/home/nk/optee/optee_os/lib/libmbedtls/mbedtls/library/bignum.c:1988
    6e34:	13864063 	extr	w3, w3, w6, #16
/home/nk/optee/optee_os/lib/libmbedtls/mbedtls/library/bignum.c:1993
    6e38:	1ac20864 	udiv	w4, w3, w2
    6e3c:	1b028c83 	msub	w3, w4, w2, w3
    6e40:	12003cc4 	and	w4, w6, #0xffff
    6e44:	2a034084 	orr	w4, w4, w3, lsl #16
    6e48:	1ac20883 	udiv	w3, w4, w2
    6e4c:	1b029063 	msub	w3, w3, w2, w4
    6e50:	17ffffee 	b	6e08 <mbedtls_mpi_mod_int+0x44>
/home/nk/optee/optee_os/lib/libmbedtls/mbedtls/library/bignum.c:1962
    6e54:	12800160 	mov	w0, #0xfffffff4            	// #-12
    6e58:	17ffffe2 	b	6de0 <mbedtls_mpi_mod_int+0x1c>
/home/nk/optee/optee_os/lib/libmbedtls/mbedtls/library/bignum.c:1965
    6e5c:	12800120 	mov	w0, #0xfffffff6            	// #-10
    6e60:	17ffffe0 	b	6de0 <mbedtls_mpi_mod_int+0x1c>

0000000000006e64 <mbedtls_mpi_write_string>:
mbedtls_mpi_write_string():
/home/nk/optee/optee_os/lib/libmbedtls/mbedtls/library/bignum.c:622
    6e64:	a9b87bfd 	stp	x29, x30, [sp, #-128]!
    6e68:	910003fd 	mov	x29, sp
    6e6c:	a90153f3 	stp	x19, x20, [sp, #16]
    6e70:	a9025bf5 	stp	x21, x22, [sp, #32]
    6e74:	2a0103f5 	mov	w21, w1
/home/nk/optee/optee_os/lib/libmbedtls/mbedtls/library/bignum.c:631
    6e78:	51000821 	sub	w1, w1, #0x2
/home/nk/optee/optee_os/lib/libmbedtls/mbedtls/library/bignum.c:622
    6e7c:	a90363f7 	stp	x23, x24, [sp, #48]
/home/nk/optee/optee_os/lib/libmbedtls/mbedtls/library/bignum.c:631
    6e80:	7100383f 	cmp	w1, #0xe
/home/nk/optee/optee_os/lib/libmbedtls/mbedtls/library/bignum.c:622
    6e84:	a9046bf9 	stp	x25, x26, [sp, #64]
    6e88:	a90573fb 	stp	x27, x28, [sp, #80]
/home/nk/optee/optee_os/lib/libmbedtls/mbedtls/library/bignum.c:631
    6e8c:	54001028 	b.hi	7090 <mbedtls_mpi_write_string+0x22c>  // b.pmore
    6e90:	aa0003f4 	mov	x20, x0
    6e94:	aa0203f7 	mov	x23, x2
    6e98:	aa0303f8 	mov	x24, x3
    6e9c:	aa0403f6 	mov	x22, x4
/home/nk/optee/optee_os/lib/libmbedtls/mbedtls/library/bignum.c:634
    6ea0:	97fffaa7 	bl	593c <mbedtls_mpi_bitlen>
/home/nk/optee/optee_os/lib/libmbedtls/mbedtls/library/bignum.c:635
    6ea4:	71000ebf 	cmp	w21, #0x3
    6ea8:	5400004d 	b.le	6eb0 <mbedtls_mpi_write_string+0x4c>
/home/nk/optee/optee_os/lib/libmbedtls/mbedtls/library/bignum.c:635 (discriminator 1)
    6eac:	d341fc00 	lsr	x0, x0, #1
/home/nk/optee/optee_os/lib/libmbedtls/mbedtls/library/bignum.c:639
    6eb0:	710042bf 	cmp	w21, #0x10
    6eb4:	54000041 	b.ne	6ebc <mbedtls_mpi_write_string+0x58>  // b.any
/home/nk/optee/optee_os/lib/libmbedtls/mbedtls/library/bignum.c:639 (discriminator 1)
    6eb8:	d341fc00 	lsr	x0, x0, #1
/home/nk/optee/optee_os/lib/libmbedtls/mbedtls/library/bignum.c:646
    6ebc:	91001000 	add	x0, x0, #0x4
    6ec0:	927ff800 	and	x0, x0, #0xfffffffffffffffe
/home/nk/optee/optee_os/lib/libmbedtls/mbedtls/library/bignum.c:649
    6ec4:	eb18001f 	cmp	x0, x24
    6ec8:	54000169 	b.ls	6ef4 <mbedtls_mpi_write_string+0x90>  // b.plast
/home/nk/optee/optee_os/lib/libmbedtls/mbedtls/library/bignum.c:652
    6ecc:	128000f4 	mov	w20, #0xfffffff8            	// #-8
/home/nk/optee/optee_os/lib/libmbedtls/mbedtls/library/bignum.c:651
    6ed0:	f90002c0 	str	x0, [x22]
/home/nk/optee/optee_os/lib/libmbedtls/mbedtls/library/bignum.c:702
    6ed4:	2a1403e0 	mov	w0, w20
    6ed8:	a94153f3 	ldp	x19, x20, [sp, #16]
    6edc:	a9425bf5 	ldp	x21, x22, [sp, #32]
    6ee0:	a94363f7 	ldp	x23, x24, [sp, #48]
    6ee4:	a9446bf9 	ldp	x25, x26, [sp, #64]
    6ee8:	a94573fb 	ldp	x27, x28, [sp, #80]
    6eec:	a8c87bfd 	ldp	x29, x30, [sp], #128
    6ef0:	d65f03c0 	ret
/home/nk/optee/optee_os/lib/libmbedtls/mbedtls/library/bignum.c:656
    6ef4:	9101a3f9 	add	x25, sp, #0x68
/home/nk/optee/optee_os/lib/libmbedtls/mbedtls/library/bignum.c:660
    6ef8:	aa1703f3 	mov	x19, x23
/home/nk/optee/optee_os/lib/libmbedtls/mbedtls/library/bignum.c:656
    6efc:	aa1903e0 	mov	x0, x25
    6f00:	97fff8d9 	bl	5264 <mbedtls_mpi_init_mempool>
/home/nk/optee/optee_os/lib/libmbedtls/mbedtls/library/bignum.c:658
    6f04:	79c00280 	ldrsh	w0, [x20]
    6f08:	3100041f 	cmn	w0, #0x1
    6f0c:	54000081 	b.ne	6f1c <mbedtls_mpi_write_string+0xb8>  // b.any
/home/nk/optee/optee_os/lib/libmbedtls/mbedtls/library/bignum.c:661
    6f10:	d1000718 	sub	x24, x24, #0x1
/home/nk/optee/optee_os/lib/libmbedtls/mbedtls/library/bignum.c:660
    6f14:	528005a0 	mov	w0, #0x2d                  	// #45
    6f18:	38001660 	strb	w0, [x19], #1
/home/nk/optee/optee_os/lib/libmbedtls/mbedtls/library/bignum.c:664
    6f1c:	710042bf 	cmp	w21, #0x10
    6f20:	54000561 	b.ne	6fcc <mbedtls_mpi_write_string+0x168>  // b.any
/home/nk/optee/optee_os/lib/libmbedtls/mbedtls/library/bignum.c:669
    6f24:	f9400682 	ldr	x2, [x20, #8]
/home/nk/optee/optee_os/lib/libmbedtls/mbedtls/library/bignum.c:678
    6f28:	d0000024 	adrp	x4, c000 <HEXDIGITS+0x62>
    6f2c:	91085884 	add	x4, x4, #0x216
/home/nk/optee/optee_os/lib/libmbedtls/mbedtls/library/bignum.c:669
    6f30:	d2800001 	mov	x1, #0x0                   	// #0
/home/nk/optee/optee_os/lib/libmbedtls/mbedtls/library/bignum.c:669 (discriminator 1)
    6f34:	b5000102 	cbnz	x2, 6f54 <mbedtls_mpi_write_string+0xf0>
/home/nk/optee/optee_os/lib/libmbedtls/mbedtls/library/bignum.c:694
    6f38:	3800167f 	strb	wzr, [x19], #1
/home/nk/optee/optee_os/lib/libmbedtls/mbedtls/library/bignum.c:695
    6f3c:	52800014 	mov	w20, #0x0                   	// #0
    6f40:	cb170273 	sub	x19, x19, x23
    6f44:	f90002d3 	str	x19, [x22]
/home/nk/optee/optee_os/lib/libmbedtls/mbedtls/library/bignum.c:699
    6f48:	aa1903e0 	mov	x0, x25
    6f4c:	97fff8d0 	bl	528c <mbedtls_mpi_free>
/home/nk/optee/optee_os/lib/libmbedtls/mbedtls/library/bignum.c:701
    6f50:	17ffffe1 	b	6ed4 <mbedtls_mpi_write_string+0x70>
/home/nk/optee/optee_os/lib/libmbedtls/mbedtls/library/bignum.c:673
    6f54:	d37ef445 	lsl	x5, x2, #2
    6f58:	d2800083 	mov	x3, #0x4                   	// #4
    6f5c:	d10010a5 	sub	x5, x5, #0x4
    6f60:	f9400a87 	ldr	x7, [x20, #16]
    6f64:	531d7060 	lsl	w0, w3, #3
    6f68:	51002006 	sub	w6, w0, #0x8
/home/nk/optee/optee_os/lib/libmbedtls/mbedtls/library/bignum.c:675
    6f6c:	52000021 	eor	w1, w1, #0x1
/home/nk/optee/optee_os/lib/libmbedtls/mbedtls/library/bignum.c:673
    6f70:	b86568e0 	ldr	w0, [x7, x5]
    6f74:	1ac62400 	lsr	w0, w0, w6
/home/nk/optee/optee_os/lib/libmbedtls/mbedtls/library/bignum.c:675
    6f78:	72001c06 	ands	w6, w0, #0xff
    6f7c:	1a9f0021 	csel	w1, w1, wzr, eq  // eq = none
    6f80:	34000081 	cbz	w1, 6f90 <mbedtls_mpi_write_string+0x12c>
/home/nk/optee/optee_os/lib/libmbedtls/mbedtls/library/bignum.c:675 (discriminator 1)
    6f84:	8b030041 	add	x1, x2, x3
    6f88:	f100083f 	cmp	x1, #0x2
    6f8c:	540001c1 	b.ne	6fc4 <mbedtls_mpi_write_string+0x160>  // b.any
/home/nk/optee/optee_os/lib/libmbedtls/mbedtls/library/bignum.c:678
    6f90:	d3441cc1 	ubfx	x1, x6, #4, #4
/home/nk/optee/optee_os/lib/libmbedtls/mbedtls/library/bignum.c:679
    6f94:	92400c00 	and	x0, x0, #0xf
/home/nk/optee/optee_os/lib/libmbedtls/mbedtls/library/bignum.c:678
    6f98:	38616886 	ldrb	w6, [x4, x1]
    6f9c:	aa1303e1 	mov	x1, x19
/home/nk/optee/optee_os/lib/libmbedtls/mbedtls/library/bignum.c:679
    6fa0:	38606880 	ldrb	w0, [x4, x0]
/home/nk/optee/optee_os/lib/libmbedtls/mbedtls/library/bignum.c:678
    6fa4:	38002426 	strb	w6, [x1], #2
/home/nk/optee/optee_os/lib/libmbedtls/mbedtls/library/bignum.c:679
    6fa8:	39000660 	strb	w0, [x19, #1]
    6fac:	aa0103f3 	mov	x19, x1
/home/nk/optee/optee_os/lib/libmbedtls/mbedtls/library/bignum.c:680
    6fb0:	d2800021 	mov	x1, #0x1                   	// #1
/home/nk/optee/optee_os/lib/libmbedtls/mbedtls/library/bignum.c:671 (discriminator 2)
    6fb4:	f1000463 	subs	x3, x3, #0x1
    6fb8:	54fffd41 	b.ne	6f60 <mbedtls_mpi_write_string+0xfc>  // b.any
/home/nk/optee/optee_os/lib/libmbedtls/mbedtls/library/bignum.c:669 (discriminator 2)
    6fbc:	d1000442 	sub	x2, x2, #0x1
    6fc0:	17ffffdd 	b	6f34 <mbedtls_mpi_write_string+0xd0>
    6fc4:	d2800001 	mov	x1, #0x0                   	// #0
    6fc8:	17fffffb 	b	6fb4 <mbedtls_mpi_write_string+0x150>
/home/nk/optee/optee_os/lib/libmbedtls/mbedtls/library/bignum.c:686
    6fcc:	aa1403e1 	mov	x1, x20
    6fd0:	aa1903e0 	mov	x0, x25
    6fd4:	97fff94f 	bl	5510 <mbedtls_mpi_copy>
    6fd8:	2a0003f4 	mov	w20, w0
    6fdc:	35fffb60 	cbnz	w0, 6f48 <mbedtls_mpi_write_string+0xe4>
/home/nk/optee/optee_os/lib/libmbedtls/mbedtls/library/bignum.c:688
    6fe0:	79c0d3e0 	ldrsh	w0, [sp, #104]
    6fe4:	3100041f 	cmn	w0, #0x1
    6fe8:	54000061 	b.ne	6ff4 <mbedtls_mpi_write_string+0x190>  // b.any
/home/nk/optee/optee_os/lib/libmbedtls/mbedtls/library/bignum.c:689
    6fec:	52800020 	mov	w0, #0x1                   	// #1
    6ff0:	7900d3e0 	strh	w0, [sp, #104]
mpi_write_hlp():
/home/nk/optee/optee_os/lib/libmbedtls/mbedtls/library/bignum.c:587
    6ff4:	8b18027a 	add	x26, x19, x24
/home/nk/optee/optee_os/lib/libmbedtls/mbedtls/library/bignum.c:596
    6ff8:	910193fb 	add	x27, sp, #0x64
/home/nk/optee/optee_os/lib/libmbedtls/mbedtls/library/bignum.c:587
    6ffc:	aa1a03fc 	mov	x28, x26
/home/nk/optee/optee_os/lib/libmbedtls/mbedtls/library/bignum.c:591
    7000:	cb1c0340 	sub	x0, x26, x28
    7004:	eb00031f 	cmp	x24, x0
    7008:	54000489 	b.ls	7098 <mbedtls_mpi_write_string+0x234>  // b.plast
/home/nk/optee/optee_os/lib/libmbedtls/mbedtls/library/bignum.c:596
    700c:	2a1503e2 	mov	w2, w21
    7010:	aa1903e1 	mov	x1, x25
    7014:	aa1b03e0 	mov	x0, x27
    7018:	97ffff6b 	bl	6dc4 <mbedtls_mpi_mod_int>
    701c:	2a0003f4 	mov	w20, w0
    7020:	35fff940 	cbnz	w0, 6f48 <mbedtls_mpi_write_string+0xe4>
/home/nk/optee/optee_os/lib/libmbedtls/mbedtls/library/bignum.c:597
    7024:	2a1503e3 	mov	w3, w21
    7028:	aa1903e2 	mov	x2, x25
    702c:	d2800001 	mov	x1, #0x0                   	// #0
    7030:	aa1903e0 	mov	x0, x25
    7034:	97ffff27 	bl	6cd0 <mbedtls_mpi_div_int>
    7038:	2a0003f4 	mov	w20, w0
    703c:	35fff860 	cbnz	w0, 6f48 <mbedtls_mpi_write_string+0xe4>
/home/nk/optee/optee_os/lib/libmbedtls/mbedtls/library/bignum.c:601
    7040:	b94067e2 	ldr	w2, [sp, #100]
    7044:	12001c40 	and	w0, w2, #0xff
/home/nk/optee/optee_os/lib/libmbedtls/mbedtls/library/bignum.c:602
    7048:	7100245f 	cmp	w2, #0x9
    704c:	1100c001 	add	w1, w0, #0x30
    7050:	1100dc00 	add	w0, w0, #0x37
    7054:	12001c21 	and	w1, w1, #0xff
    7058:	12001c00 	and	w0, w0, #0xff
    705c:	1a818000 	csel	w0, w0, w1, hi  // hi = pmore
    7060:	381fff80 	strb	w0, [x28, #-1]!
/home/nk/optee/optee_os/lib/libmbedtls/mbedtls/library/bignum.c:607
    7064:	52800001 	mov	w1, #0x0                   	// #0
    7068:	aa1903e0 	mov	x0, x25
    706c:	cb1c0354 	sub	x20, x26, x28
    7070:	97fffc10 	bl	60b0 <mbedtls_mpi_cmp_int>
    7074:	35fffc60 	cbnz	w0, 7000 <mbedtls_mpi_write_string+0x19c>
/home/nk/optee/optee_os/lib/libmbedtls/mbedtls/library/bignum.c:609
    7078:	aa1303e0 	mov	x0, x19
    707c:	aa1403e2 	mov	x2, x20
    7080:	aa1c03e1 	mov	x1, x28
/home/nk/optee/optee_os/lib/libmbedtls/mbedtls/library/bignum.c:610
    7084:	8b140273 	add	x19, x19, x20
/home/nk/optee/optee_os/lib/libmbedtls/mbedtls/library/bignum.c:609
    7088:	940009a8 	bl	9728 <memmove>
/home/nk/optee/optee_os/lib/libmbedtls/mbedtls/library/bignum.c:610
    708c:	17ffffab 	b	6f38 <mbedtls_mpi_write_string+0xd4>
mbedtls_mpi_write_string():
/home/nk/optee/optee_os/lib/libmbedtls/mbedtls/library/bignum.c:632
    7090:	12800074 	mov	w20, #0xfffffffc            	// #-4
    7094:	17ffff90 	b	6ed4 <mbedtls_mpi_write_string+0x70>
mpi_write_hlp():
/home/nk/optee/optee_os/lib/libmbedtls/mbedtls/library/bignum.c:593
    7098:	128000f4 	mov	w20, #0xfffffff8            	// #-8
    709c:	17ffffab 	b	6f48 <mbedtls_mpi_write_string+0xe4>

00000000000070a0 <mpi_check_small_factors>:
mpi_check_small_factors():
/home/nk/optee/optee_os/lib/libmbedtls/mbedtls/library/bignum.c:2551
    70a0:	f9400801 	ldr	x1, [x0, #16]
    70a4:	b9400021 	ldr	w1, [x1]
    70a8:	36000441 	tbz	w1, #0, 7130 <mpi_check_small_factors+0x90>
/home/nk/optee/optee_os/lib/libmbedtls/mbedtls/library/bignum.c:2546
    70ac:	a9bc7bfd 	stp	x29, x30, [sp, #-64]!
    70b0:	910003fd 	mov	x29, sp
    70b4:	a90153f3 	stp	x19, x20, [sp, #16]
    70b8:	90000033 	adrp	x19, b000 <__text_end+0x15f0>
    70bc:	aa0003f4 	mov	x20, x0
    70c0:	91297273 	add	x19, x19, #0xa5c
    70c4:	a9025bf5 	stp	x21, x22, [sp, #32]
/home/nk/optee/optee_os/lib/libmbedtls/mbedtls/library/bignum.c:2559
    70c8:	9100f3f6 	add	x22, sp, #0x3c
/home/nk/optee/optee_os/lib/libmbedtls/mbedtls/library/bignum.c:2554
    70cc:	b9400275 	ldr	w21, [x19]
    70d0:	710002bf 	cmp	w21, #0x0
    70d4:	540000cc 	b.gt	70ec <mpi_check_small_factors+0x4c>
    70d8:	52800000 	mov	w0, #0x0                   	// #0
/home/nk/optee/optee_os/lib/libmbedtls/mbedtls/library/bignum.c:2567
    70dc:	a94153f3 	ldp	x19, x20, [sp, #16]
    70e0:	a9425bf5 	ldp	x21, x22, [sp, #32]
    70e4:	a8c47bfd 	ldp	x29, x30, [sp], #64
    70e8:	d65f03c0 	ret
/home/nk/optee/optee_os/lib/libmbedtls/mbedtls/library/bignum.c:2556
    70ec:	2a1503e1 	mov	w1, w21
    70f0:	aa1403e0 	mov	x0, x20
    70f4:	97fffbef 	bl	60b0 <mbedtls_mpi_cmp_int>
    70f8:	7100001f 	cmp	w0, #0x0
    70fc:	5400016d 	b.le	7128 <mpi_check_small_factors+0x88>
/home/nk/optee/optee_os/lib/libmbedtls/mbedtls/library/bignum.c:2559
    7100:	2a1503e2 	mov	w2, w21
    7104:	aa1403e1 	mov	x1, x20
    7108:	aa1603e0 	mov	x0, x22
    710c:	97ffff2e 	bl	6dc4 <mbedtls_mpi_mod_int>
    7110:	35fffe60 	cbnz	w0, 70dc <mpi_check_small_factors+0x3c>
/home/nk/optee/optee_os/lib/libmbedtls/mbedtls/library/bignum.c:2561
    7114:	b9403fe0 	ldr	w0, [sp, #60]
    7118:	91001273 	add	x19, x19, #0x4
    711c:	35fffd80 	cbnz	w0, 70cc <mpi_check_small_factors+0x2c>
/home/nk/optee/optee_os/lib/libmbedtls/mbedtls/library/bignum.c:2562
    7120:	128001a0 	mov	w0, #0xfffffff2            	// #-14
    7124:	17ffffee 	b	70dc <mpi_check_small_factors+0x3c>
/home/nk/optee/optee_os/lib/libmbedtls/mbedtls/library/bignum.c:2557
    7128:	52800020 	mov	w0, #0x1                   	// #1
    712c:	17ffffec 	b	70dc <mpi_check_small_factors+0x3c>
/home/nk/optee/optee_os/lib/libmbedtls/mbedtls/library/bignum.c:2552
    7130:	128001a0 	mov	w0, #0xfffffff2            	// #-14
/home/nk/optee/optee_os/lib/libmbedtls/mbedtls/library/bignum.c:2567
    7134:	d65f03c0 	ret

0000000000007138 <mbedtls_mpi_montg_init>:
mbedtls_mpi_montg_init():
/home/nk/optee/optee_os/lib/libmbedtls/mbedtls/library/bignum.c:2015
    7138:	f9400821 	ldr	x1, [x1, #16]
/home/nk/optee/optee_os/lib/libmbedtls/mbedtls/library/bignum.c:2019
    713c:	52800062 	mov	w2, #0x3                   	// #3
/home/nk/optee/optee_os/lib/libmbedtls/mbedtls/library/bignum.c:2022
    7140:	52800045 	mov	w5, #0x2                   	// #2
/home/nk/optee/optee_os/lib/libmbedtls/mbedtls/library/bignum.c:2015
    7144:	b9400023 	ldr	w3, [x1]
/home/nk/optee/optee_os/lib/libmbedtls/mbedtls/library/bignum.c:2019
    7148:	11000861 	add	w1, w3, #0x2
    714c:	531f7821 	lsl	w1, w1, #1
    7150:	121d0021 	and	w1, w1, #0x8
    7154:	0b030021 	add	w1, w1, w3
/home/nk/optee/optee_os/lib/libmbedtls/mbedtls/library/bignum.c:2022 (discriminator 3)
    7158:	1b019464 	msub	w4, w3, w1, w5
/home/nk/optee/optee_os/lib/libmbedtls/mbedtls/library/bignum.c:2021 (discriminator 3)
    715c:	71000442 	subs	w2, w2, #0x1
/home/nk/optee/optee_os/lib/libmbedtls/mbedtls/library/bignum.c:2022 (discriminator 3)
    7160:	1b047c21 	mul	w1, w1, w4
/home/nk/optee/optee_os/lib/libmbedtls/mbedtls/library/bignum.c:2021 (discriminator 3)
    7164:	54ffffa1 	b.ne	7158 <mbedtls_mpi_montg_init+0x20>  // b.any
/home/nk/optee/optee_os/lib/libmbedtls/mbedtls/library/bignum.c:2024
    7168:	4b0103e1 	neg	w1, w1
    716c:	b9000001 	str	w1, [x0]
/home/nk/optee/optee_os/lib/libmbedtls/mbedtls/library/bignum.c:2025
    7170:	d65f03c0 	ret

0000000000007174 <mbedtls_mpi_montmul>:
mbedtls_mpi_montmul():
/home/nk/optee/optee_os/lib/libmbedtls/mbedtls/library/bignum.c:2037
    7174:	f9400445 	ldr	x5, [x2, #8]
    7178:	f9400486 	ldr	x6, [x4, #8]
    717c:	910004a5 	add	x5, x5, #0x1
    7180:	eb0500df 	cmp	x6, x5
    7184:	540008e3 	b.cc	72a0 <mbedtls_mpi_montmul+0x12c>  // b.lo, b.ul, b.last
/home/nk/optee/optee_os/lib/libmbedtls/mbedtls/library/bignum.c:2037 (discriminator 1)
    7188:	f9400885 	ldr	x5, [x4, #16]
    718c:	b40008a5 	cbz	x5, 72a0 <mbedtls_mpi_montmul+0x12c>
/home/nk/optee/optee_os/lib/libmbedtls/mbedtls/library/bignum.c:2033
    7190:	a9bb7bfd 	stp	x29, x30, [sp, #-80]!
    7194:	910003fd 	mov	x29, sp
    7198:	a90153f3 	stp	x19, x20, [sp, #16]
    719c:	aa0203f3 	mov	x19, x2
/home/nk/optee/optee_os/lib/libmbedtls/mbedtls/library/bignum.c:2040
    71a0:	d37ef4c2 	lsl	x2, x6, #2
/home/nk/optee/optee_os/lib/libmbedtls/mbedtls/library/bignum.c:2033
    71a4:	a90363f7 	stp	x23, x24, [sp, #48]
    71a8:	aa0103f8 	mov	x24, x1
    71ac:	2a0303f7 	mov	w23, w3
/home/nk/optee/optee_os/lib/libmbedtls/mbedtls/library/bignum.c:2040
    71b0:	52800001 	mov	w1, #0x0                   	// #0
/home/nk/optee/optee_os/lib/libmbedtls/mbedtls/library/bignum.c:2033
    71b4:	a9025bf5 	stp	x21, x22, [sp, #32]
    71b8:	aa0403f6 	mov	x22, x4
    71bc:	aa0003f5 	mov	x21, x0
/home/nk/optee/optee_os/lib/libmbedtls/mbedtls/library/bignum.c:2040
    71c0:	aa0503e0 	mov	x0, x5
/home/nk/optee/optee_os/lib/libmbedtls/mbedtls/library/bignum.c:2033
    71c4:	f90023f9 	str	x25, [sp, #64]
/home/nk/optee/optee_os/lib/libmbedtls/mbedtls/library/bignum.c:2040
    71c8:	9400096f 	bl	9784 <memset>
/home/nk/optee/optee_os/lib/libmbedtls/mbedtls/library/bignum.c:2043
    71cc:	f940066d 	ldr	x13, [x19, #8]
/home/nk/optee/optee_os/lib/libmbedtls/mbedtls/library/bignum.c:2046
    71d0:	d2800014 	mov	x20, #0x0                   	// #0
/home/nk/optee/optee_os/lib/libmbedtls/mbedtls/library/bignum.c:2044
    71d4:	f9400700 	ldr	x0, [x24, #8]
/home/nk/optee/optee_os/lib/libmbedtls/mbedtls/library/bignum.c:2057
    71d8:	910005ac 	add	x12, x13, #0x1
/home/nk/optee/optee_os/lib/libmbedtls/mbedtls/library/bignum.c:2042
    71dc:	f9400ad9 	ldr	x25, [x22, #16]
/home/nk/optee/optee_os/lib/libmbedtls/mbedtls/library/bignum.c:2044
    71e0:	eb0d001f 	cmp	x0, x13
/home/nk/optee/optee_os/lib/libmbedtls/mbedtls/library/bignum.c:2057
    71e4:	d37ef58c 	lsl	x12, x12, #2
/home/nk/optee/optee_os/lib/libmbedtls/mbedtls/library/bignum.c:2044
    71e8:	9a8d900f 	csel	x15, x0, x13, ls  // ls = plast
/home/nk/optee/optee_os/lib/libmbedtls/mbedtls/library/bignum.c:2042
    71ec:	aa1903eb 	mov	x11, x25
/home/nk/optee/optee_os/lib/libmbedtls/mbedtls/library/bignum.c:2046 (discriminator 1)
    71f0:	eb0d029f 	cmp	x20, x13
    71f4:	f9400aa0 	ldr	x0, [x21, #16]
    71f8:	54000281 	b.ne	7248 <mbedtls_mpi_montmul+0xd4>  // b.any
/home/nk/optee/optee_os/lib/libmbedtls/mbedtls/library/bignum.c:2060
    71fc:	aa0c03e2 	mov	x2, x12
    7200:	d1001181 	sub	x1, x12, #0x4
    7204:	8b010321 	add	x1, x25, x1
    7208:	97ffe386 	bl	20 <memcpy>
/home/nk/optee/optee_os/lib/libmbedtls/mbedtls/library/bignum.c:2062
    720c:	aa1303e1 	mov	x1, x19
    7210:	aa1503e0 	mov	x0, x21
    7214:	97fffb14 	bl	5e64 <mbedtls_mpi_cmp_abs>
    7218:	37f803e0 	tbnz	w0, #31, 7294 <mbedtls_mpi_montmul+0x120>
/home/nk/optee/optee_os/lib/libmbedtls/mbedtls/library/bignum.c:2063
    721c:	f9400a61 	ldr	x1, [x19, #16]
    7220:	f9400aa2 	ldr	x2, [x21, #16]
/home/nk/optee/optee_os/lib/libmbedtls/mbedtls/library/bignum.c:2066
    7224:	aa1403e0 	mov	x0, x20
    7228:	97fff6a1 	bl	4cac <mpi_sub_hlp>
/home/nk/optee/optee_os/lib/libmbedtls/mbedtls/library/bignum.c:2068
    722c:	52800000 	mov	w0, #0x0                   	// #0
/home/nk/optee/optee_os/lib/libmbedtls/mbedtls/library/bignum.c:2069
    7230:	a94153f3 	ldp	x19, x20, [sp, #16]
    7234:	a9425bf5 	ldp	x21, x22, [sp, #32]
    7238:	a94363f7 	ldp	x23, x24, [sp, #48]
    723c:	f94023f9 	ldr	x25, [sp, #64]
    7240:	a8c57bfd 	ldp	x29, x30, [sp], #80
    7244:	d65f03c0 	ret
/home/nk/optee/optee_os/lib/libmbedtls/mbedtls/library/bignum.c:2052 (discriminator 3)
    7248:	f9400b01 	ldr	x1, [x24, #16]
/home/nk/optee/optee_os/lib/libmbedtls/mbedtls/library/bignum.c:2054 (discriminator 3)
    724c:	aa0b03e2 	mov	x2, x11
/home/nk/optee/optee_os/lib/libmbedtls/mbedtls/library/bignum.c:2051 (discriminator 3)
    7250:	b8747812 	ldr	w18, [x0, x20, lsl #2]
/home/nk/optee/optee_os/lib/libmbedtls/mbedtls/library/bignum.c:2046 (discriminator 3)
    7254:	91000694 	add	x20, x20, #0x1
/home/nk/optee/optee_os/lib/libmbedtls/mbedtls/library/bignum.c:2052 (discriminator 3)
    7258:	b9400160 	ldr	w0, [x11]
    725c:	b940002e 	ldr	w14, [x1]
/home/nk/optee/optee_os/lib/libmbedtls/mbedtls/library/bignum.c:2054 (discriminator 3)
    7260:	2a1203e3 	mov	w3, w18
/home/nk/optee/optee_os/lib/libmbedtls/mbedtls/library/bignum.c:2052 (discriminator 3)
    7264:	1b0e024e 	madd	w14, w18, w14, w0
/home/nk/optee/optee_os/lib/libmbedtls/mbedtls/library/bignum.c:2054 (discriminator 3)
    7268:	aa0f03e0 	mov	x0, x15
/home/nk/optee/optee_os/lib/libmbedtls/mbedtls/library/bignum.c:2052 (discriminator 3)
    726c:	1b177dce 	mul	w14, w14, w23
/home/nk/optee/optee_os/lib/libmbedtls/mbedtls/library/bignum.c:2054 (discriminator 3)
    7270:	97fff6a7 	bl	4d0c <mpi_mul_hlp>
/home/nk/optee/optee_os/lib/libmbedtls/mbedtls/library/bignum.c:2055 (discriminator 3)
    7274:	aa0b03e2 	mov	x2, x11
    7278:	f9400a61 	ldr	x1, [x19, #16]
    727c:	2a0e03e3 	mov	w3, w14
    7280:	aa0d03e0 	mov	x0, x13
    7284:	97fff6a2 	bl	4d0c <mpi_mul_hlp>
/home/nk/optee/optee_os/lib/libmbedtls/mbedtls/library/bignum.c:2057 (discriminator 3)
    7288:	b8004572 	str	w18, [x11], #4
    728c:	b82c697f 	str	wzr, [x11, x12]
    7290:	17ffffd8 	b	71f0 <mbedtls_mpi_montmul+0x7c>
/home/nk/optee/optee_os/lib/libmbedtls/mbedtls/library/bignum.c:2066
    7294:	f9400aa1 	ldr	x1, [x21, #16]
    7298:	f9400ac2 	ldr	x2, [x22, #16]
    729c:	17ffffe2 	b	7224 <mbedtls_mpi_montmul+0xb0>
/home/nk/optee/optee_os/lib/libmbedtls/mbedtls/library/bignum.c:2038
    72a0:	12800060 	mov	w0, #0xfffffffc            	// #-4
/home/nk/optee/optee_os/lib/libmbedtls/mbedtls/library/bignum.c:2069
    72a4:	d65f03c0 	ret

00000000000072a8 <mbedtls_mpi_montred>:
mbedtls_mpi_montred():
/home/nk/optee/optee_os/lib/libmbedtls/mbedtls/library/bignum.c:2076
    72a8:	a9bd7bfd 	stp	x29, x30, [sp, #-48]!
/home/nk/optee/optee_os/lib/libmbedtls/mbedtls/library/bignum.c:2077
    72ac:	52800024 	mov	w4, #0x1                   	// #1
/home/nk/optee/optee_os/lib/libmbedtls/mbedtls/library/bignum.c:2076
    72b0:	910003fd 	mov	x29, sp
/home/nk/optee/optee_os/lib/libmbedtls/mbedtls/library/bignum.c:2077
    72b4:	b90017e4 	str	w4, [sp, #20]
/home/nk/optee/optee_os/lib/libmbedtls/mbedtls/library/bignum.c:2080
    72b8:	790033e4 	strh	w4, [sp, #24]
    72bc:	d2800024 	mov	x4, #0x1                   	// #1
    72c0:	f90013e4 	str	x4, [sp, #32]
/home/nk/optee/optee_os/lib/libmbedtls/mbedtls/library/bignum.c:2081
    72c4:	910053e4 	add	x4, sp, #0x14
    72c8:	f90017e4 	str	x4, [sp, #40]
/home/nk/optee/optee_os/lib/libmbedtls/mbedtls/library/bignum.c:2083
    72cc:	aa0303e4 	mov	x4, x3
    72d0:	2a0203e3 	mov	w3, w2
    72d4:	aa0103e2 	mov	x2, x1
    72d8:	910063e1 	add	x1, sp, #0x18
    72dc:	97ffffa6 	bl	7174 <mbedtls_mpi_montmul>
/home/nk/optee/optee_os/lib/libmbedtls/mbedtls/library/bignum.c:2084
    72e0:	a8c37bfd 	ldp	x29, x30, [sp], #48
    72e4:	d65f03c0 	ret

00000000000072e8 <mbedtls_mpi_exp_mod>:
mbedtls_mpi_exp_mod():
/home/nk/optee/optee_os/lib/libmbedtls/mbedtls/library/bignum.c:2092
    72e8:	a9b07bfd 	stp	x29, x30, [sp, #-256]!
    72ec:	910003fd 	mov	x29, sp
    72f0:	a90153f3 	stp	x19, x20, [sp, #16]
    72f4:	aa0303f3 	mov	x19, x3
    72f8:	a9025bf5 	stp	x21, x22, [sp, #32]
    72fc:	aa0003f5 	mov	x21, x0
/home/nk/optee/optee_os/lib/libmbedtls/mbedtls/library/bignum.c:2108
    7300:	aa0303e0 	mov	x0, x3
/home/nk/optee/optee_os/lib/libmbedtls/mbedtls/library/bignum.c:2092
    7304:	a90363f7 	stp	x23, x24, [sp, #48]
    7308:	a9046bf9 	stp	x25, x26, [sp, #64]
    730c:	aa0103fa 	mov	x26, x1
    7310:	aa0403f9 	mov	x25, x4
/home/nk/optee/optee_os/lib/libmbedtls/mbedtls/library/bignum.c:2108
    7314:	52800001 	mov	w1, #0x0                   	// #0
/home/nk/optee/optee_os/lib/libmbedtls/mbedtls/library/bignum.c:2092
    7318:	a90573fb 	stp	x27, x28, [sp, #80]
    731c:	aa0203fc 	mov	x28, x2
/home/nk/optee/optee_os/lib/libmbedtls/mbedtls/library/bignum.c:2108
    7320:	97fffb64 	bl	60b0 <mbedtls_mpi_cmp_int>
    7324:	7100001f 	cmp	w0, #0x0
    7328:	5400014c 	b.gt	7350 <mbedtls_mpi_exp_mod+0x68>
/home/nk/optee/optee_os/lib/libmbedtls/mbedtls/library/bignum.c:2109
    732c:	12800062 	mov	w2, #0xfffffffc            	// #-4
/home/nk/optee/optee_os/lib/libmbedtls/mbedtls/library/bignum.c:2314
    7330:	2a0203e0 	mov	w0, w2
    7334:	a94153f3 	ldp	x19, x20, [sp, #16]
    7338:	a9425bf5 	ldp	x21, x22, [sp, #32]
    733c:	a94363f7 	ldp	x23, x24, [sp, #48]
    7340:	a9446bf9 	ldp	x25, x26, [sp, #64]
    7344:	a94573fb 	ldp	x27, x28, [sp, #80]
    7348:	a8d07bfd 	ldp	x29, x30, [sp], #256
    734c:	d65f03c0 	ret
/home/nk/optee/optee_os/lib/libmbedtls/mbedtls/library/bignum.c:2108 (discriminator 1)
    7350:	f9400a60 	ldr	x0, [x19, #16]
    7354:	b9400000 	ldr	w0, [x0]
    7358:	12000001 	and	w1, w0, #0x1
    735c:	b9008fe1 	str	w1, [sp, #140]
    7360:	3607fe60 	tbz	w0, #0, 732c <mbedtls_mpi_exp_mod+0x44>
/home/nk/optee/optee_os/lib/libmbedtls/mbedtls/library/bignum.c:2111
    7364:	52800001 	mov	w1, #0x0                   	// #0
    7368:	aa1c03e0 	mov	x0, x28
    736c:	97fffb51 	bl	60b0 <mbedtls_mpi_cmp_int>
    7370:	37fffde0 	tbnz	w0, #31, 732c <mbedtls_mpi_exp_mod+0x44>
/home/nk/optee/optee_os/lib/libmbedtls/mbedtls/library/bignum.c:2117
    7374:	aa1303e1 	mov	x1, x19
    7378:	9102d3e0 	add	x0, sp, #0xb4
/home/nk/optee/optee_os/lib/libmbedtls/mbedtls/library/bignum.c:2118
    737c:	9102e3f8 	add	x24, sp, #0xb8
/home/nk/optee/optee_os/lib/libmbedtls/mbedtls/library/bignum.c:2117
    7380:	97ffff6e 	bl	7138 <mbedtls_mpi_montg_init>
/home/nk/optee/optee_os/lib/libmbedtls/mbedtls/library/bignum.c:2118
    7384:	aa1803e0 	mov	x0, x24
    7388:	910343f6 	add	x22, sp, #0xd0
    738c:	97fff7b6 	bl	5264 <mbedtls_mpi_init_mempool>
    7390:	aa1603e0 	mov	x0, x22
    7394:	97fff7b4 	bl	5264 <mbedtls_mpi_init_mempool>
/home/nk/optee/optee_os/lib/libmbedtls/mbedtls/library/bignum.c:2119
    7398:	9103a3e0 	add	x0, sp, #0xe8
    739c:	f9003be0 	str	x0, [sp, #112]
    73a0:	97fff7b1 	bl	5264 <mbedtls_mpi_init_mempool>
/home/nk/optee/optee_os/lib/libmbedtls/mbedtls/library/bignum.c:2121
    73a4:	aa1c03e0 	mov	x0, x28
    73a8:	97fff965 	bl	593c <mbedtls_mpi_bitlen>
/home/nk/optee/optee_os/lib/libmbedtls/mbedtls/library/bignum.c:2123
    73ac:	f10a7c1f 	cmp	x0, #0x29f
    73b0:	540012c8 	b.hi	7608 <mbedtls_mpi_exp_mod+0x320>  // b.pmore
/home/nk/optee/optee_os/lib/libmbedtls/mbedtls/library/bignum.c:2123 (discriminator 1)
    73b4:	f103bc1f 	cmp	x0, #0xef
    73b8:	540012c8 	b.hi	7610 <mbedtls_mpi_exp_mod+0x328>  // b.pmore
/home/nk/optee/optee_os/lib/libmbedtls/mbedtls/library/bignum.c:2123 (discriminator 3)
    73bc:	f1013c1f 	cmp	x0, #0x4f
    73c0:	540012c8 	b.hi	7618 <mbedtls_mpi_exp_mod+0x330>  // b.pmore
/home/nk/optee/optee_os/lib/libmbedtls/mbedtls/library/bignum.c:2123 (discriminator 5)
    73c4:	f1005c1f 	cmp	x0, #0x17
    73c8:	d2800077 	mov	x23, #0x3                   	// #3
    73cc:	9a9f86f7 	csinc	x23, x23, xzr, hi  // hi = pmore
/home/nk/optee/optee_os/lib/libmbedtls/mbedtls/library/bignum.c:2131 (discriminator 16)
    73d0:	f9400660 	ldr	x0, [x19, #8]
    73d4:	91000400 	add	x0, x0, #0x1
    73d8:	f9003fe0 	str	x0, [sp, #120]
/home/nk/optee/optee_os/lib/libmbedtls/mbedtls/library/bignum.c:2132 (discriminator 16)
    73dc:	aa0003e1 	mov	x1, x0
    73e0:	aa1503e0 	mov	x0, x21
    73e4:	97fff7c5 	bl	52f8 <mbedtls_mpi_grow>
    73e8:	2a0003e2 	mov	w2, w0
    73ec:	d0000020 	adrp	x0, d000 <_DYNAMIC>
    73f0:	f90053e0 	str	x0, [sp, #160]
    73f4:	35002b82 	cbnz	w2, 7964 <mbedtls_mpi_exp_mod+0x67c>
/home/nk/optee/optee_os/lib/libmbedtls/mbedtls/library/bignum.c:2134
    73f8:	f9403fe0 	ldr	x0, [sp, #120]
    73fc:	d37ff801 	lsl	x1, x0, #1
    7400:	aa1603e0 	mov	x0, x22
    7404:	97fff7bd 	bl	52f8 <mbedtls_mpi_grow>
    7408:	2a0003e2 	mov	w2, w0
    740c:	35002ac0 	cbnz	w0, 7964 <mbedtls_mpi_exp_mod+0x67c>
/home/nk/optee/optee_os/lib/libmbedtls/mbedtls/library/bignum.c:2139
    7410:	79c00340 	ldrsh	w0, [x26]
    7414:	b9008be0 	str	w0, [sp, #136]
/home/nk/optee/optee_os/lib/libmbedtls/mbedtls/library/bignum.c:2140
    7418:	3100041f 	cmn	w0, #0x1
    741c:	54000121 	b.ne	7440 <mbedtls_mpi_exp_mod+0x158>  // b.any
/home/nk/optee/optee_os/lib/libmbedtls/mbedtls/library/bignum.c:2142
    7420:	f9403be0 	ldr	x0, [sp, #112]
    7424:	aa1a03e1 	mov	x1, x26
    7428:	97fff83a 	bl	5510 <mbedtls_mpi_copy>
    742c:	2a0003e2 	mov	w2, w0
    7430:	350029a0 	cbnz	w0, 7964 <mbedtls_mpi_exp_mod+0x67c>
/home/nk/optee/optee_os/lib/libmbedtls/mbedtls/library/bignum.c:2144
    7434:	f9403bfa 	ldr	x26, [sp, #112]
/home/nk/optee/optee_os/lib/libmbedtls/mbedtls/library/bignum.c:2143
    7438:	52800020 	mov	w0, #0x1                   	// #1
    743c:	7901d3e0 	strh	w0, [sp, #232]
/home/nk/optee/optee_os/lib/libmbedtls/mbedtls/library/bignum.c:2150
    7440:	b4000079 	cbz	x25, 744c <mbedtls_mpi_exp_mod+0x164>
/home/nk/optee/optee_os/lib/libmbedtls/mbedtls/library/bignum.c:2150 (discriminator 1)
    7444:	f9400b20 	ldr	x0, [x25, #16]
    7448:	b5000ec0 	cbnz	x0, 7620 <mbedtls_mpi_exp_mod+0x338>
/home/nk/optee/optee_os/lib/libmbedtls/mbedtls/library/bignum.c:2152
    744c:	52800021 	mov	w1, #0x1                   	// #1
    7450:	aa1803e0 	mov	x0, x24
    7454:	97fff8dd 	bl	57c8 <mbedtls_mpi_lset>
    7458:	2a0003e2 	mov	w2, w0
    745c:	35002840 	cbnz	w0, 7964 <mbedtls_mpi_exp_mod+0x67c>
/home/nk/optee/optee_os/lib/libmbedtls/mbedtls/library/bignum.c:2153
    7460:	f9400661 	ldr	x1, [x19, #8]
    7464:	aa1803e0 	mov	x0, x24
    7468:	d37ae421 	lsl	x1, x1, #6
    746c:	97fffa0c 	bl	5c9c <mbedtls_mpi_shift_l>
    7470:	2a0003e2 	mov	w2, w0
    7474:	35002780 	cbnz	w0, 7964 <mbedtls_mpi_exp_mod+0x67c>
/home/nk/optee/optee_os/lib/libmbedtls/mbedtls/library/bignum.c:2154
    7478:	aa1303e2 	mov	x2, x19
    747c:	aa1803e1 	mov	x1, x24
    7480:	aa1803e0 	mov	x0, x24
    7484:	97fffe23 	bl	6d10 <mbedtls_mpi_mod_mpi>
    7488:	2a0003e2 	mov	w2, w0
    748c:	350026c0 	cbnz	w0, 7964 <mbedtls_mpi_exp_mod+0x67c>
/home/nk/optee/optee_os/lib/libmbedtls/mbedtls/library/bignum.c:2156
    7490:	b40000b9 	cbz	x25, 74a4 <mbedtls_mpi_exp_mod+0x1bc>
/home/nk/optee/optee_os/lib/libmbedtls/mbedtls/library/bignum.c:2157
    7494:	aa1803e1 	mov	x1, x24
    7498:	aa1903e0 	mov	x0, x25
    749c:	d2800302 	mov	x2, #0x18                  	// #24
/home/nk/optee/optee_os/lib/libmbedtls/mbedtls/library/bignum.c:2160
    74a0:	97ffe2e0 	bl	20 <memcpy>
/home/nk/optee/optee_os/lib/libmbedtls/mbedtls/library/bignum.c:2162
    74a4:	d0000020 	adrp	x0, d000 <_DYNAMIC>
    74a8:	d2818001 	mov	x1, #0xc00                 	// #3072
    74ac:	f940c800 	ldr	x0, [x0, #400]
    74b0:	f9400000 	ldr	x0, [x0]
    74b4:	940008d5 	bl	9808 <mempool_alloc>
    74b8:	aa0003f4 	mov	x20, x0
/home/nk/optee/optee_os/lib/libmbedtls/mbedtls/library/bignum.c:2164
    74bc:	b4002580 	cbz	x0, 796c <mbedtls_mpi_exp_mod+0x684>
    74c0:	aa1403fb 	mov	x27, x20
    74c4:	91300000 	add	x0, x0, #0xc00
    74c8:	f90037f4 	str	x20, [sp, #104]
    74cc:	f9004be0 	str	x0, [sp, #144]
/home/nk/optee/optee_os/lib/libmbedtls/mbedtls/library/bignum.c:2169 (discriminator 3)
    74d0:	aa1b03e0 	mov	x0, x27
    74d4:	97fff764 	bl	5264 <mbedtls_mpi_init_mempool>
/home/nk/optee/optee_os/lib/libmbedtls/mbedtls/library/bignum.c:2168 (discriminator 3)
    74d8:	f9404be0 	ldr	x0, [sp, #144]
    74dc:	9100637b 	add	x27, x27, #0x18
    74e0:	eb00037f 	cmp	x27, x0
    74e4:	54ffff61 	b.ne	74d0 <mbedtls_mpi_exp_mod+0x1e8>  // b.any
/home/nk/optee/optee_os/lib/libmbedtls/mbedtls/library/bignum.c:2170
    74e8:	f9403fe1 	ldr	x1, [sp, #120]
    74ec:	9100629b 	add	x27, x20, #0x18
    74f0:	aa1b03e0 	mov	x0, x27
    74f4:	97fff781 	bl	52f8 <mbedtls_mpi_grow>
    74f8:	2a0003e2 	mov	w2, w0
    74fc:	35001fa0 	cbnz	w0, 78f0 <mbedtls_mpi_exp_mod+0x608>
/home/nk/optee/optee_os/lib/libmbedtls/mbedtls/library/bignum.c:2175
    7500:	aa1303e1 	mov	x1, x19
    7504:	aa1a03e0 	mov	x0, x26
    7508:	97fffa7e 	bl	5f00 <mbedtls_mpi_cmp_mpi>
    750c:	37f80920 	tbnz	w0, #31, 7630 <mbedtls_mpi_exp_mod+0x348>
/home/nk/optee/optee_os/lib/libmbedtls/mbedtls/library/bignum.c:2176
    7510:	aa1303e2 	mov	x2, x19
    7514:	aa1a03e1 	mov	x1, x26
    7518:	aa1b03e0 	mov	x0, x27
    751c:	97fffdfd 	bl	6d10 <mbedtls_mpi_mod_mpi>
    7520:	2a0003e2 	mov	w2, w0
    7524:	35001e60 	cbnz	w0, 78f0 <mbedtls_mpi_exp_mod+0x608>
/home/nk/optee/optee_os/lib/libmbedtls/mbedtls/library/bignum.c:2180
    7528:	b940b7e3 	ldr	w3, [sp, #180]
    752c:	aa1303e2 	mov	x2, x19
    7530:	aa1603e4 	mov	x4, x22
    7534:	aa1803e1 	mov	x1, x24
    7538:	aa1b03e0 	mov	x0, x27
    753c:	97ffff0e 	bl	7174 <mbedtls_mpi_montmul>
    7540:	2a0003e2 	mov	w2, w0
    7544:	35001d60 	cbnz	w0, 78f0 <mbedtls_mpi_exp_mod+0x608>
/home/nk/optee/optee_os/lib/libmbedtls/mbedtls/library/bignum.c:2185
    7548:	aa1803e1 	mov	x1, x24
    754c:	aa1503e0 	mov	x0, x21
    7550:	97fff7f0 	bl	5510 <mbedtls_mpi_copy>
    7554:	2a0003e2 	mov	w2, w0
    7558:	35001cc0 	cbnz	w0, 78f0 <mbedtls_mpi_exp_mod+0x608>
/home/nk/optee/optee_os/lib/libmbedtls/mbedtls/library/bignum.c:2186
    755c:	b940b7e2 	ldr	w2, [sp, #180]
    7560:	aa1603e3 	mov	x3, x22
    7564:	aa1303e1 	mov	x1, x19
    7568:	aa1503e0 	mov	x0, x21
    756c:	97ffff4f 	bl	72a8 <mbedtls_mpi_montred>
    7570:	2a0003e2 	mov	w2, w0
    7574:	35001be0 	cbnz	w0, 78f0 <mbedtls_mpi_exp_mod+0x608>
/home/nk/optee/optee_os/lib/libmbedtls/mbedtls/library/bignum.c:2188
    7578:	f10006ff 	cmp	x23, #0x1
    757c:	54000621 	b.ne	7640 <mbedtls_mpi_exp_mod+0x358>  // b.any
/home/nk/optee/optee_os/lib/libmbedtls/mbedtls/library/bignum.c:2213
    7580:	f940079a 	ldr	x26, [x28, #8]
/home/nk/optee/optee_os/lib/libmbedtls/mbedtls/library/bignum.c:2217
    7584:	52800003 	mov	w3, #0x0                   	// #0
/home/nk/optee/optee_os/lib/libmbedtls/mbedtls/library/bignum.c:2215
    7588:	d2800005 	mov	x5, #0x0                   	// #0
/home/nk/optee/optee_os/lib/libmbedtls/mbedtls/library/bignum.c:2214
    758c:	d2800007 	mov	x7, #0x0                   	// #0
/home/nk/optee/optee_os/lib/libmbedtls/mbedtls/library/bignum.c:2216
    7590:	d2800006 	mov	x6, #0x0                   	// #0
/home/nk/optee/optee_os/lib/libmbedtls/mbedtls/library/bignum.c:2221
    7594:	b5000fc7 	cbnz	x7, 778c <mbedtls_mpi_exp_mod+0x4a4>
/home/nk/optee/optee_os/lib/libmbedtls/mbedtls/library/bignum.c:2223
    7598:	b5000f7a 	cbnz	x26, 7784 <mbedtls_mpi_exp_mod+0x49c>
/home/nk/optee/optee_os/lib/libmbedtls/mbedtls/library/bignum.c:2286
    759c:	d2800020 	mov	x0, #0x1                   	// #1
    75a0:	9ad72017 	lsl	x23, x0, x23
/home/nk/optee/optee_os/lib/libmbedtls/mbedtls/library/bignum.c:2280 (discriminator 1)
    75a4:	eb05035f 	cmp	x26, x5
    75a8:	b940b7e2 	ldr	w2, [sp, #180]
    75ac:	54001701 	b.ne	788c <mbedtls_mpi_exp_mod+0x5a4>  // b.any
/home/nk/optee/optee_os/lib/libmbedtls/mbedtls/library/bignum.c:2293
    75b0:	aa1603e3 	mov	x3, x22
    75b4:	aa1303e1 	mov	x1, x19
    75b8:	aa1503e0 	mov	x0, x21
    75bc:	97ffff3b 	bl	72a8 <mbedtls_mpi_montred>
    75c0:	2a0003e2 	mov	w2, w0
    75c4:	35001960 	cbnz	w0, 78f0 <mbedtls_mpi_exp_mod+0x608>
/home/nk/optee/optee_os/lib/libmbedtls/mbedtls/library/bignum.c:2295
    75c8:	b9408be0 	ldr	w0, [sp, #136]
    75cc:	3100041f 	cmn	w0, #0x1
    75d0:	54001901 	b.ne	78f0 <mbedtls_mpi_exp_mod+0x608>  // b.any
/home/nk/optee/optee_os/lib/libmbedtls/mbedtls/library/bignum.c:2295 (discriminator 1)
    75d4:	f9400780 	ldr	x0, [x28, #8]
    75d8:	b40018c0 	cbz	x0, 78f0 <mbedtls_mpi_exp_mod+0x608>
/home/nk/optee/optee_os/lib/libmbedtls/mbedtls/library/bignum.c:2295 (discriminator 2)
    75dc:	f9400b80 	ldr	x0, [x28, #16]
    75e0:	b9400000 	ldr	w0, [x0]
    75e4:	36001860 	tbz	w0, #0, 78f0 <mbedtls_mpi_exp_mod+0x608>
/home/nk/optee/optee_os/lib/libmbedtls/mbedtls/library/bignum.c:2297
    75e8:	794113e0 	ldrh	w0, [sp, #136]
/home/nk/optee/optee_os/lib/libmbedtls/mbedtls/library/bignum.c:2298
    75ec:	aa1503e2 	mov	x2, x21
/home/nk/optee/optee_os/lib/libmbedtls/mbedtls/library/bignum.c:2297
    75f0:	790002a0 	strh	w0, [x21]
/home/nk/optee/optee_os/lib/libmbedtls/mbedtls/library/bignum.c:2298
    75f4:	aa1303e1 	mov	x1, x19
    75f8:	aa1503e0 	mov	x0, x21
    75fc:	97fffb3d 	bl	62f0 <mbedtls_mpi_add_mpi>
    7600:	2a0003e2 	mov	w2, w0
/home/nk/optee/optee_os/lib/libmbedtls/mbedtls/library/bignum.c:2301
    7604:	140000bb 	b	78f0 <mbedtls_mpi_exp_mod+0x608>
/home/nk/optee/optee_os/lib/libmbedtls/mbedtls/library/bignum.c:2123
    7608:	d28000d7 	mov	x23, #0x6                   	// #6
    760c:	17ffff71 	b	73d0 <mbedtls_mpi_exp_mod+0xe8>
    7610:	d28000b7 	mov	x23, #0x5                   	// #5
    7614:	17ffff6f 	b	73d0 <mbedtls_mpi_exp_mod+0xe8>
    7618:	d2800097 	mov	x23, #0x4                   	// #4
    761c:	17ffff6d 	b	73d0 <mbedtls_mpi_exp_mod+0xe8>
/home/nk/optee/optee_os/lib/libmbedtls/mbedtls/library/bignum.c:2160
    7620:	d2800302 	mov	x2, #0x18                  	// #24
    7624:	aa1903e1 	mov	x1, x25
    7628:	aa1803e0 	mov	x0, x24
    762c:	17ffff9d 	b	74a0 <mbedtls_mpi_exp_mod+0x1b8>
/home/nk/optee/optee_os/lib/libmbedtls/mbedtls/library/bignum.c:2178
    7630:	aa1a03e1 	mov	x1, x26
    7634:	aa1b03e0 	mov	x0, x27
    7638:	97fff7b6 	bl	5510 <mbedtls_mpi_copy>
    763c:	17ffffb9 	b	7520 <mbedtls_mpi_exp_mod+0x238>
/home/nk/optee/optee_os/lib/libmbedtls/mbedtls/library/bignum.c:2193
    7640:	510006e0 	sub	w0, w23, #0x1
    7644:	b9007be0 	str	w0, [sp, #120]
/home/nk/optee/optee_os/lib/libmbedtls/mbedtls/library/bignum.c:2195
    7648:	f9400661 	ldr	x1, [x19, #8]
    764c:	d280031a 	mov	x26, #0x18                  	// #24
    7650:	3941e3e0 	ldrb	w0, [sp, #120]
    7654:	91000421 	add	x1, x1, #0x1
/home/nk/optee/optee_os/lib/libmbedtls/mbedtls/library/bignum.c:2193
    7658:	b9009bf7 	str	w23, [sp, #152]
/home/nk/optee/optee_os/lib/libmbedtls/mbedtls/library/bignum.c:2195
    765c:	9ac0235a 	lsl	x26, x26, x0
    7660:	8b1a029a 	add	x26, x20, x26
    7664:	aa1a03e0 	mov	x0, x26
    7668:	97fff724 	bl	52f8 <mbedtls_mpi_grow>
    766c:	2a0003e2 	mov	w2, w0
    7670:	35001400 	cbnz	w0, 78f0 <mbedtls_mpi_exp_mod+0x608>
/home/nk/optee/optee_os/lib/libmbedtls/mbedtls/library/bignum.c:2196
    7674:	aa1b03e1 	mov	x1, x27
    7678:	aa1a03e0 	mov	x0, x26
    767c:	97fff7a5 	bl	5510 <mbedtls_mpi_copy>
    7680:	2a0003e2 	mov	w2, w0
    7684:	35001360 	cbnz	w0, 78f0 <mbedtls_mpi_exp_mod+0x608>
/home/nk/optee/optee_os/lib/libmbedtls/mbedtls/library/bignum.c:2198
    7688:	d10006e6 	sub	x6, x23, #0x1
    768c:	d2800005 	mov	x5, #0x0                   	// #0
/home/nk/optee/optee_os/lib/libmbedtls/mbedtls/library/bignum.c:2199
    7690:	b940b7e3 	ldr	w3, [sp, #180]
    7694:	aa1303e2 	mov	x2, x19
    7698:	aa1603e4 	mov	x4, x22
    769c:	aa1a03e1 	mov	x1, x26
    76a0:	aa1a03e0 	mov	x0, x26
    76a4:	f90043e5 	str	x5, [sp, #128]
    76a8:	f90057e6 	str	x6, [sp, #168]
    76ac:	97fffeb2 	bl	7174 <mbedtls_mpi_montmul>
    76b0:	2a0003e2 	mov	w2, w0
    76b4:	350011e0 	cbnz	w0, 78f0 <mbedtls_mpi_exp_mod+0x608>
/home/nk/optee/optee_os/lib/libmbedtls/mbedtls/library/bignum.c:2198 (discriminator 2)
    76b8:	f94043e5 	ldr	x5, [sp, #128]
    76bc:	f94057e6 	ldr	x6, [sp, #168]
    76c0:	910004a5 	add	x5, x5, #0x1
    76c4:	eb0500df 	cmp	x6, x5
    76c8:	54fffe48 	b.hi	7690 <mbedtls_mpi_exp_mod+0x3a8>  // b.pmore
/home/nk/optee/optee_os/lib/libmbedtls/mbedtls/library/bignum.c:2193
    76cc:	3941e3e1 	ldrb	w1, [sp, #120]
    76d0:	d2800020 	mov	x0, #0x1                   	// #1
    76d4:	d2800303 	mov	x3, #0x18                  	// #24
    76d8:	9ac12001 	lsl	x1, x0, x1
/home/nk/optee/optee_os/lib/libmbedtls/mbedtls/library/bignum.c:2204
    76dc:	8b000021 	add	x1, x1, x0
    76e0:	f90043e1 	str	x1, [sp, #128]
    76e4:	394263e1 	ldrb	w1, [sp, #152]
    76e8:	9ac12000 	lsl	x0, x0, x1
    76ec:	f9004fe0 	str	x0, [sp, #152]
    76f0:	3941e3e0 	ldrb	w0, [sp, #120]
    76f4:	9ac02063 	lsl	x3, x3, x0
    76f8:	8b030283 	add	x3, x20, x3
/home/nk/optee/optee_os/lib/libmbedtls/mbedtls/library/bignum.c:2204 (discriminator 1)
    76fc:	f94043e1 	ldr	x1, [sp, #128]
    7700:	f9404fe0 	ldr	x0, [sp, #152]
    7704:	eb01001f 	cmp	x0, x1
    7708:	54fff3c9 	b.ls	7580 <mbedtls_mpi_exp_mod+0x298>  // b.plast
/home/nk/optee/optee_os/lib/libmbedtls/mbedtls/library/bignum.c:2206
    770c:	f9400661 	ldr	x1, [x19, #8]
    7710:	9100607a 	add	x26, x3, #0x18
    7714:	aa1a03e0 	mov	x0, x26
    7718:	f9003fe3 	str	x3, [sp, #120]
    771c:	91000421 	add	x1, x1, #0x1
    7720:	97fff6f6 	bl	52f8 <mbedtls_mpi_grow>
    7724:	2a0003e2 	mov	w2, w0
    7728:	35000e40 	cbnz	w0, 78f0 <mbedtls_mpi_exp_mod+0x608>
/home/nk/optee/optee_os/lib/libmbedtls/mbedtls/library/bignum.c:2207
    772c:	f9403fe3 	ldr	x3, [sp, #120]
    7730:	aa1a03e0 	mov	x0, x26
    7734:	aa0303e1 	mov	x1, x3
    7738:	97fff776 	bl	5510 <mbedtls_mpi_copy>
    773c:	2a0003e2 	mov	w2, w0
    7740:	35000d80 	cbnz	w0, 78f0 <mbedtls_mpi_exp_mod+0x608>
/home/nk/optee/optee_os/lib/libmbedtls/mbedtls/library/bignum.c:2209
    7744:	b940b7e3 	ldr	w3, [sp, #180]
    7748:	aa1303e2 	mov	x2, x19
    774c:	aa1603e4 	mov	x4, x22
    7750:	aa1b03e1 	mov	x1, x27
    7754:	aa1a03e0 	mov	x0, x26
    7758:	97fffe87 	bl	7174 <mbedtls_mpi_montmul>
    775c:	2a0003e2 	mov	w2, w0
    7760:	35000c80 	cbnz	w0, 78f0 <mbedtls_mpi_exp_mod+0x608>
/home/nk/optee/optee_os/lib/libmbedtls/mbedtls/library/bignum.c:2204 (discriminator 2)
    7764:	f94043e0 	ldr	x0, [sp, #128]
    7768:	aa1a03e3 	mov	x3, x26
    776c:	91000400 	add	x0, x0, #0x1
    7770:	f90043e0 	str	x0, [sp, #128]
    7774:	17ffffe2 	b	76fc <mbedtls_mpi_exp_mod+0x414>
/home/nk/optee/optee_os/lib/libmbedtls/mbedtls/library/bignum.c:2253
    7778:	52800040 	mov	w0, #0x2                   	// #2
/home/nk/optee/optee_os/lib/libmbedtls/mbedtls/library/bignum.c:2273
    777c:	2a0003e3 	mov	w3, w0
    7780:	17ffff85 	b	7594 <mbedtls_mpi_exp_mod+0x2ac>
/home/nk/optee/optee_os/lib/libmbedtls/mbedtls/library/bignum.c:2226
    7784:	d100075a 	sub	x26, x26, #0x1
/home/nk/optee/optee_os/lib/libmbedtls/mbedtls/library/bignum.c:2228
    7788:	d2800407 	mov	x7, #0x20                  	// #32
/home/nk/optee/optee_os/lib/libmbedtls/mbedtls/library/bignum.c:2233
    778c:	f9400b80 	ldr	x0, [x28, #16]
/home/nk/optee/optee_os/lib/libmbedtls/mbedtls/library/bignum.c:2231
    7790:	d10004e7 	sub	x7, x7, #0x1
/home/nk/optee/optee_os/lib/libmbedtls/mbedtls/library/bignum.c:2233
    7794:	b87a7802 	ldr	w2, [x0, x26, lsl #2]
    7798:	1ac72442 	lsr	w2, w2, w7
    779c:	12000041 	and	w1, w2, #0x1
/home/nk/optee/optee_os/lib/libmbedtls/mbedtls/library/bignum.c:2238
    77a0:	2a010060 	orr	w0, w3, w1
    77a4:	34fffec0 	cbz	w0, 777c <mbedtls_mpi_exp_mod+0x494>
/home/nk/optee/optee_os/lib/libmbedtls/mbedtls/library/bignum.c:2241
    77a8:	7100047f 	cmp	w3, #0x1
    77ac:	1a9f17e0 	cset	w0, eq  // eq = none
    77b0:	6a22001f 	bics	wzr, w0, w2
    77b4:	540001e0 	b.eq	77f0 <mbedtls_mpi_exp_mod+0x508>  // b.none
/home/nk/optee/optee_os/lib/libmbedtls/mbedtls/library/bignum.c:2246
    77b8:	b940b7e3 	ldr	w3, [sp, #180]
    77bc:	aa1303e2 	mov	x2, x19
    77c0:	aa1603e4 	mov	x4, x22
    77c4:	aa1503e1 	mov	x1, x21
    77c8:	aa1503e0 	mov	x0, x21
    77cc:	a9079fe6 	stp	x6, x7, [sp, #120]
    77d0:	f9004fe5 	str	x5, [sp, #152]
    77d4:	97fffe68 	bl	7174 <mbedtls_mpi_montmul>
    77d8:	2a0003e2 	mov	w2, w0
    77dc:	350008a0 	cbnz	w0, 78f0 <mbedtls_mpi_exp_mod+0x608>
    77e0:	b9408fe0 	ldr	w0, [sp, #140]
    77e4:	a9479fe6 	ldp	x6, x7, [sp, #120]
    77e8:	f9404fe5 	ldr	x5, [sp, #152]
    77ec:	17ffffe4 	b	777c <mbedtls_mpi_exp_mod+0x494>
/home/nk/optee/optee_os/lib/libmbedtls/mbedtls/library/bignum.c:2255
    77f0:	910004a5 	add	x5, x5, #0x1
/home/nk/optee/optee_os/lib/libmbedtls/mbedtls/library/bignum.c:2256
    77f4:	4b0502e0 	sub	w0, w23, w5
/home/nk/optee/optee_os/lib/libmbedtls/mbedtls/library/bignum.c:2258
    77f8:	eb0502ff 	cmp	x23, x5
/home/nk/optee/optee_os/lib/libmbedtls/mbedtls/library/bignum.c:2256
    77fc:	1ac02021 	lsl	w1, w1, w0
    7800:	aa0100c6 	orr	x6, x6, x1
/home/nk/optee/optee_os/lib/libmbedtls/mbedtls/library/bignum.c:2258
    7804:	54fffba1 	b.ne	7778 <mbedtls_mpi_exp_mod+0x490>  // b.any
/home/nk/optee/optee_os/lib/libmbedtls/mbedtls/library/bignum.c:2263
    7808:	d2800008 	mov	x8, #0x0                   	// #0
/home/nk/optee/optee_os/lib/libmbedtls/mbedtls/library/bignum.c:2264
    780c:	b940b7e3 	ldr	w3, [sp, #180]
    7810:	aa1303e2 	mov	x2, x19
    7814:	aa1603e4 	mov	x4, x22
    7818:	aa1503e1 	mov	x1, x21
    781c:	aa1503e0 	mov	x0, x21
    7820:	a9079fe6 	stp	x6, x7, [sp, #120]
    7824:	f9004fe5 	str	x5, [sp, #152]
    7828:	f90057e8 	str	x8, [sp, #168]
    782c:	97fffe52 	bl	7174 <mbedtls_mpi_montmul>
    7830:	2a0003e2 	mov	w2, w0
    7834:	350005e0 	cbnz	w0, 78f0 <mbedtls_mpi_exp_mod+0x608>
/home/nk/optee/optee_os/lib/libmbedtls/mbedtls/library/bignum.c:2263 (discriminator 2)
    7838:	f94057e8 	ldr	x8, [sp, #168]
    783c:	f9404fe5 	ldr	x5, [sp, #152]
    7840:	91000508 	add	x8, x8, #0x1
    7844:	a9479fe6 	ldp	x6, x7, [sp, #120]
    7848:	eb0800bf 	cmp	x5, x8
    784c:	54fffe08 	b.hi	780c <mbedtls_mpi_exp_mod+0x524>  // b.pmore
/home/nk/optee/optee_os/lib/libmbedtls/mbedtls/library/bignum.c:2269
    7850:	d2800300 	mov	x0, #0x18                  	// #24
    7854:	b940b7e3 	ldr	w3, [sp, #180]
    7858:	aa1303e2 	mov	x2, x19
    785c:	aa1603e4 	mov	x4, x22
    7860:	9b0050c1 	madd	x1, x6, x0, x20
    7864:	aa1503e0 	mov	x0, x21
    7868:	f9003fe7 	str	x7, [sp, #120]
    786c:	97fffe42 	bl	7174 <mbedtls_mpi_montmul>
    7870:	2a0003e2 	mov	w2, w0
    7874:	350003e0 	cbnz	w0, 78f0 <mbedtls_mpi_exp_mod+0x608>
/home/nk/optee/optee_os/lib/libmbedtls/mbedtls/library/bignum.c:2272
    7878:	d2800005 	mov	x5, #0x0                   	// #0
/home/nk/optee/optee_os/lib/libmbedtls/mbedtls/library/bignum.c:2273
    787c:	d2800006 	mov	x6, #0x0                   	// #0
/home/nk/optee/optee_os/lib/libmbedtls/mbedtls/library/bignum.c:2271
    7880:	b9408fe0 	ldr	w0, [sp, #140]
    7884:	f9403fe7 	ldr	x7, [sp, #120]
    7888:	17ffffbd 	b	777c <mbedtls_mpi_exp_mod+0x494>
/home/nk/optee/optee_os/lib/libmbedtls/mbedtls/library/bignum.c:2282
    788c:	2a0203e3 	mov	w3, w2
    7890:	aa1303e2 	mov	x2, x19
    7894:	aa1603e4 	mov	x4, x22
    7898:	aa1503e1 	mov	x1, x21
    789c:	aa1503e0 	mov	x0, x21
    78a0:	a90797e6 	stp	x6, x5, [sp, #120]
    78a4:	97fffe34 	bl	7174 <mbedtls_mpi_montmul>
    78a8:	2a0003e2 	mov	w2, w0
    78ac:	35000220 	cbnz	w0, 78f0 <mbedtls_mpi_exp_mod+0x608>
/home/nk/optee/optee_os/lib/libmbedtls/mbedtls/library/bignum.c:2286
    78b0:	a94797e6 	ldp	x6, x5, [sp, #120]
/home/nk/optee/optee_os/lib/libmbedtls/mbedtls/library/bignum.c:2284
    78b4:	d37ff8c6 	lsl	x6, x6, #1
/home/nk/optee/optee_os/lib/libmbedtls/mbedtls/library/bignum.c:2286
    78b8:	ea0602ff 	tst	x23, x6
    78bc:	54000061 	b.ne	78c8 <mbedtls_mpi_exp_mod+0x5e0>  // b.any
/home/nk/optee/optee_os/lib/libmbedtls/mbedtls/library/bignum.c:2280
    78c0:	9100075a 	add	x26, x26, #0x1
    78c4:	17ffff38 	b	75a4 <mbedtls_mpi_exp_mod+0x2bc>
/home/nk/optee/optee_os/lib/libmbedtls/mbedtls/library/bignum.c:2287
    78c8:	b940b7e3 	ldr	w3, [sp, #180]
    78cc:	aa1303e2 	mov	x2, x19
    78d0:	aa1603e4 	mov	x4, x22
    78d4:	aa1b03e1 	mov	x1, x27
    78d8:	aa1503e0 	mov	x0, x21
    78dc:	a90797e6 	stp	x6, x5, [sp, #120]
    78e0:	97fffe25 	bl	7174 <mbedtls_mpi_montmul>
    78e4:	2a0003e2 	mov	w2, w0
    78e8:	a94797e6 	ldp	x6, x5, [sp, #120]
    78ec:	34fffea0 	cbz	w0, 78c0 <mbedtls_mpi_exp_mod+0x5d8>
/home/nk/optee/optee_os/lib/libmbedtls/mbedtls/library/bignum.c:2305 (discriminator 3)
    78f0:	f94037e0 	ldr	x0, [sp, #104]
    78f4:	b9008be2 	str	w2, [sp, #136]
    78f8:	97fff665 	bl	528c <mbedtls_mpi_free>
    78fc:	f94037e0 	ldr	x0, [sp, #104]
/home/nk/optee/optee_os/lib/libmbedtls/mbedtls/library/bignum.c:2304 (discriminator 3)
    7900:	f9404be1 	ldr	x1, [sp, #144]
    7904:	91006000 	add	x0, x0, #0x18
    7908:	f90037e0 	str	x0, [sp, #104]
    790c:	b9408be2 	ldr	w2, [sp, #136]
    7910:	eb01001f 	cmp	x0, x1
    7914:	54fffee1 	b.ne	78f0 <mbedtls_mpi_exp_mod+0x608>  // b.any
/home/nk/optee/optee_os/lib/libmbedtls/mbedtls/library/bignum.c:2306
    7918:	f94053e0 	ldr	x0, [sp, #160]
    791c:	aa1403e1 	mov	x1, x20
    7920:	b9006be2 	str	w2, [sp, #104]
    7924:	f940c800 	ldr	x0, [x0, #400]
    7928:	f9400000 	ldr	x0, [x0]
    792c:	940007f6 	bl	9904 <mempool_free>
/home/nk/optee/optee_os/lib/libmbedtls/mbedtls/library/bignum.c:2308
    7930:	aa1603e0 	mov	x0, x22
    7934:	97fff656 	bl	528c <mbedtls_mpi_free>
    7938:	f9403be0 	ldr	x0, [sp, #112]
    793c:	97fff654 	bl	528c <mbedtls_mpi_free>
/home/nk/optee/optee_os/lib/libmbedtls/mbedtls/library/bignum.c:2310
    7940:	b9406be2 	ldr	w2, [sp, #104]
    7944:	b4000079 	cbz	x25, 7950 <mbedtls_mpi_exp_mod+0x668>
/home/nk/optee/optee_os/lib/libmbedtls/mbedtls/library/bignum.c:2310 (discriminator 1)
    7948:	f9400b20 	ldr	x0, [x25, #16]
    794c:	b5ffcf20 	cbnz	x0, 7330 <mbedtls_mpi_exp_mod+0x48>
/home/nk/optee/optee_os/lib/libmbedtls/mbedtls/library/bignum.c:2311
    7950:	aa1803e0 	mov	x0, x24
    7954:	b9006be2 	str	w2, [sp, #104]
    7958:	97fff64d 	bl	528c <mbedtls_mpi_free>
    795c:	b9406be2 	ldr	w2, [sp, #104]
    7960:	17fffe74 	b	7330 <mbedtls_mpi_exp_mod+0x48>
/home/nk/optee/optee_os/lib/libmbedtls/mbedtls/library/bignum.c:2099
    7964:	d2800014 	mov	x20, #0x0                   	// #0
    7968:	17ffffec 	b	7918 <mbedtls_mpi_exp_mod+0x630>
/home/nk/optee/optee_os/lib/libmbedtls/mbedtls/library/bignum.c:2165
    796c:	128001e2 	mov	w2, #0xfffffff0            	// #-16
    7970:	17ffffea 	b	7918 <mbedtls_mpi_exp_mod+0x630>

0000000000007974 <mbedtls_mpi_gcd>:
mbedtls_mpi_gcd():
/home/nk/optee/optee_os/lib/libmbedtls/mbedtls/library/bignum.c:2320
    7974:	a9b87bfd 	stp	x29, x30, [sp, #-128]!
    7978:	910003fd 	mov	x29, sp
    797c:	a9025bf5 	stp	x21, x22, [sp, #32]
/home/nk/optee/optee_os/lib/libmbedtls/mbedtls/library/bignum.c:2329
    7980:	910143f5 	add	x21, sp, #0x50
/home/nk/optee/optee_os/lib/libmbedtls/mbedtls/library/bignum.c:2320
    7984:	a90153f3 	stp	x19, x20, [sp, #16]
/home/nk/optee/optee_os/lib/libmbedtls/mbedtls/library/bignum.c:2329
    7988:	9101a3f4 	add	x20, sp, #0x68
/home/nk/optee/optee_os/lib/libmbedtls/mbedtls/library/bignum.c:2320
    798c:	f9001bf7 	str	x23, [sp, #48]
    7990:	aa0003f7 	mov	x23, x0
/home/nk/optee/optee_os/lib/libmbedtls/mbedtls/library/bignum.c:2329
    7994:	aa1503e0 	mov	x0, x21
/home/nk/optee/optee_os/lib/libmbedtls/mbedtls/library/bignum.c:2320
    7998:	a90407e2 	stp	x2, x1, [sp, #64]
/home/nk/optee/optee_os/lib/libmbedtls/mbedtls/library/bignum.c:2329
    799c:	97fff632 	bl	5264 <mbedtls_mpi_init_mempool>
    79a0:	aa1403e0 	mov	x0, x20
    79a4:	97fff630 	bl	5264 <mbedtls_mpi_init_mempool>
/home/nk/optee/optee_os/lib/libmbedtls/mbedtls/library/bignum.c:2331
    79a8:	f94027e1 	ldr	x1, [sp, #72]
    79ac:	aa1503e0 	mov	x0, x21
    79b0:	97fff6d8 	bl	5510 <mbedtls_mpi_copy>
    79b4:	2a0003f3 	mov	w19, w0
    79b8:	350008c0 	cbnz	w0, 7ad0 <mbedtls_mpi_gcd+0x15c>
/home/nk/optee/optee_os/lib/libmbedtls/mbedtls/library/bignum.c:2332
    79bc:	f94023e2 	ldr	x2, [sp, #64]
    79c0:	aa1403e0 	mov	x0, x20
    79c4:	aa0203e1 	mov	x1, x2
    79c8:	97fff6d2 	bl	5510 <mbedtls_mpi_copy>
    79cc:	2a0003f3 	mov	w19, w0
    79d0:	35000800 	cbnz	w0, 7ad0 <mbedtls_mpi_gcd+0x15c>
/home/nk/optee/optee_os/lib/libmbedtls/mbedtls/library/bignum.c:2334
    79d4:	aa1503e0 	mov	x0, x21
    79d8:	97fff7c4 	bl	58e8 <mbedtls_mpi_lsb>
    79dc:	aa0003f6 	mov	x22, x0
/home/nk/optee/optee_os/lib/libmbedtls/mbedtls/library/bignum.c:2335
    79e0:	aa1403e0 	mov	x0, x20
    79e4:	97fff7c1 	bl	58e8 <mbedtls_mpi_lsb>
/home/nk/optee/optee_os/lib/libmbedtls/mbedtls/library/bignum.c:2337
    79e8:	eb0002df 	cmp	x22, x0
    79ec:	9a8092d6 	csel	x22, x22, x0, ls  // ls = plast
/home/nk/optee/optee_os/lib/libmbedtls/mbedtls/library/bignum.c:2340
    79f0:	aa1503e0 	mov	x0, x21
    79f4:	aa1603e1 	mov	x1, x22
    79f8:	97fff8e9 	bl	5d9c <mbedtls_mpi_shift_r>
    79fc:	2a0003f3 	mov	w19, w0
    7a00:	35000680 	cbnz	w0, 7ad0 <mbedtls_mpi_gcd+0x15c>
/home/nk/optee/optee_os/lib/libmbedtls/mbedtls/library/bignum.c:2341
    7a04:	aa1603e1 	mov	x1, x22
    7a08:	aa1403e0 	mov	x0, x20
    7a0c:	97fff8e4 	bl	5d9c <mbedtls_mpi_shift_r>
    7a10:	2a0003f3 	mov	w19, w0
    7a14:	350005e0 	cbnz	w0, 7ad0 <mbedtls_mpi_gcd+0x15c>
/home/nk/optee/optee_os/lib/libmbedtls/mbedtls/library/bignum.c:2343
    7a18:	52800020 	mov	w0, #0x1                   	// #1
    7a1c:	7900a3e0 	strh	w0, [sp, #80]
    7a20:	7900d3e0 	strh	w0, [sp, #104]
/home/nk/optee/optee_os/lib/libmbedtls/mbedtls/library/bignum.c:2345
    7a24:	52800001 	mov	w1, #0x0                   	// #0
    7a28:	aa1503e0 	mov	x0, x21
    7a2c:	97fff9a1 	bl	60b0 <mbedtls_mpi_cmp_int>
    7a30:	35000160 	cbnz	w0, 7a5c <mbedtls_mpi_gcd+0xe8>
/home/nk/optee/optee_os/lib/libmbedtls/mbedtls/library/bignum.c:2362
    7a34:	aa1603e1 	mov	x1, x22
    7a38:	aa1403e0 	mov	x0, x20
    7a3c:	97fff898 	bl	5c9c <mbedtls_mpi_shift_l>
    7a40:	2a0003f3 	mov	w19, w0
    7a44:	35000460 	cbnz	w0, 7ad0 <mbedtls_mpi_gcd+0x15c>
/home/nk/optee/optee_os/lib/libmbedtls/mbedtls/library/bignum.c:2363
    7a48:	aa1403e1 	mov	x1, x20
    7a4c:	aa1703e0 	mov	x0, x23
    7a50:	97fff6b0 	bl	5510 <mbedtls_mpi_copy>
    7a54:	2a0003f3 	mov	w19, w0
/home/nk/optee/optee_os/lib/libmbedtls/mbedtls/library/bignum.c:2365
    7a58:	1400001e 	b	7ad0 <mbedtls_mpi_gcd+0x15c>
/home/nk/optee/optee_os/lib/libmbedtls/mbedtls/library/bignum.c:2347
    7a5c:	aa1503e0 	mov	x0, x21
    7a60:	97fff7a2 	bl	58e8 <mbedtls_mpi_lsb>
    7a64:	aa0003e1 	mov	x1, x0
    7a68:	aa1503e0 	mov	x0, x21
    7a6c:	97fff8cc 	bl	5d9c <mbedtls_mpi_shift_r>
    7a70:	2a0003f3 	mov	w19, w0
    7a74:	350002e0 	cbnz	w0, 7ad0 <mbedtls_mpi_gcd+0x15c>
/home/nk/optee/optee_os/lib/libmbedtls/mbedtls/library/bignum.c:2348
    7a78:	aa1403e0 	mov	x0, x20
    7a7c:	97fff79b 	bl	58e8 <mbedtls_mpi_lsb>
    7a80:	aa0003e1 	mov	x1, x0
    7a84:	aa1403e0 	mov	x0, x20
    7a88:	97fff8c5 	bl	5d9c <mbedtls_mpi_shift_r>
    7a8c:	2a0003f3 	mov	w19, w0
    7a90:	35000200 	cbnz	w0, 7ad0 <mbedtls_mpi_gcd+0x15c>
/home/nk/optee/optee_os/lib/libmbedtls/mbedtls/library/bignum.c:2350
    7a94:	aa1403e1 	mov	x1, x20
    7a98:	aa1503e0 	mov	x0, x21
    7a9c:	97fff919 	bl	5f00 <mbedtls_mpi_cmp_mpi>
    7aa0:	37f802c0 	tbnz	w0, #31, 7af8 <mbedtls_mpi_gcd+0x184>
/home/nk/optee/optee_os/lib/libmbedtls/mbedtls/library/bignum.c:2352
    7aa4:	aa1403e2 	mov	x2, x20
    7aa8:	aa1503e1 	mov	x1, x21
    7aac:	aa1503e0 	mov	x0, x21
    7ab0:	97fff9db 	bl	621c <mbedtls_mpi_sub_abs>
    7ab4:	2a0003f3 	mov	w19, w0
    7ab8:	350000c0 	cbnz	w0, 7ad0 <mbedtls_mpi_gcd+0x15c>
/home/nk/optee/optee_os/lib/libmbedtls/mbedtls/library/bignum.c:2353
    7abc:	aa1503e0 	mov	x0, x21
    7ac0:	d2800021 	mov	x1, #0x1                   	// #1
/home/nk/optee/optee_os/lib/libmbedtls/mbedtls/library/bignum.c:2358
    7ac4:	97fff8b6 	bl	5d9c <mbedtls_mpi_shift_r>
    7ac8:	2a0003f3 	mov	w19, w0
    7acc:	34fffac0 	cbz	w0, 7a24 <mbedtls_mpi_gcd+0xb0>
/home/nk/optee/optee_os/lib/libmbedtls/mbedtls/library/bignum.c:2367
    7ad0:	aa1503e0 	mov	x0, x21
    7ad4:	97fff5ee 	bl	528c <mbedtls_mpi_free>
    7ad8:	aa1403e0 	mov	x0, x20
    7adc:	97fff5ec 	bl	528c <mbedtls_mpi_free>
/home/nk/optee/optee_os/lib/libmbedtls/mbedtls/library/bignum.c:2370
    7ae0:	2a1303e0 	mov	w0, w19
    7ae4:	a94153f3 	ldp	x19, x20, [sp, #16]
    7ae8:	a9425bf5 	ldp	x21, x22, [sp, #32]
    7aec:	f9401bf7 	ldr	x23, [sp, #48]
    7af0:	a8c87bfd 	ldp	x29, x30, [sp], #128
    7af4:	d65f03c0 	ret
/home/nk/optee/optee_os/lib/libmbedtls/mbedtls/library/bignum.c:2357
    7af8:	aa1503e2 	mov	x2, x21
    7afc:	aa1403e1 	mov	x1, x20
    7b00:	aa1403e0 	mov	x0, x20
    7b04:	97fff9c6 	bl	621c <mbedtls_mpi_sub_abs>
    7b08:	2a0003f3 	mov	w19, w0
    7b0c:	35fffe20 	cbnz	w0, 7ad0 <mbedtls_mpi_gcd+0x15c>
/home/nk/optee/optee_os/lib/libmbedtls/mbedtls/library/bignum.c:2358
    7b10:	d2800021 	mov	x1, #0x1                   	// #1
    7b14:	aa1403e0 	mov	x0, x20
    7b18:	17ffffeb 	b	7ac4 <mbedtls_mpi_gcd+0x150>

0000000000007b1c <mbedtls_mpi_fill_random>:
mbedtls_mpi_fill_random():
/home/nk/optee/optee_os/lib/libmbedtls/mbedtls/library/bignum.c:2382
    7b1c:	a9bc7bfd 	stp	x29, x30, [sp, #-64]!
/home/nk/optee/optee_os/lib/libmbedtls/mbedtls/library/bignum.c:2384
    7b20:	f240043f 	tst	x1, #0x3
/home/nk/optee/optee_os/lib/libmbedtls/mbedtls/library/bignum.c:2382
    7b24:	910003fd 	mov	x29, sp
    7b28:	a90153f3 	stp	x19, x20, [sp, #16]
/home/nk/optee/optee_os/lib/libmbedtls/mbedtls/library/bignum.c:2384
    7b2c:	d342fc33 	lsr	x19, x1, #2
    7b30:	9a930673 	cinc	x19, x19, ne  // ne = any
/home/nk/optee/optee_os/lib/libmbedtls/mbedtls/library/bignum.c:2382
    7b34:	a9025bf5 	stp	x21, x22, [sp, #32]
    7b38:	aa0103f6 	mov	x22, x1
    7b3c:	aa0003f4 	mov	x20, x0
/home/nk/optee/optee_os/lib/libmbedtls/mbedtls/library/bignum.c:2392
    7b40:	f9400401 	ldr	x1, [x0, #8]
/home/nk/optee/optee_os/lib/libmbedtls/mbedtls/library/bignum.c:2382
    7b44:	a90363f7 	stp	x23, x24, [sp, #48]
    7b48:	aa0203f7 	mov	x23, x2
    7b4c:	aa0303f8 	mov	x24, x3
/home/nk/optee/optee_os/lib/libmbedtls/mbedtls/library/bignum.c:2392
    7b50:	eb13003f 	cmp	x1, x19
    7b54:	54000181 	b.ne	7b84 <mbedtls_mpi_fill_random+0x68>  // b.any
/home/nk/optee/optee_os/lib/libmbedtls/mbedtls/library/bignum.c:2398
    7b58:	52800001 	mov	w1, #0x0                   	// #0
    7b5c:	aa1403e0 	mov	x0, x20
    7b60:	97fff71a 	bl	57c8 <mbedtls_mpi_lset>
    7b64:	2a0003f5 	mov	w21, w0
    7b68:	34000200 	cbz	w0, 7ba8 <mbedtls_mpi_fill_random+0x8c>
/home/nk/optee/optee_os/lib/libmbedtls/mbedtls/library/bignum.c:2407
    7b6c:	2a1503e0 	mov	w0, w21
    7b70:	a94153f3 	ldp	x19, x20, [sp, #16]
    7b74:	a9425bf5 	ldp	x21, x22, [sp, #32]
    7b78:	a94363f7 	ldp	x23, x24, [sp, #48]
    7b7c:	a8c47bfd 	ldp	x29, x30, [sp], #64
    7b80:	d65f03c0 	ret
/home/nk/optee/optee_os/lib/libmbedtls/mbedtls/library/bignum.c:2394
    7b84:	97fff5c2 	bl	528c <mbedtls_mpi_free>
/home/nk/optee/optee_os/lib/libmbedtls/mbedtls/library/bignum.c:2395
    7b88:	aa1403e0 	mov	x0, x20
    7b8c:	97fff5b2 	bl	5254 <mbedtls_mpi_init>
/home/nk/optee/optee_os/lib/libmbedtls/mbedtls/library/bignum.c:2396
    7b90:	aa1303e1 	mov	x1, x19
    7b94:	aa1403e0 	mov	x0, x20
    7b98:	97fff5d8 	bl	52f8 <mbedtls_mpi_grow>
    7b9c:	2a0003f5 	mov	w21, w0
    7ba0:	34fffdc0 	cbz	w0, 7b58 <mbedtls_mpi_fill_random+0x3c>
    7ba4:	17fffff2 	b	7b6c <mbedtls_mpi_fill_random+0x50>
/home/nk/optee/optee_os/lib/libmbedtls/mbedtls/library/bignum.c:2401
    7ba8:	f9400a81 	ldr	x1, [x20, #16]
/home/nk/optee/optee_os/lib/libmbedtls/mbedtls/library/bignum.c:2385
    7bac:	d37ef660 	lsl	x0, x19, #2
    7bb0:	cb160000 	sub	x0, x0, x22
/home/nk/optee/optee_os/lib/libmbedtls/mbedtls/library/bignum.c:2401
    7bb4:	aa1603e2 	mov	x2, x22
    7bb8:	8b000021 	add	x1, x1, x0
    7bbc:	aa1803e0 	mov	x0, x24
    7bc0:	d63f02e0 	blr	x23
mpi_bigendian_to_host():
/home/nk/optee/optee_os/lib/libmbedtls/mbedtls/library/bignum.c:853
    7bc4:	b4fffd53 	cbz	x19, 7b6c <mbedtls_mpi_fill_random+0x50>
    7bc8:	f9400a80 	ldr	x0, [x20, #16]
    7bcc:	aa1303e1 	mov	x1, x19
    7bd0:	97fff584 	bl	51e0 <mpi_bigendian_to_host.part.0>
mbedtls_mpi_fill_random():
/home/nk/optee/optee_os/lib/libmbedtls/mbedtls/library/bignum.c:2406
    7bd4:	17ffffe6 	b	7b6c <mbedtls_mpi_fill_random+0x50>

0000000000007bd8 <mpi_miller_rabin>:
mpi_miller_rabin():
/home/nk/optee/optee_os/lib/libmbedtls/mbedtls/library/bignum.c:2575
    7bd8:	a9b07bfd 	stp	x29, x30, [sp, #-256]!
    7bdc:	910003fd 	mov	x29, sp
    7be0:	6d0627e8 	stp	d8, d9, [sp, #96]
    7be4:	9e670048 	fmov	d8, x2
    7be8:	9e670069 	fmov	d9, x3
    7bec:	a9025bf5 	stp	x21, x22, [sp, #32]
/home/nk/optee/optee_os/lib/libmbedtls/mbedtls/library/bignum.c:2583
    7bf0:	910223f5 	add	x21, sp, #0x88
    7bf4:	910283f6 	add	x22, sp, #0xa0
/home/nk/optee/optee_os/lib/libmbedtls/mbedtls/library/bignum.c:2575
    7bf8:	a90153f3 	stp	x19, x20, [sp, #16]
/home/nk/optee/optee_os/lib/libmbedtls/mbedtls/library/bignum.c:2584
    7bfc:	910343f3 	add	x19, sp, #0xd0
/home/nk/optee/optee_os/lib/libmbedtls/mbedtls/library/bignum.c:2575
    7c00:	a90363f7 	stp	x23, x24, [sp, #48]
    7c04:	aa0003f8 	mov	x24, x0
/home/nk/optee/optee_os/lib/libmbedtls/mbedtls/library/bignum.c:2583
    7c08:	aa1503e0 	mov	x0, x21
/home/nk/optee/optee_os/lib/libmbedtls/mbedtls/library/bignum.c:2575
    7c0c:	a9046bf9 	stp	x25, x26, [sp, #64]
/home/nk/optee/optee_os/lib/libmbedtls/mbedtls/library/bignum.c:2584
    7c10:	9102e3f7 	add	x23, sp, #0xb8
/home/nk/optee/optee_os/lib/libmbedtls/mbedtls/library/bignum.c:2585
    7c14:	9103a3f9 	add	x25, sp, #0xe8
/home/nk/optee/optee_os/lib/libmbedtls/mbedtls/library/bignum.c:2575
    7c18:	a90573fb 	stp	x27, x28, [sp, #80]
    7c1c:	f9003be1 	str	x1, [sp, #112]
/home/nk/optee/optee_os/lib/libmbedtls/mbedtls/library/bignum.c:2583
    7c20:	97fff591 	bl	5264 <mbedtls_mpi_init_mempool>
    7c24:	aa1603e0 	mov	x0, x22
    7c28:	97fff58f 	bl	5264 <mbedtls_mpi_init_mempool>
/home/nk/optee/optee_os/lib/libmbedtls/mbedtls/library/bignum.c:2584
    7c2c:	aa1703e0 	mov	x0, x23
    7c30:	97fff58d 	bl	5264 <mbedtls_mpi_init_mempool>
    7c34:	aa1303e0 	mov	x0, x19
    7c38:	97fff58b 	bl	5264 <mbedtls_mpi_init_mempool>
/home/nk/optee/optee_os/lib/libmbedtls/mbedtls/library/bignum.c:2585
    7c3c:	aa1903e0 	mov	x0, x25
    7c40:	97fff589 	bl	5264 <mbedtls_mpi_init_mempool>
/home/nk/optee/optee_os/lib/libmbedtls/mbedtls/library/bignum.c:2591
    7c44:	52800022 	mov	w2, #0x1                   	// #1
    7c48:	aa1803e1 	mov	x1, x24
    7c4c:	aa1503e0 	mov	x0, x21
    7c50:	97fff9fd 	bl	6444 <mbedtls_mpi_sub_int>
    7c54:	2a0003f4 	mov	w20, w0
    7c58:	35000620 	cbnz	w0, 7d1c <mpi_miller_rabin+0x144>
/home/nk/optee/optee_os/lib/libmbedtls/mbedtls/library/bignum.c:2592
    7c5c:	aa1503e0 	mov	x0, x21
    7c60:	97fff722 	bl	58e8 <mbedtls_mpi_lsb>
/home/nk/optee/optee_os/lib/libmbedtls/mbedtls/library/bignum.c:2593
    7c64:	aa1503e1 	mov	x1, x21
/home/nk/optee/optee_os/lib/libmbedtls/mbedtls/library/bignum.c:2592
    7c68:	aa0003fc 	mov	x28, x0
/home/nk/optee/optee_os/lib/libmbedtls/mbedtls/library/bignum.c:2593
    7c6c:	aa1603e0 	mov	x0, x22
    7c70:	97fff628 	bl	5510 <mbedtls_mpi_copy>
    7c74:	2a0003f4 	mov	w20, w0
    7c78:	35000520 	cbnz	w0, 7d1c <mpi_miller_rabin+0x144>
/home/nk/optee/optee_os/lib/libmbedtls/mbedtls/library/bignum.c:2594
    7c7c:	aa1c03e1 	mov	x1, x28
    7c80:	aa1603e0 	mov	x0, x22
    7c84:	97fff846 	bl	5d9c <mbedtls_mpi_shift_r>
    7c88:	2a0003f4 	mov	w20, w0
    7c8c:	35000480 	cbnz	w0, 7d1c <mpi_miller_rabin+0x144>
/home/nk/optee/optee_os/lib/libmbedtls/mbedtls/library/bignum.c:2596
    7c90:	d280001a 	mov	x26, #0x0                   	// #0
/home/nk/optee/optee_os/lib/libmbedtls/mbedtls/library/bignum.c:2596 (discriminator 1)
    7c94:	f9403be0 	ldr	x0, [sp, #112]
    7c98:	eb00035f 	cmp	x26, x0
    7c9c:	54000400 	b.eq	7d1c <mpi_miller_rabin+0x144>  // b.none
    7ca0:	528025db 	mov	w27, #0x12e                 	// #302
/home/nk/optee/optee_os/lib/libmbedtls/mbedtls/library/bignum.c:2603
    7ca4:	9e660123 	fmov	x3, d9
    7ca8:	9e660102 	fmov	x2, d8
    7cac:	f9400701 	ldr	x1, [x24, #8]
    7cb0:	aa1303e0 	mov	x0, x19
    7cb4:	d37ef421 	lsl	x1, x1, #2
    7cb8:	97ffff99 	bl	7b1c <mbedtls_mpi_fill_random>
    7cbc:	35000ca0 	cbnz	w0, 7e50 <mpi_miller_rabin+0x278>
/home/nk/optee/optee_os/lib/libmbedtls/mbedtls/library/bignum.c:2605
    7cc0:	aa1303e0 	mov	x0, x19
    7cc4:	97fff71e 	bl	593c <mbedtls_mpi_bitlen>
    7cc8:	aa0003e1 	mov	x1, x0
/home/nk/optee/optee_os/lib/libmbedtls/mbedtls/library/bignum.c:2606
    7ccc:	aa1503e0 	mov	x0, x21
/home/nk/optee/optee_os/lib/libmbedtls/mbedtls/library/bignum.c:2605
    7cd0:	f9003fe1 	str	x1, [sp, #120]
/home/nk/optee/optee_os/lib/libmbedtls/mbedtls/library/bignum.c:2606
    7cd4:	97fff71a 	bl	593c <mbedtls_mpi_bitlen>
/home/nk/optee/optee_os/lib/libmbedtls/mbedtls/library/bignum.c:2607
    7cd8:	f9403fe1 	ldr	x1, [sp, #120]
    7cdc:	eb00003f 	cmp	x1, x0
    7ce0:	54000189 	b.ls	7d10 <mpi_miller_rabin+0x138>  // b.plast
/home/nk/optee/optee_os/lib/libmbedtls/mbedtls/library/bignum.c:2608
    7ce4:	a94d8fe1 	ldp	x1, x3, [sp, #216]
    7ce8:	128003e4 	mov	w4, #0xffffffe0            	// #-32
    7cec:	d37ef422 	lsl	x2, x1, #2
    7cf0:	1b010081 	madd	w1, w4, w1, w0
    7cf4:	d1001042 	sub	x2, x2, #0x4
    7cf8:	12800000 	mov	w0, #0xffffffff            	// #-1
    7cfc:	11007c21 	add	w1, w1, #0x1f
    7d00:	1ac12001 	lsl	w1, w0, w1
    7d04:	b8626860 	ldr	w0, [x3, x2]
    7d08:	0a210001 	bic	w1, w0, w1
    7d0c:	b8226861 	str	w1, [x3, x2]
/home/nk/optee/optee_os/lib/libmbedtls/mbedtls/library/bignum.c:2611
    7d10:	7100077b 	subs	w27, w27, #0x1
    7d14:	540002a1 	b.ne	7d68 <mpi_miller_rabin+0x190>  // b.any
/home/nk/optee/optee_os/lib/libmbedtls/mbedtls/library/bignum.c:2612
    7d18:	128001b4 	mov	w20, #0xfffffff2            	// #-14
/home/nk/optee/optee_os/lib/libmbedtls/mbedtls/library/bignum.c:2655
    7d1c:	aa1503e0 	mov	x0, x21
    7d20:	97fff55b 	bl	528c <mbedtls_mpi_free>
    7d24:	aa1603e0 	mov	x0, x22
    7d28:	97fff559 	bl	528c <mbedtls_mpi_free>
/home/nk/optee/optee_os/lib/libmbedtls/mbedtls/library/bignum.c:2656
    7d2c:	aa1703e0 	mov	x0, x23
    7d30:	97fff557 	bl	528c <mbedtls_mpi_free>
    7d34:	aa1303e0 	mov	x0, x19
    7d38:	97fff555 	bl	528c <mbedtls_mpi_free>
/home/nk/optee/optee_os/lib/libmbedtls/mbedtls/library/bignum.c:2657
    7d3c:	aa1903e0 	mov	x0, x25
    7d40:	97fff553 	bl	528c <mbedtls_mpi_free>
/home/nk/optee/optee_os/lib/libmbedtls/mbedtls/library/bignum.c:2660
    7d44:	2a1403e0 	mov	w0, w20
    7d48:	a94153f3 	ldp	x19, x20, [sp, #16]
    7d4c:	a9425bf5 	ldp	x21, x22, [sp, #32]
    7d50:	a94363f7 	ldp	x23, x24, [sp, #48]
    7d54:	a9446bf9 	ldp	x25, x26, [sp, #64]
    7d58:	a94573fb 	ldp	x27, x28, [sp, #80]
    7d5c:	6d4627e8 	ldp	d8, d9, [sp, #96]
    7d60:	a8d07bfd 	ldp	x29, x30, [sp], #256
    7d64:	d65f03c0 	ret
/home/nk/optee/optee_os/lib/libmbedtls/mbedtls/library/bignum.c:2616
    7d68:	aa1503e1 	mov	x1, x21
    7d6c:	aa1303e0 	mov	x0, x19
    7d70:	97fff864 	bl	5f00 <mbedtls_mpi_cmp_mpi>
/home/nk/optee/optee_os/lib/libmbedtls/mbedtls/library/bignum.c:2617
    7d74:	36fff980 	tbz	w0, #31, 7ca4 <mpi_miller_rabin+0xcc>
/home/nk/optee/optee_os/lib/libmbedtls/mbedtls/library/bignum.c:2617 (discriminator 1)
    7d78:	52800021 	mov	w1, #0x1                   	// #1
    7d7c:	aa1303e0 	mov	x0, x19
    7d80:	97fff8cc 	bl	60b0 <mbedtls_mpi_cmp_int>
/home/nk/optee/optee_os/lib/libmbedtls/mbedtls/library/bignum.c:2616 (discriminator 1)
    7d84:	7100001f 	cmp	w0, #0x0
    7d88:	54fff8ed 	b.le	7ca4 <mpi_miller_rabin+0xcc>
/home/nk/optee/optee_os/lib/libmbedtls/mbedtls/library/bignum.c:2622
    7d8c:	aa1903e4 	mov	x4, x25
    7d90:	aa1803e3 	mov	x3, x24
    7d94:	aa1603e2 	mov	x2, x22
    7d98:	aa1303e1 	mov	x1, x19
    7d9c:	aa1303e0 	mov	x0, x19
    7da0:	97fffd52 	bl	72e8 <mbedtls_mpi_exp_mod>
    7da4:	35000560 	cbnz	w0, 7e50 <mpi_miller_rabin+0x278>
/home/nk/optee/optee_os/lib/libmbedtls/mbedtls/library/bignum.c:2624
    7da8:	aa1503e1 	mov	x1, x21
    7dac:	aa1303e0 	mov	x0, x19
    7db0:	97fff854 	bl	5f00 <mbedtls_mpi_cmp_mpi>
    7db4:	35000060 	cbnz	w0, 7dc0 <mpi_miller_rabin+0x1e8>
/home/nk/optee/optee_os/lib/libmbedtls/mbedtls/library/bignum.c:2596
    7db8:	9100075a 	add	x26, x26, #0x1
    7dbc:	17ffffb6 	b	7c94 <mpi_miller_rabin+0xbc>
/home/nk/optee/optee_os/lib/libmbedtls/mbedtls/library/bignum.c:2625 (discriminator 1)
    7dc0:	52800021 	mov	w1, #0x1                   	// #1
    7dc4:	aa1303e0 	mov	x0, x19
    7dc8:	97fff8ba 	bl	60b0 <mbedtls_mpi_cmp_int>
/home/nk/optee/optee_os/lib/libmbedtls/mbedtls/library/bignum.c:2624 (discriminator 1)
    7dcc:	34ffff60 	cbz	w0, 7db8 <mpi_miller_rabin+0x1e0>
/home/nk/optee/optee_os/lib/libmbedtls/mbedtls/library/bignum.c:2628
    7dd0:	d280003b 	mov	x27, #0x1                   	// #1
/home/nk/optee/optee_os/lib/libmbedtls/mbedtls/library/bignum.c:2629
    7dd4:	eb1c037f 	cmp	x27, x28
    7dd8:	54000262 	b.cs	7e24 <mpi_miller_rabin+0x24c>  // b.hs, b.nlast
/home/nk/optee/optee_os/lib/libmbedtls/mbedtls/library/bignum.c:2629 (discriminator 1)
    7ddc:	aa1503e1 	mov	x1, x21
    7de0:	aa1303e0 	mov	x0, x19
    7de4:	97fff847 	bl	5f00 <mbedtls_mpi_cmp_mpi>
    7de8:	340001e0 	cbz	w0, 7e24 <mpi_miller_rabin+0x24c>
/home/nk/optee/optee_os/lib/libmbedtls/mbedtls/library/bignum.c:2634
    7dec:	aa1303e2 	mov	x2, x19
    7df0:	aa1303e1 	mov	x1, x19
    7df4:	aa1703e0 	mov	x0, x23
    7df8:	97fff9a3 	bl	6484 <mbedtls_mpi_mul_mpi>
    7dfc:	350002a0 	cbnz	w0, 7e50 <mpi_miller_rabin+0x278>
/home/nk/optee/optee_os/lib/libmbedtls/mbedtls/library/bignum.c:2635
    7e00:	aa1803e2 	mov	x2, x24
    7e04:	aa1703e1 	mov	x1, x23
    7e08:	aa1303e0 	mov	x0, x19
    7e0c:	97fffbc1 	bl	6d10 <mbedtls_mpi_mod_mpi>
    7e10:	35000200 	cbnz	w0, 7e50 <mpi_miller_rabin+0x278>
/home/nk/optee/optee_os/lib/libmbedtls/mbedtls/library/bignum.c:2637
    7e14:	52800021 	mov	w1, #0x1                   	// #1
    7e18:	aa1303e0 	mov	x0, x19
    7e1c:	97fff8a5 	bl	60b0 <mbedtls_mpi_cmp_int>
    7e20:	35000140 	cbnz	w0, 7e48 <mpi_miller_rabin+0x270>
/home/nk/optee/optee_os/lib/libmbedtls/mbedtls/library/bignum.c:2646
    7e24:	aa1503e1 	mov	x1, x21
    7e28:	aa1303e0 	mov	x0, x19
    7e2c:	97fff835 	bl	5f00 <mbedtls_mpi_cmp_mpi>
    7e30:	35fff740 	cbnz	w0, 7d18 <mpi_miller_rabin+0x140>
/home/nk/optee/optee_os/lib/libmbedtls/mbedtls/library/bignum.c:2647 (discriminator 1)
    7e34:	52800021 	mov	w1, #0x1                   	// #1
    7e38:	aa1303e0 	mov	x0, x19
    7e3c:	97fff89d 	bl	60b0 <mbedtls_mpi_cmp_int>
/home/nk/optee/optee_os/lib/libmbedtls/mbedtls/library/bignum.c:2646 (discriminator 1)
    7e40:	35fffbc0 	cbnz	w0, 7db8 <mpi_miller_rabin+0x1e0>
    7e44:	17ffffb5 	b	7d18 <mpi_miller_rabin+0x140>
/home/nk/optee/optee_os/lib/libmbedtls/mbedtls/library/bignum.c:2640
    7e48:	9100077b 	add	x27, x27, #0x1
    7e4c:	17ffffe2 	b	7dd4 <mpi_miller_rabin+0x1fc>
    7e50:	2a0003f4 	mov	w20, w0
    7e54:	17ffffb2 	b	7d1c <mpi_miller_rabin+0x144>

0000000000007e58 <mbedtls_mpi_inv_mod>:
mbedtls_mpi_inv_mod():
/home/nk/optee/optee_os/lib/libmbedtls/mbedtls/library/bignum.c:2413
    7e58:	a9aa7bfd 	stp	x29, x30, [sp, #-352]!
    7e5c:	910003fd 	mov	x29, sp
    7e60:	6d0627e8 	stp	d8, d9, [sp, #96]
    7e64:	9e670029 	fmov	d9, x1
    7e68:	9e670048 	fmov	d8, x2
    7e6c:	fd003bea 	str	d10, [sp, #112]
    7e70:	9e67000a 	fmov	d10, x0
/home/nk/optee/optee_os/lib/libmbedtls/mbedtls/library/bignum.c:2420
    7e74:	52800021 	mov	w1, #0x1                   	// #1
    7e78:	aa0203e0 	mov	x0, x2
/home/nk/optee/optee_os/lib/libmbedtls/mbedtls/library/bignum.c:2413
    7e7c:	a90153f3 	stp	x19, x20, [sp, #16]
    7e80:	a9025bf5 	stp	x21, x22, [sp, #32]
    7e84:	a90363f7 	stp	x23, x24, [sp, #48]
    7e88:	a9046bf9 	stp	x25, x26, [sp, #64]
    7e8c:	a90573fb 	stp	x27, x28, [sp, #80]
/home/nk/optee/optee_os/lib/libmbedtls/mbedtls/library/bignum.c:2420
    7e90:	97fff888 	bl	60b0 <mbedtls_mpi_cmp_int>
    7e94:	7100001f 	cmp	w0, #0x0
    7e98:	54001f8d 	b.le	8288 <mbedtls_mpi_inv_mod+0x430>
/home/nk/optee/optee_os/lib/libmbedtls/mbedtls/library/bignum.c:2423
    7e9c:	910283fa 	add	x26, sp, #0xa0
    7ea0:	9102e3f8 	add	x24, sp, #0xb8
    7ea4:	aa1a03e0 	mov	x0, x26
    7ea8:	97fff4ef 	bl	5264 <mbedtls_mpi_init_mempool>
    7eac:	aa1803e0 	mov	x0, x24
/home/nk/optee/optee_os/lib/libmbedtls/mbedtls/library/bignum.c:2424
    7eb0:	910343f7 	add	x23, sp, #0xd0
/home/nk/optee/optee_os/lib/libmbedtls/mbedtls/library/bignum.c:2423
    7eb4:	97fff4ec 	bl	5264 <mbedtls_mpi_init_mempool>
/home/nk/optee/optee_os/lib/libmbedtls/mbedtls/library/bignum.c:2424
    7eb8:	9103a3f6 	add	x22, sp, #0xe8
    7ebc:	aa1703e0 	mov	x0, x23
    7ec0:	97fff4e9 	bl	5264 <mbedtls_mpi_init_mempool>
    7ec4:	aa1603e0 	mov	x0, x22
/home/nk/optee/optee_os/lib/libmbedtls/mbedtls/library/bignum.c:2425
    7ec8:	910223fc 	add	x28, sp, #0x88
/home/nk/optee/optee_os/lib/libmbedtls/mbedtls/library/bignum.c:2424
    7ecc:	97fff4e6 	bl	5264 <mbedtls_mpi_init_mempool>
/home/nk/optee/optee_os/lib/libmbedtls/mbedtls/library/bignum.c:2425
    7ed0:	910403fb 	add	x27, sp, #0x100
    7ed4:	aa1c03e0 	mov	x0, x28
    7ed8:	97fff4e3 	bl	5264 <mbedtls_mpi_init_mempool>
    7edc:	aa1b03e0 	mov	x0, x27
/home/nk/optee/optee_os/lib/libmbedtls/mbedtls/library/bignum.c:2426
    7ee0:	910463f9 	add	x25, sp, #0x118
/home/nk/optee/optee_os/lib/libmbedtls/mbedtls/library/bignum.c:2425
    7ee4:	97fff4e0 	bl	5264 <mbedtls_mpi_init_mempool>
/home/nk/optee/optee_os/lib/libmbedtls/mbedtls/library/bignum.c:2426
    7ee8:	9104c3f4 	add	x20, sp, #0x130
    7eec:	aa1903e0 	mov	x0, x25
    7ef0:	97fff4dd 	bl	5264 <mbedtls_mpi_init_mempool>
    7ef4:	aa1403e0 	mov	x0, x20
/home/nk/optee/optee_os/lib/libmbedtls/mbedtls/library/bignum.c:2427
    7ef8:	910523f5 	add	x21, sp, #0x148
/home/nk/optee/optee_os/lib/libmbedtls/mbedtls/library/bignum.c:2426
    7efc:	97fff4da 	bl	5264 <mbedtls_mpi_init_mempool>
/home/nk/optee/optee_os/lib/libmbedtls/mbedtls/library/bignum.c:2427
    7f00:	aa1503e0 	mov	x0, x21
    7f04:	97fff4d8 	bl	5264 <mbedtls_mpi_init_mempool>
/home/nk/optee/optee_os/lib/libmbedtls/mbedtls/library/bignum.c:2429
    7f08:	9e660102 	fmov	x2, d8
    7f0c:	9e660121 	fmov	x1, d9
    7f10:	aa1c03e0 	mov	x0, x28
    7f14:	97fffe98 	bl	7974 <mbedtls_mpi_gcd>
    7f18:	2a0003f3 	mov	w19, w0
    7f1c:	35000d60 	cbnz	w0, 80c8 <mbedtls_mpi_inv_mod+0x270>
/home/nk/optee/optee_os/lib/libmbedtls/mbedtls/library/bignum.c:2431
    7f20:	52800021 	mov	w1, #0x1                   	// #1
    7f24:	aa1c03e0 	mov	x0, x28
    7f28:	97fff862 	bl	60b0 <mbedtls_mpi_cmp_int>
    7f2c:	35001aa0 	cbnz	w0, 8280 <mbedtls_mpi_inv_mod+0x428>
/home/nk/optee/optee_os/lib/libmbedtls/mbedtls/library/bignum.c:2437
    7f30:	9e660102 	fmov	x2, d8
    7f34:	9e660121 	fmov	x1, d9
    7f38:	aa1a03e0 	mov	x0, x26
    7f3c:	97fffb75 	bl	6d10 <mbedtls_mpi_mod_mpi>
    7f40:	2a0003f3 	mov	w19, w0
    7f44:	35000c20 	cbnz	w0, 80c8 <mbedtls_mpi_inv_mod+0x270>
/home/nk/optee/optee_os/lib/libmbedtls/mbedtls/library/bignum.c:2438
    7f48:	aa1a03e1 	mov	x1, x26
    7f4c:	aa1803e0 	mov	x0, x24
    7f50:	97fff570 	bl	5510 <mbedtls_mpi_copy>
    7f54:	2a0003f3 	mov	w19, w0
    7f58:	35000b80 	cbnz	w0, 80c8 <mbedtls_mpi_inv_mod+0x270>
/home/nk/optee/optee_os/lib/libmbedtls/mbedtls/library/bignum.c:2439
    7f5c:	9e660101 	fmov	x1, d8
    7f60:	aa1b03e0 	mov	x0, x27
    7f64:	97fff56b 	bl	5510 <mbedtls_mpi_copy>
    7f68:	2a0003f3 	mov	w19, w0
    7f6c:	35000ae0 	cbnz	w0, 80c8 <mbedtls_mpi_inv_mod+0x270>
/home/nk/optee/optee_os/lib/libmbedtls/mbedtls/library/bignum.c:2440
    7f70:	9e660101 	fmov	x1, d8
    7f74:	aa1903e0 	mov	x0, x25
    7f78:	97fff566 	bl	5510 <mbedtls_mpi_copy>
    7f7c:	2a0003f3 	mov	w19, w0
    7f80:	35000a40 	cbnz	w0, 80c8 <mbedtls_mpi_inv_mod+0x270>
/home/nk/optee/optee_os/lib/libmbedtls/mbedtls/library/bignum.c:2442
    7f84:	52800021 	mov	w1, #0x1                   	// #1
    7f88:	aa1703e0 	mov	x0, x23
    7f8c:	97fff60f 	bl	57c8 <mbedtls_mpi_lset>
    7f90:	2a0003f3 	mov	w19, w0
    7f94:	350009a0 	cbnz	w0, 80c8 <mbedtls_mpi_inv_mod+0x270>
/home/nk/optee/optee_os/lib/libmbedtls/mbedtls/library/bignum.c:2443
    7f98:	52800001 	mov	w1, #0x0                   	// #0
    7f9c:	aa1603e0 	mov	x0, x22
    7fa0:	97fff60a 	bl	57c8 <mbedtls_mpi_lset>
    7fa4:	2a0003f3 	mov	w19, w0
    7fa8:	35000900 	cbnz	w0, 80c8 <mbedtls_mpi_inv_mod+0x270>
/home/nk/optee/optee_os/lib/libmbedtls/mbedtls/library/bignum.c:2444
    7fac:	52800001 	mov	w1, #0x0                   	// #0
    7fb0:	aa1403e0 	mov	x0, x20
    7fb4:	97fff605 	bl	57c8 <mbedtls_mpi_lset>
    7fb8:	2a0003f3 	mov	w19, w0
    7fbc:	35000860 	cbnz	w0, 80c8 <mbedtls_mpi_inv_mod+0x270>
/home/nk/optee/optee_os/lib/libmbedtls/mbedtls/library/bignum.c:2445
    7fc0:	52800021 	mov	w1, #0x1                   	// #1
    7fc4:	aa1503e0 	mov	x0, x21
    7fc8:	97fff600 	bl	57c8 <mbedtls_mpi_lset>
/home/nk/optee/optee_os/lib/libmbedtls/mbedtls/library/bignum.c:2460
    7fcc:	2a0003f3 	mov	w19, w0
    7fd0:	350007c0 	cbnz	w0, 80c8 <mbedtls_mpi_inv_mod+0x270>
/home/nk/optee/optee_os/lib/libmbedtls/mbedtls/library/bignum.c:2449
    7fd4:	f94067e0 	ldr	x0, [sp, #200]
    7fd8:	b9400000 	ldr	w0, [x0]
    7fdc:	36000560 	tbz	w0, #0, 8088 <mbedtls_mpi_inv_mod+0x230>
/home/nk/optee/optee_os/lib/libmbedtls/mbedtls/library/bignum.c:2463
    7fe0:	f94097e0 	ldr	x0, [sp, #296]
    7fe4:	b9400000 	ldr	w0, [x0]
    7fe8:	36000ca0 	tbz	w0, #0, 817c <mbedtls_mpi_inv_mod+0x324>
/home/nk/optee/optee_os/lib/libmbedtls/mbedtls/library/bignum.c:2477
    7fec:	aa1903e1 	mov	x1, x25
    7ff0:	aa1803e0 	mov	x0, x24
    7ff4:	97fff7c3 	bl	5f00 <mbedtls_mpi_cmp_mpi>
    7ff8:	37f81080 	tbnz	w0, #31, 8208 <mbedtls_mpi_inv_mod+0x3b0>
/home/nk/optee/optee_os/lib/libmbedtls/mbedtls/library/bignum.c:2479
    7ffc:	aa1903e2 	mov	x2, x25
    8000:	aa1803e1 	mov	x1, x24
    8004:	aa1803e0 	mov	x0, x24
    8008:	97fff8dc 	bl	6378 <mbedtls_mpi_sub_mpi>
    800c:	2a0003f3 	mov	w19, w0
    8010:	350005c0 	cbnz	w0, 80c8 <mbedtls_mpi_inv_mod+0x270>
/home/nk/optee/optee_os/lib/libmbedtls/mbedtls/library/bignum.c:2480
    8014:	aa1403e2 	mov	x2, x20
    8018:	aa1703e1 	mov	x1, x23
    801c:	aa1703e0 	mov	x0, x23
    8020:	97fff8d6 	bl	6378 <mbedtls_mpi_sub_mpi>
    8024:	2a0003f3 	mov	w19, w0
    8028:	35000500 	cbnz	w0, 80c8 <mbedtls_mpi_inv_mod+0x270>
/home/nk/optee/optee_os/lib/libmbedtls/mbedtls/library/bignum.c:2481
    802c:	aa1503e2 	mov	x2, x21
    8030:	aa1603e1 	mov	x1, x22
    8034:	aa1603e0 	mov	x0, x22
    8038:	97fff8d0 	bl	6378 <mbedtls_mpi_sub_mpi>
    803c:	2a0003f3 	mov	w19, w0
    8040:	35000440 	cbnz	w0, 80c8 <mbedtls_mpi_inv_mod+0x270>
/home/nk/optee/optee_os/lib/libmbedtls/mbedtls/library/bignum.c:2490
    8044:	52800001 	mov	w1, #0x0                   	// #0
    8048:	aa1803e0 	mov	x0, x24
    804c:	97fff819 	bl	60b0 <mbedtls_mpi_cmp_int>
    8050:	35fffc20 	cbnz	w0, 7fd4 <mbedtls_mpi_inv_mod+0x17c>
/home/nk/optee/optee_os/lib/libmbedtls/mbedtls/library/bignum.c:2492
    8054:	52800001 	mov	w1, #0x0                   	// #0
    8058:	aa1403e0 	mov	x0, x20
    805c:	97fff815 	bl	60b0 <mbedtls_mpi_cmp_int>
    8060:	37f80f40 	tbnz	w0, #31, 8248 <mbedtls_mpi_inv_mod+0x3f0>
/home/nk/optee/optee_os/lib/libmbedtls/mbedtls/library/bignum.c:2495
    8064:	9e660101 	fmov	x1, d8
    8068:	aa1403e0 	mov	x0, x20
    806c:	97fff7a5 	bl	5f00 <mbedtls_mpi_cmp_mpi>
    8070:	36f80fa0 	tbz	w0, #31, 8264 <mbedtls_mpi_inv_mod+0x40c>
/home/nk/optee/optee_os/lib/libmbedtls/mbedtls/library/bignum.c:2498
    8074:	9e660140 	fmov	x0, d10
    8078:	aa1403e1 	mov	x1, x20
    807c:	97fff525 	bl	5510 <mbedtls_mpi_copy>
    8080:	2a0003f3 	mov	w19, w0
/home/nk/optee/optee_os/lib/libmbedtls/mbedtls/library/bignum.c:2500
    8084:	14000011 	b	80c8 <mbedtls_mpi_inv_mod+0x270>
/home/nk/optee/optee_os/lib/libmbedtls/mbedtls/library/bignum.c:2451
    8088:	d2800021 	mov	x1, #0x1                   	// #1
    808c:	aa1803e0 	mov	x0, x24
    8090:	97fff743 	bl	5d9c <mbedtls_mpi_shift_r>
    8094:	2a0003f3 	mov	w19, w0
    8098:	35000180 	cbnz	w0, 80c8 <mbedtls_mpi_inv_mod+0x270>
/home/nk/optee/optee_os/lib/libmbedtls/mbedtls/library/bignum.c:2453
    809c:	f94073e0 	ldr	x0, [sp, #224]
    80a0:	b9400000 	ldr	w0, [x0]
    80a4:	370004a0 	tbnz	w0, #0, 8138 <mbedtls_mpi_inv_mod+0x2e0>
/home/nk/optee/optee_os/lib/libmbedtls/mbedtls/library/bignum.c:2453 (discriminator 1)
    80a8:	f9407fe0 	ldr	x0, [sp, #248]
    80ac:	b9400000 	ldr	w0, [x0]
    80b0:	37000440 	tbnz	w0, #0, 8138 <mbedtls_mpi_inv_mod+0x2e0>
/home/nk/optee/optee_os/lib/libmbedtls/mbedtls/library/bignum.c:2459
    80b4:	d2800021 	mov	x1, #0x1                   	// #1
    80b8:	aa1703e0 	mov	x0, x23
    80bc:	97fff738 	bl	5d9c <mbedtls_mpi_shift_r>
    80c0:	2a0003f3 	mov	w19, w0
    80c4:	34000540 	cbz	w0, 816c <mbedtls_mpi_inv_mod+0x314>
/home/nk/optee/optee_os/lib/libmbedtls/mbedtls/library/bignum.c:2502
    80c8:	aa1a03e0 	mov	x0, x26
    80cc:	97fff470 	bl	528c <mbedtls_mpi_free>
    80d0:	aa1803e0 	mov	x0, x24
    80d4:	97fff46e 	bl	528c <mbedtls_mpi_free>
    80d8:	aa1703e0 	mov	x0, x23
    80dc:	97fff46c 	bl	528c <mbedtls_mpi_free>
    80e0:	aa1603e0 	mov	x0, x22
    80e4:	97fff46a 	bl	528c <mbedtls_mpi_free>
/home/nk/optee/optee_os/lib/libmbedtls/mbedtls/library/bignum.c:2503
    80e8:	aa1c03e0 	mov	x0, x28
    80ec:	97fff468 	bl	528c <mbedtls_mpi_free>
    80f0:	aa1b03e0 	mov	x0, x27
    80f4:	97fff466 	bl	528c <mbedtls_mpi_free>
    80f8:	aa1903e0 	mov	x0, x25
    80fc:	97fff464 	bl	528c <mbedtls_mpi_free>
/home/nk/optee/optee_os/lib/libmbedtls/mbedtls/library/bignum.c:2504
    8100:	aa1403e0 	mov	x0, x20
    8104:	97fff462 	bl	528c <mbedtls_mpi_free>
    8108:	aa1503e0 	mov	x0, x21
    810c:	97fff460 	bl	528c <mbedtls_mpi_free>
/home/nk/optee/optee_os/lib/libmbedtls/mbedtls/library/bignum.c:2507
    8110:	2a1303e0 	mov	w0, w19
    8114:	fd403bea 	ldr	d10, [sp, #112]
    8118:	a94153f3 	ldp	x19, x20, [sp, #16]
    811c:	a9425bf5 	ldp	x21, x22, [sp, #32]
    8120:	a94363f7 	ldp	x23, x24, [sp, #48]
    8124:	a9446bf9 	ldp	x25, x26, [sp, #64]
    8128:	a94573fb 	ldp	x27, x28, [sp, #80]
    812c:	6d4627e8 	ldp	d8, d9, [sp, #96]
    8130:	a8d67bfd 	ldp	x29, x30, [sp], #352
    8134:	d65f03c0 	ret
/home/nk/optee/optee_os/lib/libmbedtls/mbedtls/library/bignum.c:2455
    8138:	aa1b03e2 	mov	x2, x27
    813c:	aa1703e1 	mov	x1, x23
    8140:	aa1703e0 	mov	x0, x23
    8144:	97fff86b 	bl	62f0 <mbedtls_mpi_add_mpi>
    8148:	2a0003f3 	mov	w19, w0
    814c:	35fffbe0 	cbnz	w0, 80c8 <mbedtls_mpi_inv_mod+0x270>
/home/nk/optee/optee_os/lib/libmbedtls/mbedtls/library/bignum.c:2456
    8150:	aa1a03e2 	mov	x2, x26
    8154:	aa1603e1 	mov	x1, x22
    8158:	aa1603e0 	mov	x0, x22
    815c:	97fff887 	bl	6378 <mbedtls_mpi_sub_mpi>
    8160:	2a0003f3 	mov	w19, w0
    8164:	34fffa80 	cbz	w0, 80b4 <mbedtls_mpi_inv_mod+0x25c>
    8168:	17ffffd8 	b	80c8 <mbedtls_mpi_inv_mod+0x270>
/home/nk/optee/optee_os/lib/libmbedtls/mbedtls/library/bignum.c:2460
    816c:	d2800021 	mov	x1, #0x1                   	// #1
    8170:	aa1603e0 	mov	x0, x22
    8174:	97fff70a 	bl	5d9c <mbedtls_mpi_shift_r>
    8178:	17ffff95 	b	7fcc <mbedtls_mpi_inv_mod+0x174>
/home/nk/optee/optee_os/lib/libmbedtls/mbedtls/library/bignum.c:2465
    817c:	d2800021 	mov	x1, #0x1                   	// #1
    8180:	aa1903e0 	mov	x0, x25
    8184:	97fff706 	bl	5d9c <mbedtls_mpi_shift_r>
    8188:	2a0003f3 	mov	w19, w0
    818c:	35fff9e0 	cbnz	w0, 80c8 <mbedtls_mpi_inv_mod+0x270>
/home/nk/optee/optee_os/lib/libmbedtls/mbedtls/library/bignum.c:2467
    8190:	f940a3e0 	ldr	x0, [sp, #320]
    8194:	b9400000 	ldr	w0, [x0]
    8198:	370001e0 	tbnz	w0, #0, 81d4 <mbedtls_mpi_inv_mod+0x37c>
/home/nk/optee/optee_os/lib/libmbedtls/mbedtls/library/bignum.c:2467 (discriminator 1)
    819c:	f940afe0 	ldr	x0, [sp, #344]
    81a0:	b9400000 	ldr	w0, [x0]
    81a4:	37000180 	tbnz	w0, #0, 81d4 <mbedtls_mpi_inv_mod+0x37c>
/home/nk/optee/optee_os/lib/libmbedtls/mbedtls/library/bignum.c:2473
    81a8:	d2800021 	mov	x1, #0x1                   	// #1
    81ac:	aa1403e0 	mov	x0, x20
    81b0:	97fff6fb 	bl	5d9c <mbedtls_mpi_shift_r>
    81b4:	2a0003f3 	mov	w19, w0
    81b8:	35fff880 	cbnz	w0, 80c8 <mbedtls_mpi_inv_mod+0x270>
/home/nk/optee/optee_os/lib/libmbedtls/mbedtls/library/bignum.c:2474
    81bc:	d2800021 	mov	x1, #0x1                   	// #1
    81c0:	aa1503e0 	mov	x0, x21
    81c4:	97fff6f6 	bl	5d9c <mbedtls_mpi_shift_r>
    81c8:	2a0003f3 	mov	w19, w0
    81cc:	34fff0a0 	cbz	w0, 7fe0 <mbedtls_mpi_inv_mod+0x188>
    81d0:	17ffffbe 	b	80c8 <mbedtls_mpi_inv_mod+0x270>
/home/nk/optee/optee_os/lib/libmbedtls/mbedtls/library/bignum.c:2469
    81d4:	aa1b03e2 	mov	x2, x27
    81d8:	aa1403e1 	mov	x1, x20
    81dc:	aa1403e0 	mov	x0, x20
    81e0:	97fff844 	bl	62f0 <mbedtls_mpi_add_mpi>
    81e4:	2a0003f3 	mov	w19, w0
    81e8:	35fff700 	cbnz	w0, 80c8 <mbedtls_mpi_inv_mod+0x270>
/home/nk/optee/optee_os/lib/libmbedtls/mbedtls/library/bignum.c:2470
    81ec:	aa1a03e2 	mov	x2, x26
    81f0:	aa1503e1 	mov	x1, x21
    81f4:	aa1503e0 	mov	x0, x21
    81f8:	97fff860 	bl	6378 <mbedtls_mpi_sub_mpi>
    81fc:	2a0003f3 	mov	w19, w0
    8200:	34fffd40 	cbz	w0, 81a8 <mbedtls_mpi_inv_mod+0x350>
    8204:	17ffffb1 	b	80c8 <mbedtls_mpi_inv_mod+0x270>
/home/nk/optee/optee_os/lib/libmbedtls/mbedtls/library/bignum.c:2485
    8208:	aa1803e2 	mov	x2, x24
    820c:	aa1903e1 	mov	x1, x25
    8210:	aa1903e0 	mov	x0, x25
    8214:	97fff859 	bl	6378 <mbedtls_mpi_sub_mpi>
    8218:	2a0003f3 	mov	w19, w0
    821c:	35fff560 	cbnz	w0, 80c8 <mbedtls_mpi_inv_mod+0x270>
/home/nk/optee/optee_os/lib/libmbedtls/mbedtls/library/bignum.c:2486
    8220:	aa1703e2 	mov	x2, x23
    8224:	aa1403e1 	mov	x1, x20
    8228:	aa1403e0 	mov	x0, x20
    822c:	97fff853 	bl	6378 <mbedtls_mpi_sub_mpi>
    8230:	2a0003f3 	mov	w19, w0
    8234:	35fff4a0 	cbnz	w0, 80c8 <mbedtls_mpi_inv_mod+0x270>
/home/nk/optee/optee_os/lib/libmbedtls/mbedtls/library/bignum.c:2487
    8238:	aa1603e2 	mov	x2, x22
    823c:	aa1503e1 	mov	x1, x21
    8240:	aa1503e0 	mov	x0, x21
    8244:	17ffff7d 	b	8038 <mbedtls_mpi_inv_mod+0x1e0>
/home/nk/optee/optee_os/lib/libmbedtls/mbedtls/library/bignum.c:2493
    8248:	9e660102 	fmov	x2, d8
    824c:	aa1403e1 	mov	x1, x20
    8250:	aa1403e0 	mov	x0, x20
    8254:	97fff827 	bl	62f0 <mbedtls_mpi_add_mpi>
    8258:	2a0003f3 	mov	w19, w0
    825c:	34ffefc0 	cbz	w0, 8054 <mbedtls_mpi_inv_mod+0x1fc>
    8260:	17ffff9a 	b	80c8 <mbedtls_mpi_inv_mod+0x270>
/home/nk/optee/optee_os/lib/libmbedtls/mbedtls/library/bignum.c:2496
    8264:	9e660102 	fmov	x2, d8
    8268:	aa1403e1 	mov	x1, x20
    826c:	aa1403e0 	mov	x0, x20
    8270:	97fff842 	bl	6378 <mbedtls_mpi_sub_mpi>
    8274:	2a0003f3 	mov	w19, w0
    8278:	34ffef60 	cbz	w0, 8064 <mbedtls_mpi_inv_mod+0x20c>
    827c:	17ffff93 	b	80c8 <mbedtls_mpi_inv_mod+0x270>
/home/nk/optee/optee_os/lib/libmbedtls/mbedtls/library/bignum.c:2433
    8280:	128001b3 	mov	w19, #0xfffffff2            	// #-14
    8284:	17ffff91 	b	80c8 <mbedtls_mpi_inv_mod+0x270>
/home/nk/optee/optee_os/lib/libmbedtls/mbedtls/library/bignum.c:2421
    8288:	12800073 	mov	w19, #0xfffffffc            	// #-4
    828c:	17ffffa1 	b	8110 <mbedtls_mpi_inv_mod+0x2b8>

0000000000008290 <mbedtls_mpi_is_prime_ext>:
mbedtls_mpi_is_prime_ext():
/home/nk/optee/optee_os/lib/libmbedtls/mbedtls/library/bignum.c:2668
    8290:	a9bb7bfd 	stp	x29, x30, [sp, #-80]!
    8294:	910003fd 	mov	x29, sp
    8298:	a90153f3 	stp	x19, x20, [sp, #16]
    829c:	2a0103f4 	mov	w20, w1
/home/nk/optee/optee_os/lib/libmbedtls/mbedtls/library/bignum.c:2674
    82a0:	52800021 	mov	w1, #0x1                   	// #1
    82a4:	790073e1 	strh	w1, [sp, #56]
/home/nk/optee/optee_os/lib/libmbedtls/mbedtls/library/bignum.c:2678
    82a8:	9100e3f3 	add	x19, sp, #0x38
/home/nk/optee/optee_os/lib/libmbedtls/mbedtls/library/bignum.c:2676
    82ac:	a9408001 	ldp	x1, x0, [x0, #8]
/home/nk/optee/optee_os/lib/libmbedtls/mbedtls/library/bignum.c:2668
    82b0:	a9025bf5 	stp	x21, x22, [sp, #32]
    82b4:	aa0203f5 	mov	x21, x2
    82b8:	aa0303f6 	mov	x22, x3
/home/nk/optee/optee_os/lib/libmbedtls/mbedtls/library/bignum.c:2676
    82bc:	a90403e1 	stp	x1, x0, [sp, #64]
/home/nk/optee/optee_os/lib/libmbedtls/mbedtls/library/bignum.c:2678
    82c0:	52800001 	mov	w1, #0x0                   	// #0
    82c4:	aa1303e0 	mov	x0, x19
    82c8:	97fff77a 	bl	60b0 <mbedtls_mpi_cmp_int>
    82cc:	350000c0 	cbnz	w0, 82e4 <mbedtls_mpi_is_prime_ext+0x54>
/home/nk/optee/optee_os/lib/libmbedtls/mbedtls/library/bignum.c:2680
    82d0:	128001a0 	mov	w0, #0xfffffff2            	// #-14
/home/nk/optee/optee_os/lib/libmbedtls/mbedtls/library/bignum.c:2694
    82d4:	a94153f3 	ldp	x19, x20, [sp, #16]
    82d8:	a9425bf5 	ldp	x21, x22, [sp, #32]
    82dc:	a8c57bfd 	ldp	x29, x30, [sp], #80
    82e0:	d65f03c0 	ret
/home/nk/optee/optee_os/lib/libmbedtls/mbedtls/library/bignum.c:2679 (discriminator 1)
    82e4:	52800021 	mov	w1, #0x1                   	// #1
    82e8:	aa1303e0 	mov	x0, x19
    82ec:	97fff771 	bl	60b0 <mbedtls_mpi_cmp_int>
/home/nk/optee/optee_os/lib/libmbedtls/mbedtls/library/bignum.c:2678 (discriminator 1)
    82f0:	34ffff00 	cbz	w0, 82d0 <mbedtls_mpi_is_prime_ext+0x40>
/home/nk/optee/optee_os/lib/libmbedtls/mbedtls/library/bignum.c:2682
    82f4:	52800041 	mov	w1, #0x2                   	// #2
    82f8:	aa1303e0 	mov	x0, x19
    82fc:	97fff76d 	bl	60b0 <mbedtls_mpi_cmp_int>
    8300:	340000c0 	cbz	w0, 8318 <mbedtls_mpi_is_prime_ext+0x88>
/home/nk/optee/optee_os/lib/libmbedtls/mbedtls/library/bignum.c:2685
    8304:	aa1303e0 	mov	x0, x19
    8308:	97fffb66 	bl	70a0 <mpi_check_small_factors>
    830c:	340000a0 	cbz	w0, 8320 <mbedtls_mpi_is_prime_ext+0x90>
/home/nk/optee/optee_os/lib/libmbedtls/mbedtls/library/bignum.c:2687
    8310:	7100041f 	cmp	w0, #0x1
    8314:	54fffe01 	b.ne	82d4 <mbedtls_mpi_is_prime_ext+0x44>  // b.any
/home/nk/optee/optee_os/lib/libmbedtls/mbedtls/library/bignum.c:2688
    8318:	52800000 	mov	w0, #0x0                   	// #0
    831c:	17ffffee 	b	82d4 <mbedtls_mpi_is_prime_ext+0x44>
/home/nk/optee/optee_os/lib/libmbedtls/mbedtls/library/bignum.c:2693
    8320:	aa1603e3 	mov	x3, x22
    8324:	aa1503e2 	mov	x2, x21
    8328:	93407e81 	sxtw	x1, w20
    832c:	aa1303e0 	mov	x0, x19
    8330:	97fffe2a 	bl	7bd8 <mpi_miller_rabin>
    8334:	17ffffe8 	b	82d4 <mbedtls_mpi_is_prime_ext+0x44>

0000000000008338 <mbedtls_mpi_is_prime>:
mbedtls_mpi_is_prime():
/home/nk/optee/optee_os/lib/libmbedtls/mbedtls/library/bignum.c:2712
    8338:	aa0203e3 	mov	x3, x2
    833c:	aa0103e2 	mov	x2, x1
    8340:	52800501 	mov	w1, #0x28                  	// #40
    8344:	17ffffd3 	b	8290 <mbedtls_mpi_is_prime_ext>

0000000000008348 <mbedtls_mpi_gen_prime>:
mbedtls_mpi_gen_prime():
/home/nk/optee/optee_os/lib/libmbedtls/mbedtls/library/bignum.c:2726
    8348:	a9b67bfd 	stp	x29, x30, [sp, #-160]!
/home/nk/optee/optee_os/lib/libmbedtls/mbedtls/library/bignum.c:2743
    834c:	d1000c26 	sub	x6, x1, #0x3
    8350:	d283ffa5 	mov	x5, #0x1ffd                	// #8189
/home/nk/optee/optee_os/lib/libmbedtls/mbedtls/library/bignum.c:2726
    8354:	910003fd 	mov	x29, sp
    8358:	a90153f3 	stp	x19, x20, [sp, #16]
/home/nk/optee/optee_os/lib/libmbedtls/mbedtls/library/bignum.c:2743
    835c:	eb0500df 	cmp	x6, x5
/home/nk/optee/optee_os/lib/libmbedtls/mbedtls/library/bignum.c:2726
    8360:	a9025bf5 	stp	x21, x22, [sp, #32]
    8364:	a90363f7 	stp	x23, x24, [sp, #48]
    8368:	a9046bf9 	stp	x25, x26, [sp, #64]
    836c:	a90573fb 	stp	x27, x28, [sp, #80]
    8370:	6d0627e8 	stp	d8, d9, [sp, #96]
/home/nk/optee/optee_os/lib/libmbedtls/mbedtls/library/bignum.c:2743
    8374:	540016c8 	b.hi	864c <mbedtls_mpi_gen_prime+0x304>  // b.pmore
    8378:	9e670089 	fmov	d9, x4
    837c:	9e670068 	fmov	d8, x3
    8380:	aa0103fa 	mov	x26, x1
/home/nk/optee/optee_os/lib/libmbedtls/mbedtls/library/bignum.c:2746
    8384:	910223f6 	add	x22, sp, #0x88
    8388:	2a0203f8 	mov	w24, w2
    838c:	aa0003f5 	mov	x21, x0
    8390:	aa1603e0 	mov	x0, x22
    8394:	97fff3b4 	bl	5264 <mbedtls_mpi_init_mempool>
/home/nk/optee/optee_os/lib/libmbedtls/mbedtls/library/bignum.c:2748
    8398:	f240135f 	tst	x26, #0x1f
    839c:	d345ff57 	lsr	x23, x26, #5
    83a0:	9a9706f7 	cinc	x23, x23, ne  // ne = any
/home/nk/optee/optee_os/lib/libmbedtls/mbedtls/library/bignum.c:2750
    83a4:	37080cf8 	tbnz	w24, #1, 8540 <mbedtls_mpi_gen_prime+0x1f8>
/home/nk/optee/optee_os/lib/libmbedtls/mbedtls/library/bignum.c:2755
    83a8:	f1144f5f 	cmp	x26, #0x513
    83ac:	54000ee8 	b.hi	8588 <mbedtls_mpi_gen_prime+0x240>  // b.pmore
/home/nk/optee/optee_os/lib/libmbedtls/mbedtls/library/bignum.c:2755 (discriminator 1)
    83b0:	f10d475f 	cmp	x26, #0x351
    83b4:	54000ee8 	b.hi	8590 <mbedtls_mpi_gen_prime+0x248>  // b.pmore
/home/nk/optee/optee_os/lib/libmbedtls/mbedtls/library/bignum.c:2756
    83b8:	f10a275f 	cmp	x26, #0x289
    83bc:	54000f28 	b.hi	85a0 <mbedtls_mpi_gen_prime+0x258>  // b.pmore
/home/nk/optee/optee_os/lib/libmbedtls/mbedtls/library/bignum.c:2756 (discriminator 1)
    83c0:	f105775f 	cmp	x26, #0x15d
    83c4:	54000fe8 	b.hi	85c0 <mbedtls_mpi_gen_prime+0x278>  // b.pmore
/home/nk/optee/optee_os/lib/libmbedtls/mbedtls/library/bignum.c:2757
    83c8:	f103e75f 	cmp	x26, #0xf9
    83cc:	54000e68 	b.hi	8598 <mbedtls_mpi_gen_prime+0x250>  // b.pmore
/home/nk/optee/optee_os/lib/libmbedtls/mbedtls/library/bignum.c:2757 (discriminator 1)
    83d0:	f102575f 	cmp	x26, #0x95
    83d4:	d2800254 	mov	x20, #0x12                  	// #18
    83d8:	d2800360 	mov	x0, #0x1b                  	// #27
/home/nk/optee/optee_os/lib/libmbedtls/mbedtls/library/bignum.c:2768 (discriminator 1)
    83dc:	9a808294 	csel	x20, x20, x0, hi  // hi = pmore
/home/nk/optee/optee_os/lib/libmbedtls/mbedtls/library/bignum.c:2773
    83e0:	d37ef6f9 	lsl	x25, x23, #2
/home/nk/optee/optee_os/lib/libmbedtls/mbedtls/library/bignum.c:2777
    83e4:	d37beaf7 	lsl	x23, x23, #5
/home/nk/optee/optee_os/lib/libmbedtls/mbedtls/library/bignum.c:2775
    83e8:	529e667c 	mov	w28, #0xf333                	// #62259
/home/nk/optee/optee_os/lib/libmbedtls/mbedtls/library/bignum.c:2778
    83ec:	cb1a02fb 	sub	x27, x23, x26
/home/nk/optee/optee_os/lib/libmbedtls/mbedtls/library/bignum.c:2781
    83f0:	12000318 	and	w24, w24, #0x1
/home/nk/optee/optee_os/lib/libmbedtls/mbedtls/library/bignum.c:2775
    83f4:	d1001320 	sub	x0, x25, #0x4
    83f8:	72b6a09c 	movk	w28, #0xb504, lsl #16
    83fc:	f9003fe0 	str	x0, [sp, #120]
/home/nk/optee/optee_os/lib/libmbedtls/mbedtls/library/bignum.c:2773
    8400:	9e660123 	fmov	x3, d9
    8404:	9e660102 	fmov	x2, d8
    8408:	aa1903e1 	mov	x1, x25
    840c:	aa1503e0 	mov	x0, x21
    8410:	97fffdc3 	bl	7b1c <mbedtls_mpi_fill_random>
    8414:	2a0003f3 	mov	w19, w0
    8418:	35000ea0 	cbnz	w0, 85ec <mbedtls_mpi_gen_prime+0x2a4>
/home/nk/optee/optee_os/lib/libmbedtls/mbedtls/library/bignum.c:2775
    841c:	f9400aa0 	ldr	x0, [x21, #16]
    8420:	f9403fe1 	ldr	x1, [sp, #120]
    8424:	b8616800 	ldr	w0, [x0, x1]
    8428:	6b1c001f 	cmp	w0, w28
    842c:	54fffea9 	b.ls	8400 <mbedtls_mpi_gen_prime+0xb8>  // b.plast
/home/nk/optee/optee_os/lib/libmbedtls/mbedtls/library/bignum.c:2778
    8430:	eb17035f 	cmp	x26, x23
    8434:	54000d23 	b.cc	85d8 <mbedtls_mpi_gen_prime+0x290>  // b.lo, b.ul, b.last
/home/nk/optee/optee_os/lib/libmbedtls/mbedtls/library/bignum.c:2779
    8438:	f9400aa1 	ldr	x1, [x21, #16]
    843c:	b9400020 	ldr	w0, [x1]
    8440:	32000002 	orr	w2, w0, #0x1
    8444:	b9000022 	str	w2, [x1]
/home/nk/optee/optee_os/lib/libmbedtls/mbedtls/library/bignum.c:2781
    8448:	34000e98 	cbz	w24, 8618 <mbedtls_mpi_gen_prime+0x2d0>
/home/nk/optee/optee_os/lib/libmbedtls/mbedtls/library/bignum.c:2796
    844c:	32000400 	orr	w0, w0, #0x3
    8450:	b9000020 	str	w0, [x1]
/home/nk/optee/optee_os/lib/libmbedtls/mbedtls/library/bignum.c:2798
    8454:	52800062 	mov	w2, #0x3                   	// #3
    8458:	aa1503e1 	mov	x1, x21
    845c:	910213e0 	add	x0, sp, #0x84
    8460:	97fffa59 	bl	6dc4 <mbedtls_mpi_mod_int>
    8464:	2a0003f3 	mov	w19, w0
    8468:	35000c20 	cbnz	w0, 85ec <mbedtls_mpi_gen_prime+0x2a4>
/home/nk/optee/optee_os/lib/libmbedtls/mbedtls/library/bignum.c:2799
    846c:	b94087e0 	ldr	w0, [sp, #132]
    8470:	35000e60 	cbnz	w0, 863c <mbedtls_mpi_gen_prime+0x2f4>
/home/nk/optee/optee_os/lib/libmbedtls/mbedtls/library/bignum.c:2800
    8474:	52800102 	mov	w2, #0x8                   	// #8
    8478:	aa1503e1 	mov	x1, x21
    847c:	aa1503e0 	mov	x0, x21
    8480:	97fff7e1 	bl	6404 <mbedtls_mpi_add_int>
    8484:	2a0003f3 	mov	w19, w0
    8488:	35000b20 	cbnz	w0, 85ec <mbedtls_mpi_gen_prime+0x2a4>
/home/nk/optee/optee_os/lib/libmbedtls/mbedtls/library/bignum.c:2805
    848c:	aa1503e1 	mov	x1, x21
    8490:	aa1603e0 	mov	x0, x22
    8494:	97fff41f 	bl	5510 <mbedtls_mpi_copy>
    8498:	2a0003f3 	mov	w19, w0
    849c:	35000a80 	cbnz	w0, 85ec <mbedtls_mpi_gen_prime+0x2a4>
/home/nk/optee/optee_os/lib/libmbedtls/mbedtls/library/bignum.c:2806
    84a0:	d2800021 	mov	x1, #0x1                   	// #1
    84a4:	aa1603e0 	mov	x0, x22
    84a8:	97fff63d 	bl	5d9c <mbedtls_mpi_shift_r>
    84ac:	2a0003f3 	mov	w19, w0
    84b0:	350009e0 	cbnz	w0, 85ec <mbedtls_mpi_gen_prime+0x2a4>
/home/nk/optee/optee_os/lib/libmbedtls/mbedtls/library/bignum.c:2814
    84b4:	aa1503e0 	mov	x0, x21
    84b8:	97fffafa 	bl	70a0 <mpi_check_small_factors>
    84bc:	2a0003f3 	mov	w19, w0
    84c0:	35000260 	cbnz	w0, 850c <mbedtls_mpi_gen_prime+0x1c4>
/home/nk/optee/optee_os/lib/libmbedtls/mbedtls/library/bignum.c:2815 (discriminator 1)
    84c4:	aa1603e0 	mov	x0, x22
    84c8:	97fffaf6 	bl	70a0 <mpi_check_small_factors>
    84cc:	2a0003f3 	mov	w19, w0
/home/nk/optee/optee_os/lib/libmbedtls/mbedtls/library/bignum.c:2814 (discriminator 1)
    84d0:	350001e0 	cbnz	w0, 850c <mbedtls_mpi_gen_prime+0x1c4>
/home/nk/optee/optee_os/lib/libmbedtls/mbedtls/library/bignum.c:2816
    84d4:	9e660123 	fmov	x3, d9
    84d8:	9e660102 	fmov	x2, d8
    84dc:	aa1403e1 	mov	x1, x20
    84e0:	aa1503e0 	mov	x0, x21
    84e4:	97fffdbd 	bl	7bd8 <mpi_miller_rabin>
    84e8:	2a0003f3 	mov	w19, w0
/home/nk/optee/optee_os/lib/libmbedtls/mbedtls/library/bignum.c:2815
    84ec:	35000100 	cbnz	w0, 850c <mbedtls_mpi_gen_prime+0x1c4>
/home/nk/optee/optee_os/lib/libmbedtls/mbedtls/library/bignum.c:2818
    84f0:	9e660123 	fmov	x3, d9
    84f4:	9e660102 	fmov	x2, d8
    84f8:	aa1403e1 	mov	x1, x20
    84fc:	aa1603e0 	mov	x0, x22
    8500:	97fffdb6 	bl	7bd8 <mpi_miller_rabin>
    8504:	2a0003f3 	mov	w19, w0
/home/nk/optee/optee_os/lib/libmbedtls/mbedtls/library/bignum.c:2817
    8508:	34000720 	cbz	w0, 85ec <mbedtls_mpi_gen_prime+0x2a4>
/home/nk/optee/optee_os/lib/libmbedtls/mbedtls/library/bignum.c:2822
    850c:	31003a7f 	cmn	w19, #0xe
    8510:	540006e1 	b.ne	85ec <mbedtls_mpi_gen_prime+0x2a4>  // b.any
/home/nk/optee/optee_os/lib/libmbedtls/mbedtls/library/bignum.c:2830
    8514:	52800182 	mov	w2, #0xc                   	// #12
    8518:	aa1503e1 	mov	x1, x21
    851c:	aa1503e0 	mov	x0, x21
    8520:	97fff7b9 	bl	6404 <mbedtls_mpi_add_int>
    8524:	2a0003f3 	mov	w19, w0
    8528:	35000620 	cbnz	w0, 85ec <mbedtls_mpi_gen_prime+0x2a4>
/home/nk/optee/optee_os/lib/libmbedtls/mbedtls/library/bignum.c:2831
    852c:	528000c2 	mov	w2, #0x6                   	// #6
    8530:	aa1603e1 	mov	x1, x22
    8534:	aa1603e0 	mov	x0, x22
    8538:	97fff7b3 	bl	6404 <mbedtls_mpi_add_int>
    853c:	17ffffdc 	b	84ac <mbedtls_mpi_gen_prime+0x164>
/home/nk/optee/optee_os/lib/libmbedtls/mbedtls/library/bignum.c:2765
    8540:	f116a75f 	cmp	x26, #0x5a9
    8544:	540002e8 	b.hi	85a0 <mbedtls_mpi_gen_prime+0x258>  // b.pmore
/home/nk/optee/optee_os/lib/libmbedtls/mbedtls/library/bignum.c:2765 (discriminator 1)
    8548:	f111f75f 	cmp	x26, #0x47d
    854c:	540002e8 	b.hi	85a8 <mbedtls_mpi_gen_prime+0x260>  // b.pmore
/home/nk/optee/optee_os/lib/libmbedtls/mbedtls/library/bignum.c:2766
    8550:	f10f9f5f 	cmp	x26, #0x3e7
    8554:	540002e8 	b.hi	85b0 <mbedtls_mpi_gen_prime+0x268>  // b.pmore
/home/nk/optee/optee_os/lib/libmbedtls/mbedtls/library/bignum.c:2766 (discriminator 1)
    8558:	f10d475f 	cmp	x26, #0x351
    855c:	540002e8 	b.hi	85b8 <mbedtls_mpi_gen_prime+0x270>  // b.pmore
/home/nk/optee/optee_os/lib/libmbedtls/mbedtls/library/bignum.c:2767
    8560:	f10bb75f 	cmp	x26, #0x2ed
    8564:	540002e8 	b.hi	85c0 <mbedtls_mpi_gen_prime+0x278>  // b.pmore
/home/nk/optee/optee_os/lib/libmbedtls/mbedtls/library/bignum.c:2767 (discriminator 1)
    8568:	f107cf5f 	cmp	x26, #0x1f3
    856c:	540002e8 	b.hi	85c8 <mbedtls_mpi_gen_prime+0x280>  // b.pmore
/home/nk/optee/optee_os/lib/libmbedtls/mbedtls/library/bignum.c:2768
    8570:	f103e75f 	cmp	x26, #0xf9
    8574:	540002e8 	b.hi	85d0 <mbedtls_mpi_gen_prime+0x288>  // b.pmore
/home/nk/optee/optee_os/lib/libmbedtls/mbedtls/library/bignum.c:2768 (discriminator 1)
    8578:	f102575f 	cmp	x26, #0x95
    857c:	d2800514 	mov	x20, #0x28                  	// #40
    8580:	d2800660 	mov	x0, #0x33                  	// #51
    8584:	17ffff96 	b	83dc <mbedtls_mpi_gen_prime+0x94>
/home/nk/optee/optee_os/lib/libmbedtls/mbedtls/library/bignum.c:2755
    8588:	d2800054 	mov	x20, #0x2                   	// #2
    858c:	17ffff95 	b	83e0 <mbedtls_mpi_gen_prime+0x98>
    8590:	d2800074 	mov	x20, #0x3                   	// #3
    8594:	17ffff93 	b	83e0 <mbedtls_mpi_gen_prime+0x98>
/home/nk/optee/optee_os/lib/libmbedtls/mbedtls/library/bignum.c:2757
    8598:	d2800194 	mov	x20, #0xc                   	// #12
    859c:	17ffff91 	b	83e0 <mbedtls_mpi_gen_prime+0x98>
/home/nk/optee/optee_os/lib/libmbedtls/mbedtls/library/bignum.c:2756
    85a0:	d2800094 	mov	x20, #0x4                   	// #4
    85a4:	17ffff8f 	b	83e0 <mbedtls_mpi_gen_prime+0x98>
/home/nk/optee/optee_os/lib/libmbedtls/mbedtls/library/bignum.c:2765
    85a8:	d28000b4 	mov	x20, #0x5                   	// #5
    85ac:	17ffff8d 	b	83e0 <mbedtls_mpi_gen_prime+0x98>
/home/nk/optee/optee_os/lib/libmbedtls/mbedtls/library/bignum.c:2766
    85b0:	d28000d4 	mov	x20, #0x6                   	// #6
    85b4:	17ffff8b 	b	83e0 <mbedtls_mpi_gen_prime+0x98>
    85b8:	d28000f4 	mov	x20, #0x7                   	// #7
    85bc:	17ffff89 	b	83e0 <mbedtls_mpi_gen_prime+0x98>
/home/nk/optee/optee_os/lib/libmbedtls/mbedtls/library/bignum.c:2756
    85c0:	d2800114 	mov	x20, #0x8                   	// #8
    85c4:	17ffff87 	b	83e0 <mbedtls_mpi_gen_prime+0x98>
/home/nk/optee/optee_os/lib/libmbedtls/mbedtls/library/bignum.c:2767
    85c8:	d28001b4 	mov	x20, #0xd                   	// #13
    85cc:	17ffff85 	b	83e0 <mbedtls_mpi_gen_prime+0x98>
/home/nk/optee/optee_os/lib/libmbedtls/mbedtls/library/bignum.c:2768
    85d0:	d2800394 	mov	x20, #0x1c                  	// #28
    85d4:	17ffff83 	b	83e0 <mbedtls_mpi_gen_prime+0x98>
/home/nk/optee/optee_os/lib/libmbedtls/mbedtls/library/bignum.c:2778 (discriminator 1)
    85d8:	aa1b03e1 	mov	x1, x27
    85dc:	aa1503e0 	mov	x0, x21
    85e0:	97fff5ef 	bl	5d9c <mbedtls_mpi_shift_r>
    85e4:	2a0003f3 	mov	w19, w0
    85e8:	34fff280 	cbz	w0, 8438 <mbedtls_mpi_gen_prime+0xf0>
/home/nk/optee/optee_os/lib/libmbedtls/mbedtls/library/bignum.c:2838
    85ec:	aa1603e0 	mov	x0, x22
    85f0:	97fff327 	bl	528c <mbedtls_mpi_free>
/home/nk/optee/optee_os/lib/libmbedtls/mbedtls/library/bignum.c:2841
    85f4:	2a1303e0 	mov	w0, w19
    85f8:	a94153f3 	ldp	x19, x20, [sp, #16]
    85fc:	a9425bf5 	ldp	x21, x22, [sp, #32]
    8600:	a94363f7 	ldp	x23, x24, [sp, #48]
    8604:	a9446bf9 	ldp	x25, x26, [sp, #64]
    8608:	a94573fb 	ldp	x27, x28, [sp, #80]
    860c:	6d4627e8 	ldp	d8, d9, [sp, #96]
    8610:	a8ca7bfd 	ldp	x29, x30, [sp], #160
    8614:	d65f03c0 	ret
/home/nk/optee/optee_os/lib/libmbedtls/mbedtls/library/bignum.c:2783
    8618:	9e660123 	fmov	x3, d9
    861c:	9e660102 	fmov	x2, d8
    8620:	2a1403e1 	mov	w1, w20
    8624:	aa1503e0 	mov	x0, x21
    8628:	97ffff1a 	bl	8290 <mbedtls_mpi_is_prime_ext>
    862c:	2a0003f3 	mov	w19, w0
/home/nk/optee/optee_os/lib/libmbedtls/mbedtls/library/bignum.c:2785
    8630:	3100381f 	cmn	w0, #0xe
    8634:	54ffee60 	b.eq	8400 <mbedtls_mpi_gen_prime+0xb8>  // b.none
    8638:	17ffffed 	b	85ec <mbedtls_mpi_gen_prime+0x2a4>
/home/nk/optee/optee_os/lib/libmbedtls/mbedtls/library/bignum.c:2801
    863c:	7100041f 	cmp	w0, #0x1
    8640:	54fff261 	b.ne	848c <mbedtls_mpi_gen_prime+0x144>  // b.any
/home/nk/optee/optee_os/lib/libmbedtls/mbedtls/library/bignum.c:2802
    8644:	52800082 	mov	w2, #0x4                   	// #4
    8648:	17ffff8c 	b	8478 <mbedtls_mpi_gen_prime+0x130>
/home/nk/optee/optee_os/lib/libmbedtls/mbedtls/library/bignum.c:2744
    864c:	12800073 	mov	w19, #0xfffffffc            	// #-4
    8650:	17ffffe9 	b	85f4 <mbedtls_mpi_gen_prime+0x2ac>

0000000000008654 <mbedtls_mpi_self_test>:
mbedtls_mpi_self_test():
/home/nk/optee/optee_os/lib/libmbedtls/mbedtls/library/bignum.c:2860
    8654:	a9ae7bfd 	stp	x29, x30, [sp, #-288]!
    8658:	910003fd 	mov	x29, sp
    865c:	a9025bf5 	stp	x21, x22, [sp, #32]
/home/nk/optee/optee_os/lib/libmbedtls/mbedtls/library/bignum.c:2864
    8660:	9101e3f6 	add	x22, sp, #0x78
/home/nk/optee/optee_os/lib/libmbedtls/mbedtls/library/bignum.c:2866
    8664:	9103c3f5 	add	x21, sp, #0xf0
/home/nk/optee/optee_os/lib/libmbedtls/mbedtls/library/bignum.c:2860
    8668:	a90153f3 	stp	x19, x20, [sp, #16]
    866c:	2a0003f3 	mov	w19, w0
/home/nk/optee/optee_os/lib/libmbedtls/mbedtls/library/bignum.c:2864
    8670:	aa1603e0 	mov	x0, x22
/home/nk/optee/optee_os/lib/libmbedtls/mbedtls/library/bignum.c:2860
    8674:	a90363f7 	stp	x23, x24, [sp, #48]
/home/nk/optee/optee_os/lib/libmbedtls/mbedtls/library/bignum.c:2865
    8678:	9102a3f8 	add	x24, sp, #0xa8
    867c:	910303f4 	add	x20, sp, #0xc0
/home/nk/optee/optee_os/lib/libmbedtls/mbedtls/library/bignum.c:2860
    8680:	a9046bf9 	stp	x25, x26, [sp, #64]
/home/nk/optee/optee_os/lib/libmbedtls/mbedtls/library/bignum.c:2866
    8684:	910363f9 	add	x25, sp, #0xd8
/home/nk/optee/optee_os/lib/libmbedtls/mbedtls/library/bignum.c:2860
    8688:	a90573fb 	stp	x27, x28, [sp, #80]
/home/nk/optee/optee_os/lib/libmbedtls/mbedtls/library/bignum.c:2864
    868c:	97fff2f6 	bl	5264 <mbedtls_mpi_init_mempool>
    8690:	910243fc 	add	x28, sp, #0x90
    8694:	aa1c03e0 	mov	x0, x28
    8698:	97fff2f3 	bl	5264 <mbedtls_mpi_init_mempool>
/home/nk/optee/optee_os/lib/libmbedtls/mbedtls/library/bignum.c:2865
    869c:	aa1803e0 	mov	x0, x24
    86a0:	97fff2f1 	bl	5264 <mbedtls_mpi_init_mempool>
    86a4:	aa1403e0 	mov	x0, x20
    86a8:	97fff2ef 	bl	5264 <mbedtls_mpi_init_mempool>
/home/nk/optee/optee_os/lib/libmbedtls/mbedtls/library/bignum.c:2866
    86ac:	aa1903e0 	mov	x0, x25
    86b0:	97fff2ed 	bl	5264 <mbedtls_mpi_init_mempool>
    86b4:	aa1503e0 	mov	x0, x21
    86b8:	97fff2eb 	bl	5264 <mbedtls_mpi_init_mempool>
/home/nk/optee/optee_os/lib/libmbedtls/mbedtls/library/bignum.c:2867
    86bc:	910423e0 	add	x0, sp, #0x108
    86c0:	f90037e0 	str	x0, [sp, #104]
    86c4:	97fff2e8 	bl	5264 <mbedtls_mpi_init_mempool>
/home/nk/optee/optee_os/lib/libmbedtls/mbedtls/library/bignum.c:2869
    86c8:	90000022 	adrp	x2, c000 <HEXDIGITS+0x62>
    86cc:	52800201 	mov	w1, #0x10                  	// #16
    86d0:	91089c42 	add	x2, x2, #0x227
    86d4:	aa1603e0 	mov	x0, x22
    86d8:	97fff7cc 	bl	6608 <mbedtls_mpi_read_string>
    86dc:	2a0003fb 	mov	w27, w0
    86e0:	350004c0 	cbnz	w0, 8778 <mbedtls_mpi_self_test+0x124>
/home/nk/optee/optee_os/lib/libmbedtls/mbedtls/library/bignum.c:2875
    86e4:	90000022 	adrp	x2, c000 <HEXDIGITS+0x62>
    86e8:	52800201 	mov	w1, #0x10                  	// #16
    86ec:	910aa042 	add	x2, x2, #0x2a8
    86f0:	aa1c03e0 	mov	x0, x28
    86f4:	97fff7c5 	bl	6608 <mbedtls_mpi_read_string>
    86f8:	2a0003fb 	mov	w27, w0
    86fc:	350003e0 	cbnz	w0, 8778 <mbedtls_mpi_self_test+0x124>
/home/nk/optee/optee_os/lib/libmbedtls/mbedtls/library/bignum.c:2881
    8700:	90000022 	adrp	x2, c000 <HEXDIGITS+0x62>
    8704:	52800201 	mov	w1, #0x10                  	// #16
    8708:	910ca442 	add	x2, x2, #0x329
    870c:	aa1803e0 	mov	x0, x24
    8710:	97fff7be 	bl	6608 <mbedtls_mpi_read_string>
    8714:	2a0003fb 	mov	w27, w0
    8718:	35000300 	cbnz	w0, 8778 <mbedtls_mpi_self_test+0x124>
/home/nk/optee/optee_os/lib/libmbedtls/mbedtls/library/bignum.c:2886
    871c:	aa1803e2 	mov	x2, x24
    8720:	aa1603e1 	mov	x1, x22
    8724:	aa1403e0 	mov	x0, x20
    8728:	97fff757 	bl	6484 <mbedtls_mpi_mul_mpi>
    872c:	2a0003fb 	mov	w27, w0
    8730:	35000240 	cbnz	w0, 8778 <mbedtls_mpi_self_test+0x124>
/home/nk/optee/optee_os/lib/libmbedtls/mbedtls/library/bignum.c:2888
    8734:	90000022 	adrp	x2, c000 <HEXDIGITS+0x62>
    8738:	52800201 	mov	w1, #0x10                  	// #16
    873c:	910e2842 	add	x2, x2, #0x38a
    8740:	aa1503e0 	mov	x0, x21
    8744:	97fff7b1 	bl	6608 <mbedtls_mpi_read_string>
    8748:	2a0003fb 	mov	w27, w0
    874c:	35000160 	cbnz	w0, 8778 <mbedtls_mpi_self_test+0x124>
/home/nk/optee/optee_os/lib/libmbedtls/mbedtls/library/bignum.c:2897
    8750:	34000093 	cbz	w19, 8760 <mbedtls_mpi_self_test+0x10c>
/home/nk/optee/optee_os/lib/libmbedtls/mbedtls/library/bignum.c:2898
    8754:	90000020 	adrp	x0, c000 <HEXDIGITS+0x62>
    8758:	9111a400 	add	x0, x0, #0x469
    875c:	97ffe347 	bl	1478 <printf>
/home/nk/optee/optee_os/lib/libmbedtls/mbedtls/library/bignum.c:2900
    8760:	aa1503e1 	mov	x1, x21
    8764:	aa1403e0 	mov	x0, x20
    8768:	97fff5e6 	bl	5f00 <mbedtls_mpi_cmp_mpi>
    876c:	340004e0 	cbz	w0, 8808 <mbedtls_mpi_self_test+0x1b4>
/home/nk/optee/optee_os/lib/libmbedtls/mbedtls/library/bignum.c:2902
    8770:	35000453 	cbnz	w19, 87f8 <mbedtls_mpi_self_test+0x1a4>
/home/nk/optee/optee_os/lib/libmbedtls/mbedtls/library/bignum.c:2997
    8774:	5280003b 	mov	w27, #0x1                   	// #1
/home/nk/optee/optee_os/lib/libmbedtls/mbedtls/library/bignum.c:3007
    8778:	7100037f 	cmp	w27, #0x0
    877c:	7a401a64 	ccmp	w19, #0x0, #0x4, ne  // ne = any
    8780:	540000a0 	b.eq	8794 <mbedtls_mpi_self_test+0x140>  // b.none
/home/nk/optee/optee_os/lib/libmbedtls/mbedtls/library/bignum.c:3008
    8784:	90000020 	adrp	x0, c000 <HEXDIGITS+0x62>
    8788:	2a1b03e1 	mov	w1, w27
    878c:	91193400 	add	x0, x0, #0x64d
    8790:	97ffe33a 	bl	1478 <printf>
/home/nk/optee/optee_os/lib/libmbedtls/mbedtls/library/bignum.c:3010
    8794:	aa1603e0 	mov	x0, x22
    8798:	97fff2bd 	bl	528c <mbedtls_mpi_free>
    879c:	aa1c03e0 	mov	x0, x28
    87a0:	97fff2bb 	bl	528c <mbedtls_mpi_free>
    87a4:	aa1803e0 	mov	x0, x24
    87a8:	97fff2b9 	bl	528c <mbedtls_mpi_free>
    87ac:	aa1403e0 	mov	x0, x20
    87b0:	97fff2b7 	bl	528c <mbedtls_mpi_free>
/home/nk/optee/optee_os/lib/libmbedtls/mbedtls/library/bignum.c:3011
    87b4:	aa1903e0 	mov	x0, x25
    87b8:	97fff2b5 	bl	528c <mbedtls_mpi_free>
    87bc:	aa1503e0 	mov	x0, x21
    87c0:	97fff2b3 	bl	528c <mbedtls_mpi_free>
    87c4:	f94037e0 	ldr	x0, [sp, #104]
    87c8:	97fff2b1 	bl	528c <mbedtls_mpi_free>
/home/nk/optee/optee_os/lib/libmbedtls/mbedtls/library/bignum.c:3013
    87cc:	34000073 	cbz	w19, 87d8 <mbedtls_mpi_self_test+0x184>
/home/nk/optee/optee_os/lib/libmbedtls/mbedtls/library/bignum.c:3014
    87d0:	52800140 	mov	w0, #0xa                   	// #10
    87d4:	97ffe36b 	bl	1580 <putchar>
/home/nk/optee/optee_os/lib/libmbedtls/mbedtls/library/bignum.c:3017
    87d8:	2a1b03e0 	mov	w0, w27
    87dc:	a94153f3 	ldp	x19, x20, [sp, #16]
    87e0:	a9425bf5 	ldp	x21, x22, [sp, #32]
    87e4:	a94363f7 	ldp	x23, x24, [sp, #48]
    87e8:	a9446bf9 	ldp	x25, x26, [sp, #64]
    87ec:	a94573fb 	ldp	x27, x28, [sp, #80]
    87f0:	a8d27bfd 	ldp	x29, x30, [sp], #288
    87f4:	d65f03c0 	ret
/home/nk/optee/optee_os/lib/libmbedtls/mbedtls/library/bignum.c:2903
    87f8:	90000020 	adrp	x0, c000 <HEXDIGITS+0x62>
    87fc:	91120c00 	add	x0, x0, #0x483
    8800:	97ffe350 	bl	1540 <puts>
    8804:	17ffffdc 	b	8774 <mbedtls_mpi_self_test+0x120>
/home/nk/optee/optee_os/lib/libmbedtls/mbedtls/library/bignum.c:2909
    8808:	34000093 	cbz	w19, 8818 <mbedtls_mpi_self_test+0x1c4>
/home/nk/optee/optee_os/lib/libmbedtls/mbedtls/library/bignum.c:2910
    880c:	90000020 	adrp	x0, c000 <HEXDIGITS+0x62>
    8810:	91122800 	add	x0, x0, #0x48a
    8814:	97ffe34b 	bl	1540 <puts>
/home/nk/optee/optee_os/lib/libmbedtls/mbedtls/library/bignum.c:2912
    8818:	aa1803e3 	mov	x3, x24
    881c:	aa1603e2 	mov	x2, x22
    8820:	aa1903e1 	mov	x1, x25
    8824:	aa1403e0 	mov	x0, x20
    8828:	97fff7f1 	bl	67ec <mbedtls_mpi_div_mpi>
    882c:	2a0003fb 	mov	w27, w0
    8830:	35fffa40 	cbnz	w0, 8778 <mbedtls_mpi_self_test+0x124>
/home/nk/optee/optee_os/lib/libmbedtls/mbedtls/library/bignum.c:2914
    8834:	90000022 	adrp	x2, c000 <HEXDIGITS+0x62>
    8838:	52800201 	mov	w1, #0x10                  	// #16
    883c:	91124442 	add	x2, x2, #0x491
    8840:	aa1503e0 	mov	x0, x21
    8844:	97fff771 	bl	6608 <mbedtls_mpi_read_string>
    8848:	2a0003fb 	mov	w27, w0
    884c:	35fff960 	cbnz	w0, 8778 <mbedtls_mpi_self_test+0x124>
/home/nk/optee/optee_os/lib/libmbedtls/mbedtls/library/bignum.c:2917
    8850:	f94037e0 	ldr	x0, [sp, #104]
    8854:	90000022 	adrp	x2, c000 <HEXDIGITS+0x62>
    8858:	52800201 	mov	w1, #0x10                  	// #16
    885c:	9112d442 	add	x2, x2, #0x4b5
    8860:	97fff76a 	bl	6608 <mbedtls_mpi_read_string>
    8864:	2a0003fb 	mov	w27, w0
    8868:	35fff880 	cbnz	w0, 8778 <mbedtls_mpi_self_test+0x124>
/home/nk/optee/optee_os/lib/libmbedtls/mbedtls/library/bignum.c:2922
    886c:	34000093 	cbz	w19, 887c <mbedtls_mpi_self_test+0x228>
/home/nk/optee/optee_os/lib/libmbedtls/mbedtls/library/bignum.c:2923
    8870:	90000020 	adrp	x0, c000 <HEXDIGITS+0x62>
    8874:	91145000 	add	x0, x0, #0x514
    8878:	97ffe300 	bl	1478 <printf>
/home/nk/optee/optee_os/lib/libmbedtls/mbedtls/library/bignum.c:2925
    887c:	aa1503e1 	mov	x1, x21
    8880:	aa1403e0 	mov	x0, x20
    8884:	97fff59f 	bl	5f00 <mbedtls_mpi_cmp_mpi>
    8888:	35fff740 	cbnz	w0, 8770 <mbedtls_mpi_self_test+0x11c>
/home/nk/optee/optee_os/lib/libmbedtls/mbedtls/library/bignum.c:2926 (discriminator 1)
    888c:	f94037e1 	ldr	x1, [sp, #104]
    8890:	aa1903e0 	mov	x0, x25
    8894:	97fff59b 	bl	5f00 <mbedtls_mpi_cmp_mpi>
/home/nk/optee/optee_os/lib/libmbedtls/mbedtls/library/bignum.c:2925 (discriminator 1)
    8898:	35fff6c0 	cbnz	w0, 8770 <mbedtls_mpi_self_test+0x11c>
/home/nk/optee/optee_os/lib/libmbedtls/mbedtls/library/bignum.c:2935
    889c:	34000093 	cbz	w19, 88ac <mbedtls_mpi_self_test+0x258>
/home/nk/optee/optee_os/lib/libmbedtls/mbedtls/library/bignum.c:2936
    88a0:	90000020 	adrp	x0, c000 <HEXDIGITS+0x62>
    88a4:	91122800 	add	x0, x0, #0x48a
    88a8:	97ffe326 	bl	1540 <puts>
/home/nk/optee/optee_os/lib/libmbedtls/mbedtls/library/bignum.c:2938
    88ac:	d2800004 	mov	x4, #0x0                   	// #0
    88b0:	aa1803e3 	mov	x3, x24
    88b4:	aa1c03e2 	mov	x2, x28
    88b8:	aa1603e1 	mov	x1, x22
    88bc:	aa1403e0 	mov	x0, x20
    88c0:	97fffa8a 	bl	72e8 <mbedtls_mpi_exp_mod>
    88c4:	2a0003fb 	mov	w27, w0
    88c8:	35fff580 	cbnz	w0, 8778 <mbedtls_mpi_self_test+0x124>
/home/nk/optee/optee_os/lib/libmbedtls/mbedtls/library/bignum.c:2940
    88cc:	90000022 	adrp	x2, c000 <HEXDIGITS+0x62>
    88d0:	52800201 	mov	w1, #0x10                  	// #16
    88d4:	9114b842 	add	x2, x2, #0x52e
    88d8:	aa1503e0 	mov	x0, x21
    88dc:	97fff74b 	bl	6608 <mbedtls_mpi_read_string>
    88e0:	2a0003fb 	mov	w27, w0
    88e4:	35fff4a0 	cbnz	w0, 8778 <mbedtls_mpi_self_test+0x124>
/home/nk/optee/optee_os/lib/libmbedtls/mbedtls/library/bignum.c:2945
    88e8:	34000093 	cbz	w19, 88f8 <mbedtls_mpi_self_test+0x2a4>
/home/nk/optee/optee_os/lib/libmbedtls/mbedtls/library/bignum.c:2946
    88ec:	90000020 	adrp	x0, c000 <HEXDIGITS+0x62>
    88f0:	91163400 	add	x0, x0, #0x58d
    88f4:	97ffe2e1 	bl	1478 <printf>
/home/nk/optee/optee_os/lib/libmbedtls/mbedtls/library/bignum.c:2948
    88f8:	aa1503e1 	mov	x1, x21
    88fc:	aa1403e0 	mov	x0, x20
    8900:	97fff580 	bl	5f00 <mbedtls_mpi_cmp_mpi>
    8904:	35fff360 	cbnz	w0, 8770 <mbedtls_mpi_self_test+0x11c>
/home/nk/optee/optee_os/lib/libmbedtls/mbedtls/library/bignum.c:2957
    8908:	34000093 	cbz	w19, 8918 <mbedtls_mpi_self_test+0x2c4>
/home/nk/optee/optee_os/lib/libmbedtls/mbedtls/library/bignum.c:2958
    890c:	90000020 	adrp	x0, c000 <HEXDIGITS+0x62>
    8910:	91122800 	add	x0, x0, #0x48a
    8914:	97ffe30b 	bl	1540 <puts>
/home/nk/optee/optee_os/lib/libmbedtls/mbedtls/library/bignum.c:2960
    8918:	aa1803e2 	mov	x2, x24
    891c:	aa1603e1 	mov	x1, x22
    8920:	aa1403e0 	mov	x0, x20
    8924:	97fffd4d 	bl	7e58 <mbedtls_mpi_inv_mod>
    8928:	2a0003fb 	mov	w27, w0
    892c:	35fff260 	cbnz	w0, 8778 <mbedtls_mpi_self_test+0x124>
/home/nk/optee/optee_os/lib/libmbedtls/mbedtls/library/bignum.c:2962
    8930:	90000022 	adrp	x2, c000 <HEXDIGITS+0x62>
    8934:	52800201 	mov	w1, #0x10                  	// #16
    8938:	91169c42 	add	x2, x2, #0x5a7
    893c:	aa1503e0 	mov	x0, x21
    8940:	97fff732 	bl	6608 <mbedtls_mpi_read_string>
    8944:	2a0003fb 	mov	w27, w0
    8948:	35fff180 	cbnz	w0, 8778 <mbedtls_mpi_self_test+0x124>
/home/nk/optee/optee_os/lib/libmbedtls/mbedtls/library/bignum.c:2967
    894c:	34000093 	cbz	w19, 895c <mbedtls_mpi_self_test+0x308>
/home/nk/optee/optee_os/lib/libmbedtls/mbedtls/library/bignum.c:2968
    8950:	90000020 	adrp	x0, c000 <HEXDIGITS+0x62>
    8954:	91182000 	add	x0, x0, #0x608
    8958:	97ffe2c8 	bl	1478 <printf>
/home/nk/optee/optee_os/lib/libmbedtls/mbedtls/library/bignum.c:2970
    895c:	aa1503e1 	mov	x1, x21
    8960:	aa1403e0 	mov	x0, x20
    8964:	97fff567 	bl	5f00 <mbedtls_mpi_cmp_mpi>
    8968:	2a0003fa 	mov	w26, w0
    896c:	35fff020 	cbnz	w0, 8770 <mbedtls_mpi_self_test+0x11c>
/home/nk/optee/optee_os/lib/libmbedtls/mbedtls/library/bignum.c:2979
    8970:	340000f3 	cbz	w19, 898c <mbedtls_mpi_self_test+0x338>
/home/nk/optee/optee_os/lib/libmbedtls/mbedtls/library/bignum.c:2980
    8974:	90000020 	adrp	x0, c000 <HEXDIGITS+0x62>
    8978:	91122800 	add	x0, x0, #0x48a
    897c:	97ffe2f1 	bl	1540 <puts>
/home/nk/optee/optee_os/lib/libmbedtls/mbedtls/library/bignum.c:2983
    8980:	90000020 	adrp	x0, c000 <HEXDIGITS+0x62>
    8984:	91188800 	add	x0, x0, #0x622
    8988:	97ffe2bc 	bl	1478 <printf>
    898c:	f0000017 	adrp	x23, b000 <__text_end+0x15f0>
    8990:	912972f7 	add	x23, x23, #0xa5c
    8994:	910a82f7 	add	x23, x23, #0x2a0
/home/nk/optee/optee_os/lib/libmbedtls/mbedtls/library/bignum.c:2987
    8998:	b94002e1 	ldr	w1, [x23]
    899c:	aa1403e0 	mov	x0, x20
    89a0:	97fff38a 	bl	57c8 <mbedtls_mpi_lset>
    89a4:	2a0003fb 	mov	w27, w0
    89a8:	35ffee80 	cbnz	w0, 8778 <mbedtls_mpi_self_test+0x124>
/home/nk/optee/optee_os/lib/libmbedtls/mbedtls/library/bignum.c:2988
    89ac:	b94006e1 	ldr	w1, [x23, #4]
    89b0:	aa1903e0 	mov	x0, x25
    89b4:	97fff385 	bl	57c8 <mbedtls_mpi_lset>
    89b8:	2a0003fb 	mov	w27, w0
    89bc:	35ffede0 	cbnz	w0, 8778 <mbedtls_mpi_self_test+0x124>
/home/nk/optee/optee_os/lib/libmbedtls/mbedtls/library/bignum.c:2990
    89c0:	aa1903e2 	mov	x2, x25
    89c4:	aa1403e1 	mov	x1, x20
    89c8:	aa1603e0 	mov	x0, x22
    89cc:	97fffbea 	bl	7974 <mbedtls_mpi_gcd>
    89d0:	2a0003fb 	mov	w27, w0
    89d4:	35ffed20 	cbnz	w0, 8778 <mbedtls_mpi_self_test+0x124>
/home/nk/optee/optee_os/lib/libmbedtls/mbedtls/library/bignum.c:2992
    89d8:	b9400ae1 	ldr	w1, [x23, #8]
    89dc:	aa1603e0 	mov	x0, x22
    89e0:	97fff5b4 	bl	60b0 <mbedtls_mpi_cmp_int>
    89e4:	2a0003fb 	mov	w27, w0
    89e8:	340000e0 	cbz	w0, 8a04 <mbedtls_mpi_self_test+0x3b0>
/home/nk/optee/optee_os/lib/libmbedtls/mbedtls/library/bignum.c:2994
    89ec:	34ffec53 	cbz	w19, 8774 <mbedtls_mpi_self_test+0x120>
/home/nk/optee/optee_os/lib/libmbedtls/mbedtls/library/bignum.c:2995
    89f0:	2a1a03e1 	mov	w1, w26
    89f4:	90000020 	adrp	x0, c000 <HEXDIGITS+0x62>
    89f8:	9118fc00 	add	x0, x0, #0x63f
    89fc:	97ffe29f 	bl	1478 <printf>
    8a00:	17ffff5d 	b	8774 <mbedtls_mpi_self_test+0x120>
/home/nk/optee/optee_os/lib/libmbedtls/mbedtls/library/bignum.c:2985 (discriminator 2)
    8a04:	1100075a 	add	w26, w26, #0x1
    8a08:	910032f7 	add	x23, x23, #0xc
    8a0c:	71000f5f 	cmp	w26, #0x3
    8a10:	54fffc41 	b.ne	8998 <mbedtls_mpi_self_test+0x344>  // b.any
/home/nk/optee/optee_os/lib/libmbedtls/mbedtls/library/bignum.c:3002
    8a14:	340000b3 	cbz	w19, 8a28 <mbedtls_mpi_self_test+0x3d4>
/home/nk/optee/optee_os/lib/libmbedtls/mbedtls/library/bignum.c:3003
    8a18:	90000020 	adrp	x0, c000 <HEXDIGITS+0x62>
    8a1c:	91122800 	add	x0, x0, #0x48a
    8a20:	97ffe2c8 	bl	1540 <puts>
    8a24:	17ffff55 	b	8778 <mbedtls_mpi_self_test+0x124>
/home/nk/optee/optee_os/lib/libmbedtls/mbedtls/library/bignum.c:3005
    8a28:	2a1303fb 	mov	w27, w19
    8a2c:	17ffff53 	b	8778 <mbedtls_mpi_self_test+0x124>

0000000000008a30 <mbedtls_platform_zeroize>:
mbedtls_platform_zeroize():
/home/nk/optee/optee_os/lib/libmbedtls/mbedtls/library/platform_util.c:77
    8a30:	b40000c1 	cbz	x1, 8a48 <mbedtls_platform_zeroize+0x18>
/home/nk/optee/optee_os/lib/libmbedtls/mbedtls/library/platform_util.c:78
    8a34:	b0000022 	adrp	x2, d000 <_DYNAMIC>
    8a38:	f941dc43 	ldr	x3, [x2, #952]
    8a3c:	aa0103e2 	mov	x2, x1
    8a40:	52800001 	mov	w1, #0x0                   	// #0
    8a44:	d61f0060 	br	x3
/home/nk/optee/optee_os/lib/libmbedtls/mbedtls/library/platform_util.c:79
    8a48:	d65f03c0 	ret

0000000000008a4c <raw_malloc_return_hook.constprop.21>:
raw_malloc_return_hook():
/home/nk/optee/optee_os/lib/libutils/isoc/bget_malloc.c:210
    8a4c:	b0000022 	adrp	x2, d000 <_DYNAMIC>
    8a50:	910f0044 	add	x4, x2, #0x3c0
    8a54:	f9401083 	ldr	x3, [x4, #32]
    8a58:	b9406c85 	ldr	w5, [x4, #108]
    8a5c:	eb05007f 	cmp	x3, x5
    8a60:	5400004d 	b.le	8a68 <raw_malloc_return_hook.constprop.21+0x1c>
/home/nk/optee/optee_os/lib/libutils/isoc/bget_malloc.c:211
    8a64:	b9006c83 	str	w3, [x4, #108]
/home/nk/optee/optee_os/lib/libutils/isoc/bget_malloc.c:213
    8a68:	b5000120 	cbnz	x0, 8a8c <raw_malloc_return_hook.constprop.21+0x40>
/home/nk/optee/optee_os/lib/libutils/isoc/bget_malloc.c:214
    8a6c:	910f0040 	add	x0, x2, #0x3c0
    8a70:	b9407402 	ldr	w2, [x0, #116]
    8a74:	11000442 	add	w2, w2, #0x1
    8a78:	b9007402 	str	w2, [x0, #116]
/home/nk/optee/optee_os/lib/libutils/isoc/bget_malloc.c:216
    8a7c:	b9407802 	ldr	w2, [x0, #120]
    8a80:	eb01005f 	cmp	x2, x1
    8a84:	54000042 	b.cs	8a8c <raw_malloc_return_hook.constprop.21+0x40>  // b.hs, b.nlast
/home/nk/optee/optee_os/lib/libutils/isoc/bget_malloc.c:218
    8a88:	290f0c01 	stp	w1, w3, [x0, #120]
/home/nk/optee/optee_os/lib/libutils/isoc/bget_malloc.c:222
    8a8c:	d65f03c0 	ret

0000000000008a90 <bget>:
bget():
/home/nk/optee/optee_os/lib/libutils/isoc/bget.c:583
    8a90:	a9bf7bfd 	stp	x29, x30, [sp, #-16]!
/home/nk/optee/optee_os/lib/libutils/isoc/bget.c:594
    8a94:	f100001f 	cmp	x0, #0x0
/home/nk/optee/optee_os/lib/libutils/isoc/bget.c:583
    8a98:	910003fd 	mov	x29, sp
/home/nk/optee/optee_os/lib/libutils/isoc/bget.c:594
    8a9c:	5400014c 	b.gt	8ac4 <bget+0x34>
/home/nk/optee/optee_os/lib/libutils/isoc/bget.c:594 (discriminator 1)
    8aa0:	90000023 	adrp	x3, c000 <HEXDIGITS+0x62>
    8aa4:	90000021 	adrp	x1, c000 <HEXDIGITS+0x62>
    8aa8:	90000020 	adrp	x0, c000 <HEXDIGITS+0x62>
    8aac:	9119cc63 	add	x3, x3, #0x673
    8ab0:	911b2c21 	add	x1, x1, #0x6cb
    8ab4:	9124e000 	add	x0, x0, #0x938
    8ab8:	52804a42 	mov	w2, #0x252                 	// #594
/home/nk/optee/optee_os/lib/libutils/isoc/bget.c:658 (discriminator 1)
    8abc:	940003bf 	bl	99b8 <_assert_log>
    8ac0:	940003cf 	bl	99fc <_assert_break>
/home/nk/optee/optee_os/lib/libutils/isoc/bget.c:601
    8ac4:	f100401f 	cmp	x0, #0x10
    8ac8:	d2800202 	mov	x2, #0x10                  	// #16
    8acc:	9a82a000 	csel	x0, x0, x2, ge  // ge = tcont
    8ad0:	b1003c02 	adds	x2, x0, #0xf
    8ad4:	54000144 	b.mi	8afc <bget+0x6c>  // b.first
    8ad8:	eb00005f 	cmp	x2, x0
    8adc:	54000103 	b.cc	8afc <bget+0x6c>  // b.lo, b.ul, b.last
/home/nk/optee/optee_os/lib/libutils/isoc/bget.c:604
    8ae0:	927cec40 	and	x0, x2, #0xfffffffffffffff0
/home/nk/optee/optee_os/lib/libutils/isoc/bget.c:609
    8ae4:	91004003 	add	x3, x0, #0x10
    8ae8:	eb00007f 	cmp	x3, x0
    8aec:	5400008b 	b.lt	8afc <bget+0x6c>  // b.tstop
/home/nk/optee/optee_os/lib/libutils/isoc/bget.c:619
    8af0:	f9400820 	ldr	x0, [x1, #16]
/home/nk/optee/optee_os/lib/libutils/isoc/bget.c:641
    8af4:	eb00003f 	cmp	x1, x0
    8af8:	54000061 	b.ne	8b04 <bget+0x74>  // b.any
/home/nk/optee/optee_os/lib/libutils/isoc/bget.c:602
    8afc:	d2800000 	mov	x0, #0x0                   	// #0
    8b00:	1400001e 	b	8b78 <bget+0xe8>
/home/nk/optee/optee_os/lib/libutils/isoc/bget.c:642
    8b04:	f9400402 	ldr	x2, [x0, #8]
    8b08:	eb02007f 	cmp	x3, x2
    8b0c:	540009ec 	b.gt	8c48 <bget+0x1b8>
/home/nk/optee/optee_os/lib/libutils/isoc/bget.c:653
    8b10:	cb030044 	sub	x4, x2, x3
    8b14:	f100809f 	cmp	x4, #0x20
    8b18:	5400034d 	b.le	8b80 <bget+0xf0>
/home/nk/optee/optee_os/lib/libutils/isoc/bget.c:656
    8b1c:	8b040005 	add	x5, x0, x4
/home/nk/optee/optee_os/lib/libutils/isoc/bget.c:658
    8b20:	f86368a6 	ldr	x6, [x5, x3]
    8b24:	eb06005f 	cmp	x2, x6
    8b28:	54000120 	b.eq	8b4c <bget+0xbc>  // b.none
/home/nk/optee/optee_os/lib/libutils/isoc/bget.c:658 (discriminator 1)
    8b2c:	90000023 	adrp	x3, c000 <HEXDIGITS+0x62>
    8b30:	90000021 	adrp	x1, c000 <HEXDIGITS+0x62>
    8b34:	90000020 	adrp	x0, c000 <HEXDIGITS+0x62>
    8b38:	9119cc63 	add	x3, x3, #0x673
    8b3c:	52805242 	mov	w2, #0x292                 	// #658
    8b40:	911b2c21 	add	x1, x1, #0x6cb
    8b44:	911b9000 	add	x0, x0, #0x6e4
    8b48:	17ffffdd 	b	8abc <bget+0x2c>
/home/nk/optee/optee_os/lib/libutils/isoc/bget.c:660
    8b4c:	f9000404 	str	x4, [x0, #8]
/home/nk/optee/optee_os/lib/libutils/isoc/bget.c:662
    8b50:	f8246804 	str	x4, [x0, x4]
/home/nk/optee/optee_os/lib/libutils/isoc/bget.c:664
    8b54:	cb0303e0 	neg	x0, x3
    8b58:	f90004a0 	str	x0, [x5, #8]
/home/nk/optee/optee_os/lib/libutils/isoc/bget.c:669
    8b5c:	f9401020 	ldr	x0, [x1, #32]
/home/nk/optee/optee_os/lib/libutils/isoc/bget.c:666
    8b60:	f82368bf 	str	xzr, [x5, x3]
/home/nk/optee/optee_os/lib/libutils/isoc/bget.c:669
    8b64:	8b030003 	add	x3, x0, x3
/home/nk/optee/optee_os/lib/libutils/isoc/bget.c:670
    8b68:	f9401420 	ldr	x0, [x1, #40]
    8b6c:	91000400 	add	x0, x0, #0x1
    8b70:	a9020023 	stp	x3, x0, [x1, #32]
/home/nk/optee/optee_os/lib/libutils/isoc/bget.c:672
    8b74:	910040a0 	add	x0, x5, #0x10
/home/nk/optee/optee_os/lib/libutils/isoc/bget.c:770
    8b78:	a8c17bfd 	ldp	x29, x30, [sp], #16
    8b7c:	d65f03c0 	ret
/home/nk/optee/optee_os/lib/libutils/isoc/bget.c:679
    8b80:	f8626803 	ldr	x3, [x0, x2]
/home/nk/optee/optee_os/lib/libutils/isoc/bget.c:678
    8b84:	8b020005 	add	x5, x0, x2
/home/nk/optee/optee_os/lib/libutils/isoc/bget.c:679
    8b88:	eb03005f 	cmp	x2, x3
    8b8c:	54000120 	b.eq	8bb0 <bget+0x120>  // b.none
/home/nk/optee/optee_os/lib/libutils/isoc/bget.c:679 (discriminator 1)
    8b90:	90000023 	adrp	x3, c000 <HEXDIGITS+0x62>
    8b94:	90000021 	adrp	x1, c000 <HEXDIGITS+0x62>
    8b98:	90000020 	adrp	x0, c000 <HEXDIGITS+0x62>
    8b9c:	9119cc63 	add	x3, x3, #0x673
    8ba0:	528054e2 	mov	w2, #0x2a7                 	// #679
    8ba4:	911b2c21 	add	x1, x1, #0x6cb
    8ba8:	911c0000 	add	x0, x0, #0x700
    8bac:	17ffffc4 	b	8abc <bget+0x2c>
/home/nk/optee/optee_os/lib/libutils/isoc/bget.c:684
    8bb0:	f9400c03 	ldr	x3, [x0, #24]
    8bb4:	f9400864 	ldr	x4, [x3, #16]
    8bb8:	eb00009f 	cmp	x4, x0
    8bbc:	54000120 	b.eq	8be0 <bget+0x150>  // b.none
/home/nk/optee/optee_os/lib/libutils/isoc/bget.c:684 (discriminator 1)
    8bc0:	90000023 	adrp	x3, c000 <HEXDIGITS+0x62>
    8bc4:	90000021 	adrp	x1, c000 <HEXDIGITS+0x62>
    8bc8:	90000020 	adrp	x0, c000 <HEXDIGITS+0x62>
    8bcc:	9119cc63 	add	x3, x3, #0x673
    8bd0:	52805582 	mov	w2, #0x2ac                 	// #684
    8bd4:	911b2c21 	add	x1, x1, #0x6cb
    8bd8:	911c7000 	add	x0, x0, #0x71c
    8bdc:	17ffffb8 	b	8abc <bget+0x2c>
/home/nk/optee/optee_os/lib/libutils/isoc/bget.c:685
    8be0:	f9400804 	ldr	x4, [x0, #16]
    8be4:	f9400c86 	ldr	x6, [x4, #24]
    8be8:	eb0000df 	cmp	x6, x0
    8bec:	54000120 	b.eq	8c10 <bget+0x180>  // b.none
/home/nk/optee/optee_os/lib/libutils/isoc/bget.c:685 (discriminator 1)
    8bf0:	90000023 	adrp	x3, c000 <HEXDIGITS+0x62>
    8bf4:	90000021 	adrp	x1, c000 <HEXDIGITS+0x62>
    8bf8:	90000020 	adrp	x0, c000 <HEXDIGITS+0x62>
    8bfc:	9119cc63 	add	x3, x3, #0x673
    8c00:	528055a2 	mov	w2, #0x2ad                 	// #685
    8c04:	911b2c21 	add	x1, x1, #0x6cb
    8c08:	911cdc00 	add	x0, x0, #0x737
    8c0c:	17ffffac 	b	8abc <bget+0x2c>
/home/nk/optee/optee_os/lib/libutils/isoc/bget.c:686
    8c10:	f9000864 	str	x4, [x3, #16]
/home/nk/optee/optee_os/lib/libutils/isoc/bget.c:701
    8c14:	91004000 	add	x0, x0, #0x10
/home/nk/optee/optee_os/lib/libutils/isoc/bget.c:687
    8c18:	f9400004 	ldr	x4, [x0]
    8c1c:	f9000c83 	str	x3, [x4, #24]
/home/nk/optee/optee_os/lib/libutils/isoc/bget.c:690
    8c20:	f9401023 	ldr	x3, [x1, #32]
    8c24:	8b020063 	add	x3, x3, x2
    8c28:	f9001023 	str	x3, [x1, #32]
/home/nk/optee/optee_os/lib/libutils/isoc/bget.c:691
    8c2c:	f9401423 	ldr	x3, [x1, #40]
/home/nk/optee/optee_os/lib/libutils/isoc/bget.c:694
    8c30:	cb0203e2 	neg	x2, x2
/home/nk/optee/optee_os/lib/libutils/isoc/bget.c:691
    8c34:	91000463 	add	x3, x3, #0x1
    8c38:	f9001423 	str	x3, [x1, #40]
/home/nk/optee/optee_os/lib/libutils/isoc/bget.c:694
    8c3c:	f81f8002 	stur	x2, [x0, #-8]
/home/nk/optee/optee_os/lib/libutils/isoc/bget.c:698
    8c40:	f90000bf 	str	xzr, [x5]
/home/nk/optee/optee_os/lib/libutils/isoc/bget.c:703
    8c44:	17ffffcd 	b	8b78 <bget+0xe8>
/home/nk/optee/optee_os/lib/libutils/isoc/bget.c:706
    8c48:	f9400800 	ldr	x0, [x0, #16]
    8c4c:	17ffffaa 	b	8af4 <bget+0x64>

0000000000008c50 <bgetz>:
bgetz():
/home/nk/optee/optee_os/lib/libutils/isoc/bget.c:779
    8c50:	a9be7bfd 	stp	x29, x30, [sp, #-32]!
    8c54:	910003fd 	mov	x29, sp
    8c58:	f9000bf3 	str	x19, [sp, #16]
    8c5c:	aa0003f3 	mov	x19, x0
/home/nk/optee/optee_os/lib/libutils/isoc/bget.c:780
    8c60:	97ffff8c 	bl	8a90 <bget>
    8c64:	aa0003e3 	mov	x3, x0
/home/nk/optee/optee_os/lib/libutils/isoc/bget.c:782
    8c68:	b4000320 	cbz	x0, 8ccc <bgetz+0x7c>
/home/nk/optee/optee_os/lib/libutils/isoc/bget.c:787
    8c6c:	f85f8000 	ldur	x0, [x0, #-8]
/home/nk/optee/optee_os/lib/libutils/isoc/bget.c:788
    8c70:	b50001e0 	cbnz	x0, 8cac <bgetz+0x5c>
/home/nk/optee/optee_os/lib/libutils/isoc/bget.c:792
    8c74:	f85e8062 	ldur	x2, [x3, #-24]
    8c78:	d1006042 	sub	x2, x2, #0x18
/home/nk/optee/optee_os/lib/libutils/isoc/bget.c:796
    8c7c:	eb13005f 	cmp	x2, x19
    8c80:	540001ca 	b.ge	8cb8 <bgetz+0x68>  // b.tcont
    8c84:	90000023 	adrp	x3, c000 <HEXDIGITS+0x62>
    8c88:	9119cc63 	add	x3, x3, #0x673
    8c8c:	91001463 	add	x3, x3, #0x5
    8c90:	90000021 	adrp	x1, c000 <HEXDIGITS+0x62>
    8c94:	90000020 	adrp	x0, c000 <HEXDIGITS+0x62>
    8c98:	911b2c21 	add	x1, x1, #0x6cb
    8c9c:	911d4800 	add	x0, x0, #0x752
    8ca0:	52806382 	mov	w2, #0x31c                 	// #796
    8ca4:	94000345 	bl	99b8 <_assert_log>
    8ca8:	94000355 	bl	99fc <_assert_break>
/home/nk/optee/optee_os/lib/libutils/isoc/bget.c:794
    8cac:	928001e2 	mov	x2, #0xfffffffffffffff0    	// #-16
    8cb0:	cb000042 	sub	x2, x2, x0
    8cb4:	17fffff2 	b	8c7c <bgetz+0x2c>
memset_unchecked():
/home/nk/optee/optee_os/lib/libutils/isoc/bget_malloc.c:130
    8cb8:	aa0303e0 	mov	x0, x3
    8cbc:	93407c42 	sxtw	x2, w2
    8cc0:	52800001 	mov	w1, #0x0                   	// #0
    8cc4:	940002b0 	bl	9784 <memset>
    8cc8:	aa0003e3 	mov	x3, x0
bgetz():
/home/nk/optee/optee_os/lib/libutils/isoc/bget.c:800
    8ccc:	aa0303e0 	mov	x0, x3
    8cd0:	f9400bf3 	ldr	x19, [sp, #16]
    8cd4:	a8c27bfd 	ldp	x29, x30, [sp], #32
    8cd8:	d65f03c0 	ret

0000000000008cdc <brel>:
brel():
/home/nk/optee/optee_os/lib/libutils/isoc/bget.c:852
    8cdc:	a9be7bfd 	stp	x29, x30, [sp, #-32]!
    8ce0:	910003fd 	mov	x29, sp
/home/nk/optee/optee_os/lib/libutils/isoc/bget.c:858
    8ce4:	f9401823 	ldr	x3, [x1, #48]
/home/nk/optee/optee_os/lib/libutils/isoc/bget.c:852
    8ce8:	a90153f3 	stp	x19, x20, [sp, #16]
/home/nk/optee/optee_os/lib/libutils/isoc/bget.c:858
    8cec:	91000463 	add	x3, x3, #0x1
    8cf0:	f9001823 	str	x3, [x1, #48]
/home/nk/optee/optee_os/lib/libutils/isoc/bget.c:860
    8cf4:	b5000160 	cbnz	x0, 8d20 <brel+0x44>
/home/nk/optee/optee_os/lib/libutils/isoc/bget.c:860 (discriminator 1)
    8cf8:	90000023 	adrp	x3, c000 <HEXDIGITS+0x62>
    8cfc:	9119cc63 	add	x3, x3, #0x673
    8d00:	90000021 	adrp	x1, c000 <HEXDIGITS+0x62>
    8d04:	90000020 	adrp	x0, c000 <HEXDIGITS+0x62>
    8d08:	91002c63 	add	x3, x3, #0xb
    8d0c:	911b2c21 	add	x1, x1, #0x6cb
    8d10:	911d8000 	add	x0, x0, #0x760
    8d14:	52806b82 	mov	w2, #0x35c                 	// #860
/home/nk/optee/optee_os/lib/libutils/isoc/bget.c:895 (discriminator 1)
    8d18:	94000328 	bl	99b8 <_assert_log>
    8d1c:	94000338 	bl	99fc <_assert_break>
/home/nk/optee/optee_os/lib/libutils/isoc/bget.c:892
    8d20:	f85f8003 	ldur	x3, [x0, #-8]
/home/nk/optee/optee_os/lib/libutils/isoc/bget.c:895
    8d24:	b7f80143 	tbnz	x3, #63, 8d4c <brel+0x70>
/home/nk/optee/optee_os/lib/libutils/isoc/bget.c:895 (discriminator 1)
    8d28:	90000023 	adrp	x3, c000 <HEXDIGITS+0x62>
    8d2c:	9119cc63 	add	x3, x3, #0x673
    8d30:	90000021 	adrp	x1, c000 <HEXDIGITS+0x62>
    8d34:	90000020 	adrp	x0, c000 <HEXDIGITS+0x62>
    8d38:	91002c63 	add	x3, x3, #0xb
    8d3c:	52806fe2 	mov	w2, #0x37f                 	// #895
    8d40:	911b2c21 	add	x1, x1, #0x6cb
    8d44:	911db000 	add	x0, x0, #0x76c
    8d48:	17fffff4 	b	8d18 <brel+0x3c>
    8d4c:	d1004013 	sub	x19, x0, #0x10
/home/nk/optee/optee_os/lib/libutils/isoc/bget.c:901
    8d50:	cb030264 	sub	x4, x19, x3
    8d54:	f9400084 	ldr	x4, [x4]
    8d58:	b4000144 	cbz	x4, 8d80 <brel+0xa4>
/home/nk/optee/optee_os/lib/libutils/isoc/bget.c:901 (discriminator 1)
    8d5c:	90000023 	adrp	x3, c000 <HEXDIGITS+0x62>
    8d60:	9119cc63 	add	x3, x3, #0x673
    8d64:	90000021 	adrp	x1, c000 <HEXDIGITS+0x62>
    8d68:	90000020 	adrp	x0, c000 <HEXDIGITS+0x62>
    8d6c:	91002c63 	add	x3, x3, #0xb
    8d70:	528070a2 	mov	w2, #0x385                 	// #901
    8d74:	911b2c21 	add	x1, x1, #0x6cb
    8d78:	911df000 	add	x0, x0, #0x77c
    8d7c:	17ffffe7 	b	8d18 <brel+0x3c>
/home/nk/optee/optee_os/lib/libutils/isoc/bget.c:904
    8d80:	f9401024 	ldr	x4, [x1, #32]
    8d84:	8b040064 	add	x4, x3, x4
    8d88:	f9001024 	str	x4, [x1, #32]
/home/nk/optee/optee_os/lib/libutils/isoc/bget.c:905
    8d8c:	b6f80144 	tbz	x4, #63, 8db4 <brel+0xd8>
/home/nk/optee/optee_os/lib/libutils/isoc/bget.c:905 (discriminator 1)
    8d90:	90000023 	adrp	x3, c000 <HEXDIGITS+0x62>
    8d94:	9119cc63 	add	x3, x3, #0x673
    8d98:	90000021 	adrp	x1, c000 <HEXDIGITS+0x62>
    8d9c:	90000020 	adrp	x0, c000 <HEXDIGITS+0x62>
    8da0:	91002c63 	add	x3, x3, #0xb
    8da4:	52807122 	mov	w2, #0x389                 	// #905
    8da8:	911b2c21 	add	x1, x1, #0x6cb
    8dac:	911ea000 	add	x0, x0, #0x7a8
    8db0:	17ffffda 	b	8d18 <brel+0x3c>
/home/nk/optee/optee_os/lib/libutils/isoc/bget.c:910
    8db4:	f85f0004 	ldur	x4, [x0, #-16]
    8db8:	b4000424 	cbz	x4, 8e3c <brel+0x160>
/home/nk/optee/optee_os/lib/libutils/isoc/bget.c:921
    8dbc:	cb040273 	sub	x19, x19, x4
    8dc0:	f9400660 	ldr	x0, [x19, #8]
    8dc4:	eb00009f 	cmp	x4, x0
    8dc8:	54000140 	b.eq	8df0 <brel+0x114>  // b.none
/home/nk/optee/optee_os/lib/libutils/isoc/bget.c:921 (discriminator 1)
    8dcc:	90000023 	adrp	x3, c000 <HEXDIGITS+0x62>
    8dd0:	9119cc63 	add	x3, x3, #0x673
    8dd4:	90000021 	adrp	x1, c000 <HEXDIGITS+0x62>
    8dd8:	90000020 	adrp	x0, c000 <HEXDIGITS+0x62>
    8ddc:	91002c63 	add	x3, x3, #0xb
    8de0:	52807322 	mov	w2, #0x399                 	// #921
    8de4:	911b2c21 	add	x1, x1, #0x6cb
    8de8:	911efc00 	add	x0, x0, #0x7bf
    8dec:	17ffffcb 	b	8d18 <brel+0x3c>
/home/nk/optee/optee_os/lib/libutils/isoc/bget.c:923
    8df0:	cb030083 	sub	x3, x4, x3
    8df4:	f9000663 	str	x3, [x19, #8]
/home/nk/optee/optee_os/lib/libutils/isoc/bget.c:943
    8df8:	f9400660 	ldr	x0, [x19, #8]
    8dfc:	8b000274 	add	x20, x19, x0
/home/nk/optee/optee_os/lib/libutils/isoc/bget.c:944
    8e00:	f9400681 	ldr	x1, [x20, #8]
    8e04:	f100003f 	cmp	x1, #0x0
    8e08:	540009ad 	b.le	8f3c <brel+0x260>
/home/nk/optee/optee_os/lib/libutils/isoc/bget.c:949
    8e0c:	f8616a83 	ldr	x3, [x20, x1]
    8e10:	eb03003f 	cmp	x1, x3
    8e14:	54000560 	b.eq	8ec0 <brel+0x1e4>  // b.none
/home/nk/optee/optee_os/lib/libutils/isoc/bget.c:949 (discriminator 1)
    8e18:	90000023 	adrp	x3, c000 <HEXDIGITS+0x62>
    8e1c:	9119cc63 	add	x3, x3, #0x673
    8e20:	90000021 	adrp	x1, c000 <HEXDIGITS+0x62>
    8e24:	90000020 	adrp	x0, c000 <HEXDIGITS+0x62>
    8e28:	91002c63 	add	x3, x3, #0xb
    8e2c:	528076a2 	mov	w2, #0x3b5                 	// #949
    8e30:	911b2c21 	add	x1, x1, #0x6cb
    8e34:	9121b800 	add	x0, x0, #0x86e
    8e38:	17ffffb8 	b	8d18 <brel+0x3c>
/home/nk/optee/optee_os/lib/libutils/isoc/bget.c:929
    8e3c:	f9400c25 	ldr	x5, [x1, #24]
    8e40:	f94008a4 	ldr	x4, [x5, #16]
    8e44:	eb01009f 	cmp	x4, x1
    8e48:	54000140 	b.eq	8e70 <brel+0x194>  // b.none
/home/nk/optee/optee_os/lib/libutils/isoc/bget.c:929 (discriminator 1)
    8e4c:	90000023 	adrp	x3, c000 <HEXDIGITS+0x62>
    8e50:	9119cc63 	add	x3, x3, #0x673
    8e54:	90000021 	adrp	x1, c000 <HEXDIGITS+0x62>
    8e58:	90000020 	adrp	x0, c000 <HEXDIGITS+0x62>
    8e5c:	91002c63 	add	x3, x3, #0xb
    8e60:	52807422 	mov	w2, #0x3a1                 	// #929
    8e64:	911b2c21 	add	x1, x1, #0x6cb
    8e68:	911fe000 	add	x0, x0, #0x7f8
    8e6c:	17ffffab 	b	8d18 <brel+0x3c>
/home/nk/optee/optee_os/lib/libutils/isoc/bget.c:930
    8e70:	f9400881 	ldr	x1, [x4, #16]
    8e74:	f9400c21 	ldr	x1, [x1, #24]
    8e78:	eb01009f 	cmp	x4, x1
    8e7c:	54000140 	b.eq	8ea4 <brel+0x1c8>  // b.none
/home/nk/optee/optee_os/lib/libutils/isoc/bget.c:930 (discriminator 1)
    8e80:	90000023 	adrp	x3, c000 <HEXDIGITS+0x62>
    8e84:	9119cc63 	add	x3, x3, #0x673
    8e88:	90000021 	adrp	x1, c000 <HEXDIGITS+0x62>
    8e8c:	90000020 	adrp	x0, c000 <HEXDIGITS+0x62>
    8e90:	91002c63 	add	x3, x3, #0xb
    8e94:	52807442 	mov	w2, #0x3a2                 	// #930
    8e98:	911b2c21 	add	x1, x1, #0x6cb
    8e9c:	9120cc00 	add	x0, x0, #0x833
    8ea0:	17ffff9e 	b	8d18 <brel+0x3c>
/home/nk/optee/optee_os/lib/libutils/isoc/bget.c:932
    8ea4:	a9011664 	stp	x4, x5, [x19, #16]
/home/nk/optee/optee_os/lib/libutils/isoc/bget.c:896
    8ea8:	cb0303e3 	neg	x3, x3
/home/nk/optee/optee_os/lib/libutils/isoc/bget.c:933
    8eac:	f9000c93 	str	x19, [x4, #24]
/home/nk/optee/optee_os/lib/libutils/isoc/bget.c:934
    8eb0:	f9400e61 	ldr	x1, [x19, #24]
    8eb4:	f9000833 	str	x19, [x1, #16]
/home/nk/optee/optee_os/lib/libutils/isoc/bget.c:935
    8eb8:	f81f8003 	stur	x3, [x0, #-8]
    8ebc:	17ffffcf 	b	8df8 <brel+0x11c>
/home/nk/optee/optee_os/lib/libutils/isoc/bget.c:950
    8ec0:	f9400e84 	ldr	x4, [x20, #24]
    8ec4:	f9400885 	ldr	x5, [x4, #16]
    8ec8:	eb1400bf 	cmp	x5, x20
    8ecc:	54000140 	b.eq	8ef4 <brel+0x218>  // b.none
/home/nk/optee/optee_os/lib/libutils/isoc/bget.c:950 (discriminator 1)
    8ed0:	90000023 	adrp	x3, c000 <HEXDIGITS+0x62>
    8ed4:	9119cc63 	add	x3, x3, #0x673
    8ed8:	90000021 	adrp	x1, c000 <HEXDIGITS+0x62>
    8edc:	90000020 	adrp	x0, c000 <HEXDIGITS+0x62>
    8ee0:	91002c63 	add	x3, x3, #0xb
    8ee4:	528076c2 	mov	w2, #0x3b6                 	// #950
    8ee8:	911b2c21 	add	x1, x1, #0x6cb
    8eec:	91229c00 	add	x0, x0, #0x8a7
    8ef0:	17ffff8a 	b	8d18 <brel+0x3c>
/home/nk/optee/optee_os/lib/libutils/isoc/bget.c:951
    8ef4:	f94008a3 	ldr	x3, [x5, #16]
    8ef8:	f9400c66 	ldr	x6, [x3, #24]
    8efc:	eb0500df 	cmp	x6, x5
    8f00:	54000140 	b.eq	8f28 <brel+0x24c>  // b.none
/home/nk/optee/optee_os/lib/libutils/isoc/bget.c:951 (discriminator 1)
    8f04:	90000023 	adrp	x3, c000 <HEXDIGITS+0x62>
    8f08:	9119cc63 	add	x3, x3, #0x673
    8f0c:	90000021 	adrp	x1, c000 <HEXDIGITS+0x62>
    8f10:	90000020 	adrp	x0, c000 <HEXDIGITS+0x62>
    8f14:	91002c63 	add	x3, x3, #0xb
    8f18:	528076e2 	mov	w2, #0x3b7                 	// #951
    8f1c:	911b2c21 	add	x1, x1, #0x6cb
    8f20:	91231000 	add	x0, x0, #0x8c4
    8f24:	17ffff7d 	b	8d18 <brel+0x3c>
/home/nk/optee/optee_os/lib/libutils/isoc/bget.c:952
    8f28:	f9000883 	str	x3, [x4, #16]
/home/nk/optee/optee_os/lib/libutils/isoc/bget.c:954
    8f2c:	8b010014 	add	x20, x0, x1
/home/nk/optee/optee_os/lib/libutils/isoc/bget.c:953
    8f30:	f9000c64 	str	x4, [x3, #24]
/home/nk/optee/optee_os/lib/libutils/isoc/bget.c:954
    8f34:	f9000674 	str	x20, [x19, #8]
/home/nk/optee/optee_os/lib/libutils/isoc/bget.c:963
    8f38:	8b140274 	add	x20, x19, x20
/home/nk/optee/optee_os/lib/libutils/isoc/bget.c:965
    8f3c:	340000e2 	cbz	w2, 8f58 <brel+0x27c>
/home/nk/optee/optee_os/lib/libutils/isoc/bget.c:967
    8f40:	f9400662 	ldr	x2, [x19, #8]
memset_unchecked():
/home/nk/optee/optee_os/lib/libutils/isoc/bget_malloc.c:130
    8f44:	52800aa1 	mov	w1, #0x55                  	// #85
    8f48:	91008260 	add	x0, x19, #0x20
brel():
/home/nk/optee/optee_os/lib/libutils/isoc/bget.c:967
    8f4c:	51008042 	sub	w2, w2, #0x20
memset_unchecked():
/home/nk/optee/optee_os/lib/libutils/isoc/bget_malloc.c:130
    8f50:	93407c42 	sxtw	x2, w2
    8f54:	9400020c 	bl	9784 <memset>
brel():
/home/nk/optee/optee_os/lib/libutils/isoc/bget.c:969
    8f58:	f9400680 	ldr	x0, [x20, #8]
    8f5c:	b7f80140 	tbnz	x0, #63, 8f84 <brel+0x2a8>
/home/nk/optee/optee_os/lib/libutils/isoc/bget.c:969 (discriminator 1)
    8f60:	90000023 	adrp	x3, c000 <HEXDIGITS+0x62>
    8f64:	9119cc63 	add	x3, x3, #0x673
    8f68:	90000021 	adrp	x1, c000 <HEXDIGITS+0x62>
    8f6c:	90000020 	adrp	x0, c000 <HEXDIGITS+0x62>
    8f70:	91002c63 	add	x3, x3, #0xb
    8f74:	52807922 	mov	w2, #0x3c9                 	// #969
    8f78:	911b2c21 	add	x1, x1, #0x6cb
    8f7c:	91238400 	add	x0, x0, #0x8e1
    8f80:	17ffff66 	b	8d18 <brel+0x3c>
/home/nk/optee/optee_os/lib/libutils/isoc/bget.c:974
    8f84:	f9400660 	ldr	x0, [x19, #8]
    8f88:	f9000280 	str	x0, [x20]
/home/nk/optee/optee_os/lib/libutils/isoc/bget.c:1002
    8f8c:	a94153f3 	ldp	x19, x20, [sp, #16]
    8f90:	a8c27bfd 	ldp	x29, x30, [sp], #32
    8f94:	d65f03c0 	ret

0000000000008f98 <bgetr>:
bgetr():
/home/nk/optee/optee_os/lib/libutils/isoc/bget.c:811
    8f98:	a9bc7bfd 	stp	x29, x30, [sp, #-64]!
    8f9c:	910003fd 	mov	x29, sp
    8fa0:	a90153f3 	stp	x19, x20, [sp, #16]
    8fa4:	aa0103f4 	mov	x20, x1
/home/nk/optee/optee_os/lib/libutils/isoc/bget.c:816
    8fa8:	aa0203e1 	mov	x1, x2
/home/nk/optee/optee_os/lib/libutils/isoc/bget.c:811
    8fac:	a9025bf5 	stp	x21, x22, [sp, #32]
    8fb0:	aa0003f5 	mov	x21, x0
/home/nk/optee/optee_os/lib/libutils/isoc/bget.c:816
    8fb4:	aa1403e0 	mov	x0, x20
/home/nk/optee/optee_os/lib/libutils/isoc/bget.c:811
    8fb8:	f9001bf7 	str	x23, [sp, #48]
    8fbc:	aa0203f7 	mov	x23, x2
/home/nk/optee/optee_os/lib/libutils/isoc/bget.c:816
    8fc0:	97fffeb4 	bl	8a90 <bget>
    8fc4:	aa0003f6 	mov	x22, x0
    8fc8:	b4000420 	cbz	x0, 904c <bgetr+0xb4>
/home/nk/optee/optee_os/lib/libutils/isoc/bget.c:819
    8fcc:	b4000415 	cbz	x21, 904c <bgetr+0xb4>
/home/nk/optee/optee_os/lib/libutils/isoc/bget.c:833
    8fd0:	f85f82a1 	ldur	x1, [x21, #-8]
    8fd4:	928001f3 	mov	x19, #0xfffffffffffffff0    	// #-16
    8fd8:	cb010273 	sub	x19, x19, x1
/home/nk/optee/optee_os/lib/libutils/isoc/bget.c:834
    8fdc:	f100027f 	cmp	x19, #0x0
    8fe0:	5400016c 	b.gt	900c <bgetr+0x74>
    8fe4:	90000023 	adrp	x3, c000 <HEXDIGITS+0x62>
    8fe8:	9119cc63 	add	x3, x3, #0x673
    8fec:	91004063 	add	x3, x3, #0x10
    8ff0:	90000021 	adrp	x1, c000 <HEXDIGITS+0x62>
    8ff4:	90000020 	adrp	x0, c000 <HEXDIGITS+0x62>
    8ff8:	911b2c21 	add	x1, x1, #0x6cb
    8ffc:	9123c800 	add	x0, x0, #0x8f2
    9000:	52806842 	mov	w2, #0x342                 	// #834
    9004:	9400026d 	bl	99b8 <_assert_log>
    9008:	9400027d 	bl	99fc <_assert_break>
/home/nk/optee/optee_os/lib/libutils/isoc/bget.c:835
    900c:	eb13029f 	cmp	x20, x19
    9010:	93407e81 	sxtw	x1, w20
    9014:	93407e62 	sxtw	x2, w19
    9018:	9a81a042 	csel	x2, x2, x1, ge  // ge = tcont
    901c:	aa1503e1 	mov	x1, x21
    9020:	97ffdc00 	bl	20 <memcpy>
/home/nk/optee/optee_os/lib/libutils/isoc/bget.c:839
    9024:	eb13029f 	cmp	x20, x19
    9028:	540000ad 	b.le	903c <bgetr+0xa4>
/home/nk/optee/optee_os/lib/libutils/isoc/bget.c:840
    902c:	cb130282 	sub	x2, x20, x19
    9030:	52800001 	mov	w1, #0x0                   	// #0
    9034:	8b1302c0 	add	x0, x22, x19
    9038:	940001d3 	bl	9784 <memset>
/home/nk/optee/optee_os/lib/libutils/isoc/bget.c:842
    903c:	52800002 	mov	w2, #0x0                   	// #0
    9040:	aa1703e1 	mov	x1, x23
    9044:	aa1503e0 	mov	x0, x21
    9048:	97ffff25 	bl	8cdc <brel>
/home/nk/optee/optee_os/lib/libutils/isoc/bget.c:844
    904c:	aa1603e0 	mov	x0, x22
    9050:	a94153f3 	ldp	x19, x20, [sp, #16]
    9054:	a9425bf5 	ldp	x21, x22, [sp, #32]
    9058:	f9401bf7 	ldr	x23, [sp, #48]
    905c:	a8c47bfd 	ldp	x29, x30, [sp], #64
    9060:	d65f03c0 	ret

0000000000009064 <bpool>:
bpool():
/home/nk/optee/optee_os/lib/libutils/isoc/bget.c:1028
    9064:	a9bf7bfd 	stp	x29, x30, [sp, #-16]!
/home/nk/optee/optee_os/lib/libutils/isoc/bget.c:1033
    9068:	927cec21 	and	x1, x1, #0xfffffffffffffff0
/home/nk/optee/optee_os/lib/libutils/isoc/bget.c:1052
    906c:	f1004021 	subs	x1, x1, #0x10
/home/nk/optee/optee_os/lib/libutils/isoc/bget.c:1028
    9070:	910003fd 	mov	x29, sp
/home/nk/optee/optee_os/lib/libutils/isoc/bget.c:1052
    9074:	54000165 	b.pl	90a0 <bpool+0x3c>  // b.nfrst
/home/nk/optee/optee_os/lib/libutils/isoc/bget.c:1052 (discriminator 1)
    9078:	f0000003 	adrp	x3, c000 <HEXDIGITS+0x62>
    907c:	9119cc63 	add	x3, x3, #0x673
    9080:	f0000001 	adrp	x1, c000 <HEXDIGITS+0x62>
    9084:	f0000000 	adrp	x0, c000 <HEXDIGITS+0x62>
    9088:	91005863 	add	x3, x3, #0x16
    908c:	911b2c21 	add	x1, x1, #0x6cb
    9090:	9123f000 	add	x0, x0, #0x8fc
    9094:	52808382 	mov	w2, #0x41c                 	// #1052
/home/nk/optee/optee_os/lib/libutils/isoc/bget.c:1062 (discriminator 1)
    9098:	94000248 	bl	99b8 <_assert_log>
    909c:	94000258 	bl	99fc <_assert_break>
/home/nk/optee/optee_os/lib/libutils/isoc/bget.c:1062
    90a0:	f9400c44 	ldr	x4, [x2, #24]
    90a4:	f9400883 	ldr	x3, [x4, #16]
/home/nk/optee/optee_os/lib/libutils/isoc/bget.c:1058
    90a8:	f900001f 	str	xzr, [x0]
/home/nk/optee/optee_os/lib/libutils/isoc/bget.c:1062
    90ac:	eb02007f 	cmp	x3, x2
    90b0:	54000140 	b.eq	90d8 <bpool+0x74>  // b.none
/home/nk/optee/optee_os/lib/libutils/isoc/bget.c:1062 (discriminator 1)
    90b4:	f0000003 	adrp	x3, c000 <HEXDIGITS+0x62>
    90b8:	9119cc63 	add	x3, x3, #0x673
    90bc:	f0000001 	adrp	x1, c000 <HEXDIGITS+0x62>
    90c0:	f0000000 	adrp	x0, c000 <HEXDIGITS+0x62>
    90c4:	91005863 	add	x3, x3, #0x16
    90c8:	528084c2 	mov	w2, #0x426                 	// #1062
    90cc:	911b2c21 	add	x1, x1, #0x6cb
    90d0:	911fe000 	add	x0, x0, #0x7f8
    90d4:	17fffff1 	b	9098 <bpool+0x34>
/home/nk/optee/optee_os/lib/libutils/isoc/bget.c:1063
    90d8:	f9400862 	ldr	x2, [x3, #16]
    90dc:	f9400c42 	ldr	x2, [x2, #24]
    90e0:	eb02007f 	cmp	x3, x2
    90e4:	54000140 	b.eq	910c <bpool+0xa8>  // b.none
    90e8:	f0000003 	adrp	x3, c000 <HEXDIGITS+0x62>
    90ec:	9119cc63 	add	x3, x3, #0x673
    90f0:	f0000001 	adrp	x1, c000 <HEXDIGITS+0x62>
    90f4:	f0000000 	adrp	x0, c000 <HEXDIGITS+0x62>
    90f8:	91005863 	add	x3, x3, #0x16
    90fc:	528084e2 	mov	w2, #0x427                 	// #1063
    9100:	911b2c21 	add	x1, x1, #0x6cb
    9104:	9120cc00 	add	x0, x0, #0x833
    9108:	17ffffe4 	b	9098 <bpool+0x34>
/home/nk/optee/optee_os/lib/libutils/isoc/bget.c:1065
    910c:	a9011003 	stp	x3, x4, [x0, #16]
/home/nk/optee/optee_os/lib/libutils/isoc/bget.c:1066
    9110:	f9000c60 	str	x0, [x3, #24]
/home/nk/optee/optee_os/lib/libutils/isoc/bget.c:1067
    9114:	f9400c02 	ldr	x2, [x0, #24]
    9118:	f9000840 	str	x0, [x2, #16]
/home/nk/optee/optee_os/lib/libutils/isoc/bget.c:1083
    911c:	8b010002 	add	x2, x0, x1
/home/nk/optee/optee_os/lib/libutils/isoc/bget.c:1078
    9120:	f9000401 	str	x1, [x0, #8]
/home/nk/optee/optee_os/lib/libutils/isoc/bget.c:1084
    9124:	f8216801 	str	x1, [x0, x1]
/home/nk/optee/optee_os/lib/libutils/isoc/bget.c:1087
    9128:	d2f00000 	mov	x0, #0x8000000000000000    	// #-9223372036854775808
    912c:	f9000440 	str	x0, [x2, #8]
/home/nk/optee/optee_os/lib/libutils/isoc/bget.c:1088
    9130:	a8c17bfd 	ldp	x29, x30, [sp], #16
    9134:	d65f03c0 	ret

0000000000009138 <bstats>:
bstats():
/home/nk/optee/optee_os/lib/libutils/isoc/bget.c:1101
    9138:	f94014a7 	ldr	x7, [x5, #40]
/home/nk/optee/optee_os/lib/libutils/isoc/bget.c:1099
    913c:	f94008a6 	ldr	x6, [x5, #16]
/home/nk/optee/optee_os/lib/libutils/isoc/bget.c:1101
    9140:	f9000067 	str	x7, [x3]
/home/nk/optee/optee_os/lib/libutils/isoc/bget.c:1102
    9144:	f94018a3 	ldr	x3, [x5, #48]
    9148:	f9000083 	str	x3, [x4]
/home/nk/optee/optee_os/lib/libutils/isoc/bget.c:1103
    914c:	f94010a3 	ldr	x3, [x5, #32]
    9150:	f9000003 	str	x3, [x0]
/home/nk/optee/optee_os/lib/libutils/isoc/bget.c:1104
    9154:	f900003f 	str	xzr, [x1]
/home/nk/optee/optee_os/lib/libutils/isoc/bget.c:1105
    9158:	92800000 	mov	x0, #0xffffffffffffffff    	// #-1
    915c:	f9000040 	str	x0, [x2]
/home/nk/optee/optee_os/lib/libutils/isoc/bget.c:1106
    9160:	eb0600bf 	cmp	x5, x6
    9164:	54000041 	b.ne	916c <bstats+0x34>  // b.any
    9168:	d65f03c0 	ret
/home/nk/optee/optee_os/lib/libutils/isoc/bget.c:1107
    916c:	f94004c3 	ldr	x3, [x6, #8]
    9170:	f100007f 	cmp	x3, #0x0
    9174:	540001ac 	b.gt	91a8 <bstats+0x70>
/home/nk/optee/optee_os/lib/libutils/isoc/bget.c:1107 (discriminator 1)
    9178:	f0000003 	adrp	x3, c000 <HEXDIGITS+0x62>
    917c:	9119cc63 	add	x3, x3, #0x673
    9180:	91007063 	add	x3, x3, #0x1c
    9184:	f0000001 	adrp	x1, c000 <HEXDIGITS+0x62>
    9188:	f0000000 	adrp	x0, c000 <HEXDIGITS+0x62>
    918c:	911b2c21 	add	x1, x1, #0x6cb
    9190:	9124c400 	add	x0, x0, #0x931
/home/nk/optee/optee_os/lib/libutils/isoc/bget.c:1098 (discriminator 1)
    9194:	a9bf7bfd 	stp	x29, x30, [sp, #-16]!
/home/nk/optee/optee_os/lib/libutils/isoc/bget.c:1107 (discriminator 1)
    9198:	52808a62 	mov	w2, #0x453                 	// #1107
/home/nk/optee/optee_os/lib/libutils/isoc/bget.c:1098 (discriminator 1)
    919c:	910003fd 	mov	x29, sp
/home/nk/optee/optee_os/lib/libutils/isoc/bget.c:1107 (discriminator 1)
    91a0:	94000206 	bl	99b8 <_assert_log>
    91a4:	94000216 	bl	99fc <_assert_break>
/home/nk/optee/optee_os/lib/libutils/isoc/bget.c:1108
    91a8:	f9400020 	ldr	x0, [x1]
    91ac:	8b030000 	add	x0, x0, x3
    91b0:	f9000020 	str	x0, [x1]
/home/nk/optee/optee_os/lib/libutils/isoc/bget.c:1109
    91b4:	f9400043 	ldr	x3, [x2]
    91b8:	f94004c0 	ldr	x0, [x6, #8]
    91bc:	eb03001f 	cmp	x0, x3
    91c0:	5400004d 	b.le	91c8 <bstats+0x90>
/home/nk/optee/optee_os/lib/libutils/isoc/bget.c:1110
    91c4:	f9000040 	str	x0, [x2]
/home/nk/optee/optee_os/lib/libutils/isoc/bget.c:1112
    91c8:	f94008c6 	ldr	x6, [x6, #16]
    91cc:	17ffffe5 	b	9160 <bstats+0x28>

00000000000091d0 <malloc_reset_stats>:
gen_malloc_reset_stats():
/home/nk/optee/optee_os/lib/libutils/isoc/bget_malloc.c:228
    91d0:	90000020 	adrp	x0, d000 <_DYNAMIC>
    91d4:	910f0000 	add	x0, x0, #0x3c0
    91d8:	b9006c1f 	str	wzr, [x0, #108]
/home/nk/optee/optee_os/lib/libutils/isoc/bget_malloc.c:229
    91dc:	b900741f 	str	wzr, [x0, #116]
/home/nk/optee/optee_os/lib/libutils/isoc/bget_malloc.c:230
    91e0:	f9003c1f 	str	xzr, [x0, #120]
malloc_reset_stats():
/home/nk/optee/optee_os/lib/libutils/isoc/bget_malloc.c:238
    91e4:	d65f03c0 	ret

00000000000091e8 <malloc_get_stats>:
malloc_get_stats():
/home/nk/optee/optee_os/lib/libutils/isoc/bget_malloc.c:251
    91e8:	a9be7bfd 	stp	x29, x30, [sp, #-32]!
memcpy_unchecked():
/home/nk/optee/optee_os/lib/libutils/isoc/bget_malloc.c:136
    91ec:	d2800702 	mov	x2, #0x38                  	// #56
malloc_get_stats():
/home/nk/optee/optee_os/lib/libutils/isoc/bget_malloc.c:251
    91f0:	910003fd 	mov	x29, sp
    91f4:	f9000bf3 	str	x19, [sp, #16]
memcpy_unchecked():
/home/nk/optee/optee_os/lib/libutils/isoc/bget_malloc.c:136
    91f8:	90000033 	adrp	x19, d000 <_DYNAMIC>
    91fc:	910f0273 	add	x19, x19, #0x3c0
    9200:	91012261 	add	x1, x19, #0x48
    9204:	97ffdb87 	bl	20 <memcpy>
    9208:	aa0003e3 	mov	x3, x0
gen_malloc_get_stats():
/home/nk/optee/optee_os/lib/libutils/isoc/bget_malloc.c:246
    920c:	f9401260 	ldr	x0, [x19, #32]
malloc_get_stats():
/home/nk/optee/optee_os/lib/libutils/isoc/bget_malloc.c:253
    9210:	f9400bf3 	ldr	x19, [sp, #16]
gen_malloc_get_stats():
/home/nk/optee/optee_os/lib/libutils/isoc/bget_malloc.c:246
    9214:	b9002060 	str	w0, [x3, #32]
malloc_get_stats():
/home/nk/optee/optee_os/lib/libutils/isoc/bget_malloc.c:253
    9218:	a8c27bfd 	ldp	x29, x30, [sp], #32
    921c:	d65f03c0 	ret

0000000000009220 <malloc>:
malloc():
/home/nk/optee/optee_os/lib/libutils/isoc/bget_malloc.c:668
    9220:	a9be7bfd 	stp	x29, x30, [sp, #-32]!
    9224:	910003fd 	mov	x29, sp
    9228:	f9000bf3 	str	x19, [sp, #16]
    922c:	aa0003f3 	mov	x19, x0
raw_malloc():
/home/nk/optee/optee_os/lib/libutils/isoc/bget_malloc.c:364
    9230:	b7f801c0 	tbnz	x0, #63, 9268 <malloc+0x48>
/home/nk/optee/optee_os/lib/libutils/isoc/bget_malloc.c:371
    9234:	f100001f 	cmp	x0, #0x0
/home/nk/optee/optee_os/lib/libutils/isoc/bget_malloc.c:373
    9238:	90000021 	adrp	x1, d000 <_DYNAMIC>
    923c:	9a9f1400 	csinc	x0, x0, xzr, ne  // ne = any
    9240:	910f0021 	add	x1, x1, #0x3c0
    9244:	97fffe13 	bl	8a90 <bget>
    9248:	aa0003e6 	mov	x6, x0
/home/nk/optee/optee_os/lib/libutils/isoc/bget_malloc.c:375
    924c:	aa1303e1 	mov	x1, x19
    9250:	aa0603e0 	mov	x0, x6
    9254:	97fffdfe 	bl	8a4c <raw_malloc_return_hook.constprop.21>
malloc():
/home/nk/optee/optee_os/lib/libutils/isoc/bget_malloc.c:675
    9258:	aa0603e0 	mov	x0, x6
    925c:	f9400bf3 	ldr	x19, [sp, #16]
    9260:	a8c27bfd 	ldp	x29, x30, [sp], #32
    9264:	d65f03c0 	ret
raw_malloc():
/home/nk/optee/optee_os/lib/libutils/isoc/bget_malloc.c:351
    9268:	d2800006 	mov	x6, #0x0                   	// #0
    926c:	17fffff8 	b	924c <malloc+0x2c>

0000000000009270 <calloc>:
calloc():
/home/nk/optee/optee_os/lib/libutils/isoc/bget_malloc.c:686
    9270:	a9be7bfd 	stp	x29, x30, [sp, #-32]!
    9274:	910003fd 	mov	x29, sp
    9278:	f9000bf3 	str	x19, [sp, #16]
raw_calloc():
/home/nk/optee/optee_os/lib/libutils/isoc/bget_malloc.c:397
    927c:	9b017c13 	mul	x19, x0, x1
    9280:	9bc17c00 	umulh	x0, x0, x1
    9284:	f100001f 	cmp	x0, #0x0
    9288:	d2800020 	mov	x0, #0x1                   	// #1
    928c:	9a9f07e1 	cset	x1, ne  // ne = any
    9290:	f100027f 	cmp	x19, #0x0
    9294:	9a80a021 	csel	x1, x1, x0, ge  // ge = tcont
    9298:	b50001a1 	cbnz	x1, 92cc <calloc+0x5c>
/home/nk/optee/optee_os/lib/libutils/isoc/bget_malloc.c:408
    929c:	90000021 	adrp	x1, d000 <_DYNAMIC>
    92a0:	9a801260 	csel	x0, x19, x0, ne  // ne = any
    92a4:	910f0021 	add	x1, x1, #0x3c0
    92a8:	97fffe6a 	bl	8c50 <bgetz>
    92ac:	aa0003e6 	mov	x6, x0
/home/nk/optee/optee_os/lib/libutils/isoc/bget_malloc.c:410
    92b0:	aa1303e1 	mov	x1, x19
    92b4:	aa0603e0 	mov	x0, x6
    92b8:	97fffde5 	bl	8a4c <raw_malloc_return_hook.constprop.21>
calloc():
/home/nk/optee/optee_os/lib/libutils/isoc/bget_malloc.c:693
    92bc:	aa0603e0 	mov	x0, x6
    92c0:	f9400bf3 	ldr	x19, [sp, #16]
    92c4:	a8c27bfd 	ldp	x29, x30, [sp], #32
    92c8:	d65f03c0 	ret
raw_calloc():
/home/nk/optee/optee_os/lib/libutils/isoc/bget_malloc.c:391
    92cc:	d2800006 	mov	x6, #0x0                   	// #0
    92d0:	17fffff8 	b	92b0 <calloc+0x40>

00000000000092d4 <realloc>:
realloc():
/home/nk/optee/optee_os/lib/libutils/isoc/bget_malloc.c:702
    92d4:	a9be7bfd 	stp	x29, x30, [sp, #-32]!
    92d8:	910003fd 	mov	x29, sp
    92dc:	f9000bf3 	str	x19, [sp, #16]
    92e0:	aa0103f3 	mov	x19, x1
raw_realloc():
/home/nk/optee/optee_os/lib/libutils/isoc/bget_malloc.c:422
    92e4:	b7f801c1 	tbnz	x1, #63, 931c <realloc+0x48>
/home/nk/optee/optee_os/lib/libutils/isoc/bget_malloc.c:431
    92e8:	f100003f 	cmp	x1, #0x0
/home/nk/optee/optee_os/lib/libutils/isoc/bget_malloc.c:433
    92ec:	90000022 	adrp	x2, d000 <_DYNAMIC>
    92f0:	9a9f1421 	csinc	x1, x1, xzr, ne  // ne = any
    92f4:	910f0042 	add	x2, x2, #0x3c0
    92f8:	97ffff28 	bl	8f98 <bgetr>
    92fc:	aa0003e6 	mov	x6, x0
/home/nk/optee/optee_os/lib/libutils/isoc/bget_malloc.c:435
    9300:	aa1303e1 	mov	x1, x19
    9304:	aa0603e0 	mov	x0, x6
    9308:	97fffdd1 	bl	8a4c <raw_malloc_return_hook.constprop.21>
realloc():
/home/nk/optee/optee_os/lib/libutils/isoc/bget_malloc.c:709
    930c:	aa0603e0 	mov	x0, x6
    9310:	f9400bf3 	ldr	x19, [sp, #16]
    9314:	a8c27bfd 	ldp	x29, x30, [sp], #32
    9318:	d65f03c0 	ret
raw_realloc():
/home/nk/optee/optee_os/lib/libutils/isoc/bget_malloc.c:418
    931c:	d2800006 	mov	x6, #0x0                   	// #0
    9320:	17fffff8 	b	9300 <realloc+0x2c>

0000000000009324 <free>:
raw_free():
/home/nk/optee/optee_os/lib/libutils/isoc/bget_malloc.c:384
    9324:	b40000a0 	cbz	x0, 9338 <free+0x14>
/home/nk/optee/optee_os/lib/libutils/isoc/bget_malloc.c:385
    9328:	52800002 	mov	w2, #0x0                   	// #0
    932c:	90000021 	adrp	x1, d000 <_DYNAMIC>
    9330:	910f0021 	add	x1, x1, #0x3c0
    9334:	17fffe6a 	b	8cdc <brel>
free():
/home/nk/optee/optee_os/lib/libutils/isoc/bget_malloc.c:722
    9338:	d65f03c0 	ret

000000000000933c <free_wipe>:
raw_free():
/home/nk/optee/optee_os/lib/libutils/isoc/bget_malloc.c:384
    933c:	b40000a0 	cbz	x0, 9350 <free_wipe+0x14>
/home/nk/optee/optee_os/lib/libutils/isoc/bget_malloc.c:385
    9340:	52800022 	mov	w2, #0x1                   	// #1
    9344:	90000021 	adrp	x1, d000 <_DYNAMIC>
    9348:	910f0021 	add	x1, x1, #0x3c0
    934c:	17fffe64 	b	8cdc <brel>
free_wipe():
/home/nk/optee/optee_os/lib/libutils/isoc/bget_malloc.c:727
    9350:	d65f03c0 	ret

0000000000009354 <malloc_add_pool>:
malloc_add_pool():
/home/nk/optee/optee_os/lib/libutils/isoc/bget_malloc.c:835
    9354:	a9bc7bfd 	stp	x29, x30, [sp, #-64]!
    9358:	910003fd 	mov	x29, sp
    935c:	a90153f3 	stp	x19, x20, [sp, #16]
gen_malloc_add_pool():
/home/nk/optee/optee_os/lib/libutils/isoc/bget_malloc.c:735
    9360:	8b010014 	add	x20, x0, x1
/home/nk/optee/optee_os/lib/libutils/isoc/bget_malloc.c:741
    9364:	91003c00 	add	x0, x0, #0xf
malloc_add_pool():
/home/nk/optee/optee_os/lib/libutils/isoc/bget_malloc.c:835
    9368:	a9025bf5 	stp	x21, x22, [sp, #32]
gen_malloc_add_pool():
/home/nk/optee/optee_os/lib/libutils/isoc/bget_malloc.c:742
    936c:	927cee94 	and	x20, x20, #0xfffffffffffffff0
/home/nk/optee/optee_os/lib/libutils/isoc/bget_malloc.c:741
    9370:	927cec16 	and	x22, x0, #0xfffffffffffffff0
malloc_add_pool():
/home/nk/optee/optee_os/lib/libutils/isoc/bget_malloc.c:835
    9374:	a90363f7 	stp	x23, x24, [sp, #48]
gen_malloc_add_pool():
/home/nk/optee/optee_os/lib/libutils/isoc/bget_malloc.c:743
    9378:	eb1402df 	cmp	x22, x20
    937c:	54000163 	b.cc	93a8 <malloc_add_pool+0x54>  // b.lo, b.ul, b.last
    9380:	f0000003 	adrp	x3, c000 <HEXDIGITS+0x62>
    9384:	9119cc63 	add	x3, x3, #0x673
    9388:	f0000001 	adrp	x1, c000 <HEXDIGITS+0x62>
    938c:	f0000000 	adrp	x0, c000 <HEXDIGITS+0x62>
    9390:	91008c63 	add	x3, x3, #0x23
    9394:	91250421 	add	x1, x1, #0x941
    9398:	91258400 	add	x0, x0, #0x961
    939c:	52805ce2 	mov	w2, #0x2e7                 	// #743
/home/nk/optee/optee_os/lib/libutils/isoc/bget_malloc.c:756
    93a0:	94000186 	bl	99b8 <_assert_log>
    93a4:	94000196 	bl	99fc <_assert_break>
/home/nk/optee/optee_os/lib/libutils/isoc/bget_malloc.c:745
    93a8:	cb160294 	sub	x20, x20, x22
    93ac:	f100be9f 	cmp	x20, #0x2f
    93b0:	54000569 	b.ls	945c <malloc_add_pool+0x108>  // b.plast
/home/nk/optee/optee_os/lib/libutils/isoc/bget_malloc.c:753
    93b4:	90000033 	adrp	x19, d000 <_DYNAMIC>
    93b8:	910f0278 	add	x24, x19, #0x3c0
    93bc:	aa1803e2 	mov	x2, x24
    93c0:	aa1403e1 	mov	x1, x20
    93c4:	aa1603e0 	mov	x0, x22
    93c8:	97ffff27 	bl	9064 <bpool>
/home/nk/optee/optee_os/lib/libutils/isoc/bget_malloc.c:754
    93cc:	f9402317 	ldr	x23, [x24, #64]
    93d0:	910006f7 	add	x23, x23, #0x1
/home/nk/optee/optee_os/lib/libutils/isoc/bget_malloc.c:755
    93d4:	d37ceef5 	lsl	x21, x23, #4
raw_realloc():
/home/nk/optee/optee_os/lib/libutils/isoc/bget_malloc.c:422
    93d8:	b7f80295 	tbnz	x21, #63, 9428 <malloc_add_pool+0xd4>
/home/nk/optee/optee_os/lib/libutils/isoc/bget_malloc.c:433
    93dc:	f9401f00 	ldr	x0, [x24, #56]
/home/nk/optee/optee_os/lib/libutils/isoc/bget_malloc.c:431
    93e0:	f10002bf 	cmp	x21, #0x0
/home/nk/optee/optee_os/lib/libutils/isoc/bget_malloc.c:433
    93e4:	aa1803e2 	mov	x2, x24
    93e8:	9a9f16a1 	csinc	x1, x21, xzr, ne  // ne = any
    93ec:	97fffeeb 	bl	8f98 <bgetr>
    93f0:	aa0003e6 	mov	x6, x0
/home/nk/optee/optee_os/lib/libutils/isoc/bget_malloc.c:435
    93f4:	aa1503e1 	mov	x1, x21
    93f8:	aa0603e0 	mov	x0, x6
    93fc:	97fffd94 	bl	8a4c <raw_malloc_return_hook.constprop.21>
gen_malloc_add_pool():
/home/nk/optee/optee_os/lib/libutils/isoc/bget_malloc.c:756
    9400:	b5000186 	cbnz	x6, 9430 <malloc_add_pool+0xdc>
    9404:	f0000003 	adrp	x3, c000 <HEXDIGITS+0x62>
    9408:	9119cc63 	add	x3, x3, #0x673
    940c:	f0000001 	adrp	x1, c000 <HEXDIGITS+0x62>
    9410:	f0000000 	adrp	x0, c000 <HEXDIGITS+0x62>
    9414:	91008c63 	add	x3, x3, #0x23
    9418:	52805e82 	mov	w2, #0x2f4                 	// #756
    941c:	91250421 	add	x1, x1, #0x941
    9420:	9125b400 	add	x0, x0, #0x96d
    9424:	17ffffdf 	b	93a0 <malloc_add_pool+0x4c>
raw_realloc():
/home/nk/optee/optee_os/lib/libutils/isoc/bget_malloc.c:418
    9428:	d2800006 	mov	x6, #0x0                   	// #0
    942c:	17fffff2 	b	93f4 <malloc_add_pool+0xa0>
gen_malloc_add_pool():
/home/nk/optee/optee_os/lib/libutils/isoc/bget_malloc.c:757
    9430:	910f0260 	add	x0, x19, #0x3c0
/home/nk/optee/optee_os/lib/libutils/isoc/bget_malloc.c:758
    9434:	f9402001 	ldr	x1, [x0, #64]
/home/nk/optee/optee_os/lib/libutils/isoc/bget_malloc.c:757
    9438:	f9001c06 	str	x6, [x0, #56]
/home/nk/optee/optee_os/lib/libutils/isoc/bget_malloc.c:758
    943c:	d37cec21 	lsl	x1, x1, #4
    9440:	8b0100c2 	add	x2, x6, x1
    9444:	f82168d6 	str	x22, [x6, x1]
/home/nk/optee/optee_os/lib/libutils/isoc/bget_malloc.c:761
    9448:	b9407001 	ldr	w1, [x0, #112]
/home/nk/optee/optee_os/lib/libutils/isoc/bget_malloc.c:759
    944c:	f9000454 	str	x20, [x2, #8]
/home/nk/optee/optee_os/lib/libutils/isoc/bget_malloc.c:761
    9450:	0b140034 	add	w20, w1, w20
/home/nk/optee/optee_os/lib/libutils/isoc/bget_malloc.c:763
    9454:	f9002017 	str	x23, [x0, #64]
/home/nk/optee/optee_os/lib/libutils/isoc/bget_malloc.c:761
    9458:	b9007014 	str	w20, [x0, #112]
malloc_add_pool():
/home/nk/optee/optee_os/lib/libutils/isoc/bget_malloc.c:837
    945c:	a94153f3 	ldp	x19, x20, [sp, #16]
    9460:	a9425bf5 	ldp	x21, x22, [sp, #32]
    9464:	a94363f7 	ldp	x23, x24, [sp, #48]
    9468:	a8c47bfd 	ldp	x29, x30, [sp], #64
    946c:	d65f03c0 	ret

0000000000009470 <malloc_buffer_is_within_alloced>:
gen_malloc_buffer_is_within_alloced():
/home/nk/optee/optee_os/lib/libutils/isoc/bget_malloc.c:773
    9470:	8b010001 	add	x1, x0, x1
/home/nk/optee/optee_os/lib/libutils/isoc/bget_malloc.c:780
    9474:	eb01001f 	cmp	x0, x1
    9478:	54000b88 	b.hi	95e8 <malloc_buffer_is_within_alloced+0x178>  // b.pmore
    947c:	aa0003e4 	mov	x4, x0
/home/nk/optee/optee_os/lib/libutils/isoc/bget_malloc.c:783
    9480:	90000020 	adrp	x0, d000 <_DYNAMIC>
    9484:	910f0000 	add	x0, x0, #0x3c0
bpool_foreach_iterator_init():
/home/nk/optee/optee_os/lib/libutils/isoc/bget_malloc.c:288
    9488:	d2800005 	mov	x5, #0x0                   	// #0
bpool_foreach_pool():
/home/nk/optee/optee_os/lib/libutils/isoc/bget_malloc.c:298
    948c:	d2f0000a 	mov	x10, #0x8000000000000000    	// #-9223372036854775808
    9490:	928001eb 	mov	x11, #0xfffffffffffffff0    	// #-16
bpool_foreach():
/home/nk/optee/optee_os/lib/libutils/isoc/bget_malloc.c:335
    9494:	a943a406 	ldp	x6, x9, [x0, #56]
bpool_foreach_iterator_init():
/home/nk/optee/optee_os/lib/libutils/isoc/bget_malloc.c:289
    9498:	f94000c3 	ldr	x3, [x6]
/home/nk/optee/optee_os/lib/libutils/isoc/bget_malloc.c:288
    949c:	aa0303e0 	mov	x0, x3
bpool_foreach_pool():
/home/nk/optee/optee_os/lib/libutils/isoc/bget_malloc.c:296
    94a0:	f9400462 	ldr	x2, [x3, #8]
/home/nk/optee/optee_os/lib/libutils/isoc/bget_malloc.c:298
    94a4:	eb0a005f 	cmp	x2, x10
    94a8:	540009a0 	b.eq	95dc <malloc_buffer_is_within_alloced+0x16c>  // b.none
malloc_buffer_is_within_alloced():
/home/nk/optee/optee_os/lib/libutils/isoc/bget_malloc.c:840
    94ac:	a9bf7bfd 	stp	x29, x30, [sp, #-16]!
    94b0:	910003fd 	mov	x29, sp
    94b4:	1400000d 	b	94e8 <malloc_buffer_is_within_alloced+0x78>
bpool_foreach_pool():
/home/nk/optee/optee_os/lib/libutils/isoc/bget_malloc.c:315
    94b8:	91004000 	add	x0, x0, #0x10
gen_malloc_buffer_is_within_alloced():
/home/nk/optee/optee_os/lib/libutils/isoc/bget_malloc.c:789
    94bc:	8b020002 	add	x2, x0, x2
/home/nk/optee/optee_os/lib/libutils/isoc/bget_malloc.c:791
    94c0:	eb02003f 	cmp	x1, x2
    94c4:	1a9f87e2 	cset	w2, ls  // ls = plast
    94c8:	eb00009f 	cmp	x4, x0
    94cc:	1a9f37e0 	cset	w0, cs  // cs = hs, nlast
    94d0:	6a000040 	ands	w0, w2, w0
    94d4:	540007a1 	b.ne	95c8 <malloc_buffer_is_within_alloced+0x158>  // b.any
bpool_foreach_pool():
/home/nk/optee/optee_os/lib/libutils/isoc/bget_malloc.c:296
    94d8:	f9400462 	ldr	x2, [x3, #8]
bpool_foreach_iterator_init():
/home/nk/optee/optee_os/lib/libutils/isoc/bget_malloc.c:288
    94dc:	aa0303e0 	mov	x0, x3
bpool_foreach_pool():
/home/nk/optee/optee_os/lib/libutils/isoc/bget_malloc.c:298
    94e0:	eb0a005f 	cmp	x2, x10
    94e4:	540006a0 	b.eq	95b8 <malloc_buffer_is_within_alloced+0x148>  // b.none
/home/nk/optee/optee_os/lib/libutils/isoc/bget_malloc.c:301
    94e8:	b6f80242 	tbz	x2, #63, 9530 <malloc_buffer_is_within_alloced+0xc0>
/home/nk/optee/optee_os/lib/libutils/isoc/bget_malloc.c:303
    94ec:	cb0203e8 	neg	x8, x2
/home/nk/optee/optee_os/lib/libutils/isoc/bget_malloc.c:305
    94f0:	52800007 	mov	w7, #0x0                   	// #0
/home/nk/optee/optee_os/lib/libutils/isoc/bget_malloc.c:318
    94f4:	8b080063 	add	x3, x3, x8
bpool_foreach():
/home/nk/optee/optee_os/lib/libutils/isoc/bget_malloc.c:330
    94f8:	35ffff07 	cbnz	w7, 94d8 <malloc_buffer_is_within_alloced+0x68>
bget_buf_size():
/home/nk/optee/optee_os/lib/libutils/isoc/bget_malloc.c:457
    94fc:	cb020162 	sub	x2, x11, x2
/home/nk/optee/optee_os/lib/libutils/isoc/bget_malloc.c:458
    9500:	f100005f 	cmp	x2, #0x0
    9504:	54fffdac 	b.gt	94b8 <malloc_buffer_is_within_alloced+0x48>
    9508:	f0000003 	adrp	x3, c000 <HEXDIGITS+0x62>
    950c:	9119cc63 	add	x3, x3, #0x673
    9510:	9100dc63 	add	x3, x3, #0x37
    9514:	f0000001 	adrp	x1, c000 <HEXDIGITS+0x62>
    9518:	f0000000 	adrp	x0, c000 <HEXDIGITS+0x62>
    951c:	91250421 	add	x1, x1, #0x941
    9520:	9123c800 	add	x0, x0, #0x8f2
    9524:	52803942 	mov	w2, #0x1ca                 	// #458
    9528:	94000124 	bl	99b8 <_assert_log>
    952c:	94000134 	bl	99fc <_assert_break>
bpool_foreach_pool():
/home/nk/optee/optee_os/lib/libutils/isoc/bget_malloc.c:311
    9530:	f9400c67 	ldr	x7, [x3, #24]
    9534:	f94008e7 	ldr	x7, [x7, #16]
    9538:	eb0300ff 	cmp	x7, x3
    953c:	54000160 	b.eq	9568 <malloc_buffer_is_within_alloced+0xf8>  // b.none
    9540:	f0000003 	adrp	x3, c000 <HEXDIGITS+0x62>
    9544:	9119cc63 	add	x3, x3, #0x673
    9548:	91011463 	add	x3, x3, #0x45
    954c:	f0000001 	adrp	x1, c000 <HEXDIGITS+0x62>
    9550:	f0000000 	adrp	x0, c000 <HEXDIGITS+0x62>
    9554:	91250421 	add	x1, x1, #0x941
    9558:	911c7000 	add	x0, x0, #0x71c
    955c:	528026e2 	mov	w2, #0x137                 	// #311
    9560:	94000116 	bl	99b8 <_assert_log>
    9564:	94000126 	bl	99fc <_assert_break>
/home/nk/optee/optee_os/lib/libutils/isoc/bget_malloc.c:312
    9568:	f9400867 	ldr	x7, [x3, #16]
    956c:	f9400ce7 	ldr	x7, [x7, #24]
    9570:	eb0300ff 	cmp	x7, x3
    9574:	54000160 	b.eq	95a0 <malloc_buffer_is_within_alloced+0x130>  // b.none
    9578:	f0000003 	adrp	x3, c000 <HEXDIGITS+0x62>
    957c:	9119cc63 	add	x3, x3, #0x673
    9580:	91011463 	add	x3, x3, #0x45
    9584:	f0000001 	adrp	x1, c000 <HEXDIGITS+0x62>
    9588:	f0000000 	adrp	x0, c000 <HEXDIGITS+0x62>
    958c:	91250421 	add	x1, x1, #0x941
    9590:	911cdc00 	add	x0, x0, #0x737
    9594:	52802702 	mov	w2, #0x138                 	// #312
    9598:	94000108 	bl	99b8 <_assert_log>
    959c:	94000118 	bl	99fc <_assert_break>
    95a0:	aa0203e8 	mov	x8, x2
/home/nk/optee/optee_os/lib/libutils/isoc/bget_malloc.c:308
    95a4:	52800027 	mov	w7, #0x1                   	// #1
    95a8:	17ffffd3 	b	94f4 <malloc_buffer_is_within_alloced+0x84>
bpool_foreach():
/home/nk/optee/optee_os/lib/libutils/isoc/bget_malloc.c:339
    95ac:	d37ceca0 	lsl	x0, x5, #4
    95b0:	f86068c3 	ldr	x3, [x6, x0]
    95b4:	17ffffc9 	b	94d8 <malloc_buffer_is_within_alloced+0x68>
/home/nk/optee/optee_os/lib/libutils/isoc/bget_malloc.c:335
    95b8:	910004a5 	add	x5, x5, #0x1
    95bc:	eb0900bf 	cmp	x5, x9
    95c0:	54ffff63 	b.cc	95ac <malloc_buffer_is_within_alloced+0x13c>  // b.lo, b.ul, b.last
gen_malloc_buffer_is_within_alloced():
/home/nk/optee/optee_os/lib/libutils/isoc/bget_malloc.c:774
    95c4:	52800000 	mov	w0, #0x0                   	// #0
malloc_buffer_is_within_alloced():
/home/nk/optee/optee_os/lib/libutils/isoc/bget_malloc.c:842
    95c8:	a8c17bfd 	ldp	x29, x30, [sp], #16
    95cc:	d65f03c0 	ret
bpool_foreach():
/home/nk/optee/optee_os/lib/libutils/isoc/bget_malloc.c:339
    95d0:	d37ceca0 	lsl	x0, x5, #4
    95d4:	f86068c3 	ldr	x3, [x6, x0]
    95d8:	17ffffb1 	b	949c <malloc_buffer_is_within_alloced+0x2c>
/home/nk/optee/optee_os/lib/libutils/isoc/bget_malloc.c:335
    95dc:	910004a5 	add	x5, x5, #0x1
    95e0:	eb0900bf 	cmp	x5, x9
    95e4:	54ffff63 	b.cc	95d0 <malloc_buffer_is_within_alloced+0x160>  // b.lo, b.ul, b.last
gen_malloc_buffer_is_within_alloced():
/home/nk/optee/optee_os/lib/libutils/isoc/bget_malloc.c:774
    95e8:	52800000 	mov	w0, #0x0                   	// #0
malloc_buffer_is_within_alloced():
/home/nk/optee/optee_os/lib/libutils/isoc/bget_malloc.c:842
    95ec:	d65f03c0 	ret

00000000000095f0 <malloc_buffer_overlaps_heap>:
gen_malloc_buffer_overlaps_heap():
/home/nk/optee/optee_os/lib/libutils/isoc/bget_malloc.c:814
    95f0:	90000022 	adrp	x2, d000 <_DYNAMIC>
    95f4:	910f0042 	add	x2, x2, #0x3c0
/home/nk/optee/optee_os/lib/libutils/isoc/bget_malloc.c:807
    95f8:	8b010001 	add	x1, x0, x1
/home/nk/optee/optee_os/lib/libutils/isoc/bget_malloc.c:814
    95fc:	d2800005 	mov	x5, #0x0                   	// #0
    9600:	a9439c43 	ldp	x3, x7, [x2, #56]
    9604:	eb0700bf 	cmp	x5, x7
    9608:	54000081 	b.ne	9618 <malloc_buffer_overlaps_heap+0x28>  // b.any
/home/nk/optee/optee_os/lib/libutils/isoc/bget_malloc.c:809
    960c:	52800002 	mov	w2, #0x0                   	// #0
malloc_buffer_overlaps_heap():
/home/nk/optee/optee_os/lib/libutils/isoc/bget_malloc.c:847
    9610:	2a0203e0 	mov	w0, w2
    9614:	d65f03c0 	ret
gen_malloc_buffer_overlaps_heap():
/home/nk/optee/optee_os/lib/libutils/isoc/bget_malloc.c:816
    9618:	a9401066 	ldp	x6, x4, [x3]
/home/nk/optee/optee_os/lib/libutils/isoc/bget_malloc.c:818
    961c:	eb01001f 	cmp	x0, x1
    9620:	1a9f97e2 	cset	w2, hi  // hi = pmore
/home/nk/optee/optee_os/lib/libutils/isoc/bget_malloc.c:816
    9624:	8b0400c4 	add	x4, x6, x4
/home/nk/optee/optee_os/lib/libutils/isoc/bget_malloc.c:818
    9628:	eb0400df 	cmp	x6, x4
    962c:	1a9f97e8 	cset	w8, hi  // hi = pmore
    9630:	2a080042 	orr	w2, w2, w8
    9634:	35fffee2 	cbnz	w2, 9610 <malloc_buffer_overlaps_heap+0x20>
/home/nk/optee/optee_os/lib/libutils/isoc/bget_malloc.c:823
    9638:	eb06003f 	cmp	x1, x6
    963c:	91004063 	add	x3, x3, #0x10
    9640:	1a9f97e2 	cset	w2, hi  // hi = pmore
    9644:	eb04001f 	cmp	x0, x4
    9648:	1a9f27e4 	cset	w4, cc  // cc = lo, ul, last
    964c:	2a040042 	orr	w2, w2, w4
    9650:	35fffe02 	cbnz	w2, 9610 <malloc_buffer_overlaps_heap+0x20>
/home/nk/optee/optee_os/lib/libutils/isoc/bget_malloc.c:814
    9654:	910004a5 	add	x5, x5, #0x1
    9658:	17ffffeb 	b	9604 <malloc_buffer_overlaps_heap+0x14>

000000000000965c <snprintf>:
snprintf():
/home/nk/optee/optee_os/lib/libutils/isoc/snprintf.c:10
    965c:	a9b07bfd 	stp	x29, x30, [sp, #-256]!
    9660:	910003fd 	mov	x29, sp
    9664:	a90d93e3 	stp	x3, x4, [sp, #216]
/home/nk/optee/optee_os/lib/libutils/isoc/snprintf.c:14
    9668:	910403e3 	add	x3, sp, #0x100
    966c:	a9030fe3 	stp	x3, x3, [sp, #48]
    9670:	910343e3 	add	x3, sp, #0xd0
    9674:	f90023e3 	str	x3, [sp, #64]
    9678:	128004e3 	mov	w3, #0xffffffd8            	// #-40
    967c:	b9004be3 	str	w3, [sp, #72]
    9680:	12800fe3 	mov	w3, #0xffffff80            	// #-128
    9684:	b9004fe3 	str	w3, [sp, #76]
/home/nk/optee/optee_os/lib/libutils/isoc/snprintf.c:15
    9688:	910043e3 	add	x3, sp, #0x10
/home/nk/optee/optee_os/lib/libutils/isoc/snprintf.c:10
    968c:	a90e9be5 	stp	x5, x6, [sp, #232]
/home/nk/optee/optee_os/lib/libutils/isoc/snprintf.c:15
    9690:	a94317e4 	ldp	x4, x5, [sp, #48]
    9694:	a90117e4 	stp	x4, x5, [sp, #16]
    9698:	a94417e4 	ldp	x4, x5, [sp, #64]
    969c:	a90217e4 	stp	x4, x5, [sp, #32]
/home/nk/optee/optee_os/lib/libutils/isoc/snprintf.c:10
    96a0:	3d8017e0 	str	q0, [sp, #80]
/home/nk/optee/optee_os/lib/libutils/isoc/snprintf.c:15
    96a4:	52800004 	mov	w4, #0x0                   	// #0
/home/nk/optee/optee_os/lib/libutils/isoc/snprintf.c:10
    96a8:	3d801be1 	str	q1, [sp, #96]
    96ac:	3d801fe2 	str	q2, [sp, #112]
    96b0:	3d8023e3 	str	q3, [sp, #128]
    96b4:	3d8027e4 	str	q4, [sp, #144]
    96b8:	3d802be5 	str	q5, [sp, #160]
    96bc:	3d802fe6 	str	q6, [sp, #176]
    96c0:	3d8033e7 	str	q7, [sp, #192]
    96c4:	f9007fe7 	str	x7, [sp, #248]
/home/nk/optee/optee_os/lib/libutils/isoc/snprintf.c:15
    96c8:	97ffdc0f 	bl	704 <__vsnprintf>
/home/nk/optee/optee_os/lib/libutils/isoc/snprintf.c:19
    96cc:	a8d07bfd 	ldp	x29, x30, [sp], #256
    96d0:	d65f03c0 	ret

00000000000096d4 <vsnprintf>:
vsnprintf():
/home/nk/optee/optee_os/lib/libutils/isoc/snprintf.c:22
    96d4:	a9bb7bfd 	stp	x29, x30, [sp, #-80]!
    96d8:	910003fd 	mov	x29, sp
    96dc:	a90153f3 	stp	x19, x20, [sp, #16]
    96e0:	aa0003f3 	mov	x19, x0
    96e4:	aa0103f4 	mov	x20, x1
/home/nk/optee/optee_os/lib/libutils/isoc/snprintf.c:23
    96e8:	9100c3e0 	add	x0, sp, #0x30
    96ec:	aa0303e1 	mov	x1, x3
/home/nk/optee/optee_os/lib/libutils/isoc/snprintf.c:22
    96f0:	f90013f5 	str	x21, [sp, #32]
    96f4:	aa0203f5 	mov	x21, x2
/home/nk/optee/optee_os/lib/libutils/isoc/snprintf.c:23
    96f8:	d2800402 	mov	x2, #0x20                  	// #32
    96fc:	97ffda49 	bl	20 <memcpy>
    9700:	aa1503e2 	mov	x2, x21
    9704:	aa0003e3 	mov	x3, x0
    9708:	aa1403e1 	mov	x1, x20
    970c:	52800004 	mov	w4, #0x0                   	// #0
    9710:	aa1303e0 	mov	x0, x19
    9714:	97ffdbfc 	bl	704 <__vsnprintf>
/home/nk/optee/optee_os/lib/libutils/isoc/snprintf.c:24
    9718:	a94153f3 	ldp	x19, x20, [sp, #16]
    971c:	f94013f5 	ldr	x21, [sp, #32]
    9720:	a8c57bfd 	ldp	x29, x30, [sp], #80
    9724:	d65f03c0 	ret

0000000000009728 <memmove>:
memmove():
/home/nk/optee/optee_os/lib/libutils/isoc/newlib/memmove.c:96
    9728:	eb01001f 	cmp	x0, x1
    972c:	54000289 	b.ls	977c <memmove+0x54>  // b.plast
/home/nk/optee/optee_os/lib/libutils/isoc/newlib/memmove.c:96 (discriminator 1)
    9730:	8b020023 	add	x3, x1, x2
    9734:	eb00007f 	cmp	x3, x0
    9738:	54000229 	b.ls	977c <memmove+0x54>  // b.plast
/home/nk/optee/optee_os/lib/libutils/isoc/newlib/memmove.c:99
    973c:	8b020004 	add	x4, x0, x2
/home/nk/optee/optee_os/lib/libutils/isoc/newlib/memmove.c:100
    9740:	aa2203e2 	mvn	x2, x2
    9744:	d2800001 	mov	x1, #0x0                   	// #0
    9748:	d1000421 	sub	x1, x1, #0x1
    974c:	eb01005f 	cmp	x2, x1
    9750:	54000041 	b.ne	9758 <memmove+0x30>  // b.any
/home/nk/optee/optee_os/lib/libutils/isoc/newlib/memmove.c:157
    9754:	d65f03c0 	ret
/home/nk/optee/optee_os/lib/libutils/isoc/newlib/memmove.c:101
    9758:	38616865 	ldrb	w5, [x3, x1]
    975c:	38216885 	strb	w5, [x4, x1]
    9760:	17fffffa 	b	9748 <memmove+0x20>
/home/nk/optee/optee_os/lib/libutils/isoc/newlib/memmove.c:104
    9764:	38636824 	ldrb	w4, [x1, x3]
    9768:	38236804 	strb	w4, [x0, x3]
    976c:	91000463 	add	x3, x3, #0x1
/home/nk/optee/optee_os/lib/libutils/isoc/newlib/memmove.c:103
    9770:	eb03005f 	cmp	x2, x3
    9774:	54ffff81 	b.ne	9764 <memmove+0x3c>  // b.any
    9778:	17fffff7 	b	9754 <memmove+0x2c>
    977c:	d2800003 	mov	x3, #0x0                   	// #0
    9780:	17fffffc 	b	9770 <memmove+0x48>

0000000000009784 <memset>:
memset():
/home/nk/optee/optee_os/lib/libutils/isoc/newlib/memset.c:125
    9784:	d2800003 	mov	x3, #0x0                   	// #0
    9788:	eb03005f 	cmp	x2, x3
    978c:	54000041 	b.ne	9794 <memset+0x10>  // b.any
/home/nk/optee/optee_os/lib/libutils/isoc/newlib/memset.c:129
    9790:	d65f03c0 	ret
/home/nk/optee/optee_os/lib/libutils/isoc/newlib/memset.c:126
    9794:	38236801 	strb	w1, [x0, x3]
    9798:	91000463 	add	x3, x3, #0x1
    979c:	17fffffb 	b	9788 <memset+0x4>

00000000000097a0 <mempool_alloc_pool>:
mempool_alloc_pool():
/home/nk/optee/optee_os/lib/libutils/ext/mempool.c:133
    97a0:	a9be7bfd 	stp	x29, x30, [sp, #-32]!
    97a4:	910003fd 	mov	x29, sp
    97a8:	a90153f3 	stp	x19, x20, [sp, #16]
    97ac:	aa0003f3 	mov	x19, x0
    97b0:	aa0103f4 	mov	x20, x1
/home/nk/optee/optee_os/lib/libutils/ext/mempool.c:134
    97b4:	d2800020 	mov	x0, #0x1                   	// #1
    97b8:	d2800301 	mov	x1, #0x18                  	// #24
    97bc:	97fffead 	bl	9270 <calloc>
/home/nk/optee/optee_os/lib/libutils/ext/mempool.c:137
    97c0:	f2400a7f 	tst	x19, #0x7
    97c4:	54000140 	b.eq	97ec <mempool_alloc_pool+0x4c>  // b.none
/home/nk/optee/optee_os/lib/libutils/ext/mempool.c:137 (discriminator 1)
    97c8:	f0000003 	adrp	x3, c000 <HEXDIGITS+0x62>
    97cc:	f0000001 	adrp	x1, c000 <HEXDIGITS+0x62>
    97d0:	9125bc63 	add	x3, x3, #0x96f
    97d4:	91264021 	add	x1, x1, #0x990
    97d8:	f0000000 	adrp	x0, c000 <HEXDIGITS+0x62>
    97dc:	9126ac00 	add	x0, x0, #0x9ab
    97e0:	52801122 	mov	w2, #0x89                  	// #137
    97e4:	94000075 	bl	99b8 <_assert_log>
    97e8:	94000085 	bl	99fc <_assert_break>
/home/nk/optee/optee_os/lib/libutils/ext/mempool.c:139
    97ec:	b4000080 	cbz	x0, 97fc <mempool_alloc_pool+0x5c>
/home/nk/optee/optee_os/lib/libutils/ext/mempool.c:142
    97f0:	92800001 	mov	x1, #0xffffffffffffffff    	// #-1
    97f4:	a9000414 	stp	x20, x1, [x0]
/home/nk/optee/optee_os/lib/libutils/ext/mempool.c:141
    97f8:	f9000813 	str	x19, [x0, #16]
/home/nk/optee/optee_os/lib/libutils/ext/mempool.c:152
    97fc:	a94153f3 	ldp	x19, x20, [sp, #16]
    9800:	a8c27bfd 	ldp	x29, x30, [sp], #32
    9804:	d65f03c0 	ret

0000000000009808 <mempool_alloc>:
mempool_alloc():
/home/nk/optee/optee_os/lib/libutils/ext/mempool.c:162
    9808:	a9401003 	ldp	x3, x4, [x0]
    980c:	b7f80304 	tbnz	x4, #63, 986c <mempool_alloc+0x64>
/home/nk/optee/optee_os/lib/libutils/ext/mempool.c:165
    9810:	f9400806 	ldr	x6, [x0, #16]
/home/nk/optee/optee_os/lib/libutils/ext/mempool.c:169
    9814:	91001c82 	add	x2, x4, #0x7
/home/nk/optee/optee_os/lib/libutils/ext/mempool.c:165
    9818:	8b060085 	add	x5, x4, x6
/home/nk/optee/optee_os/lib/libutils/ext/mempool.c:169
    981c:	f8666886 	ldr	x6, [x4, x6]
    9820:	8b060042 	add	x2, x2, x6
    9824:	927df042 	and	x2, x2, #0xfffffffffffffff8
/home/nk/optee/optee_os/lib/libutils/ext/mempool.c:170
    9828:	eb02007f 	cmp	x3, x2
    982c:	54000242 	b.cs	9874 <mempool_alloc+0x6c>  // b.hs, b.nlast
/home/nk/optee/optee_os/lib/libutils/ext/mempool.c:155
    9830:	a9bf7bfd 	stp	x29, x30, [sp, #-16]!
/home/nk/optee/optee_os/lib/libutils/ext/mempool.c:197
    9834:	f0000000 	adrp	x0, c000 <HEXDIGITS+0x62>
    9838:	9125bc00 	add	x0, x0, #0x96f
/home/nk/optee/optee_os/lib/libutils/ext/mempool.c:155
    983c:	910003fd 	mov	x29, sp
/home/nk/optee/optee_os/lib/libutils/ext/mempool.c:197
    9840:	aa0103e5 	mov	x5, x1
    9844:	52800023 	mov	w3, #0x1                   	// #1
    9848:	52800022 	mov	w2, #0x1                   	// #1
    984c:	528018a1 	mov	w1, #0xc5                  	// #197
    9850:	91004c00 	add	x0, x0, #0x13
    9854:	f0000004 	adrp	x4, c000 <HEXDIGITS+0x62>
    9858:	91274884 	add	x4, x4, #0x9d2
    985c:	97ffdb8d 	bl	690 <trace_printf>
/home/nk/optee/optee_os/lib/libutils/ext/mempool.c:199
    9860:	d2800000 	mov	x0, #0x0                   	// #0
/home/nk/optee/optee_os/lib/libutils/ext/mempool.c:200
    9864:	a8c17bfd 	ldp	x29, x30, [sp], #16
    9868:	d65f03c0 	ret
/home/nk/optee/optee_os/lib/libutils/ext/mempool.c:158
    986c:	d2800005 	mov	x5, #0x0                   	// #0
/home/nk/optee/optee_os/lib/libutils/ext/mempool.c:163
    9870:	d2800002 	mov	x2, #0x0                   	// #0
/home/nk/optee/optee_os/lib/libutils/ext/mempool.c:175
    9874:	91007c21 	add	x1, x1, #0x1f
    9878:	927df021 	and	x1, x1, #0xfffffffffffffff8
/home/nk/optee/optee_os/lib/libutils/ext/mempool.c:176
    987c:	8b010046 	add	x6, x2, x1
    9880:	eb0300df 	cmp	x6, x3
    9884:	54fffd68 	b.hi	9830 <mempool_alloc+0x28>  // b.pmore
/home/nk/optee/optee_os/lib/libutils/ext/mempool.c:179
    9888:	f9400806 	ldr	x6, [x0, #16]
    988c:	8b060043 	add	x3, x2, x6
/home/nk/optee/optee_os/lib/libutils/ext/mempool.c:180
    9890:	f8266841 	str	x1, [x2, x6]
/home/nk/optee/optee_os/lib/libutils/ext/mempool.c:181
    9894:	f9000464 	str	x4, [x3, #8]
/home/nk/optee/optee_os/lib/libutils/ext/mempool.c:182
    9898:	b4000045 	cbz	x5, 98a0 <mempool_alloc+0x98>
/home/nk/optee/optee_os/lib/libutils/ext/mempool.c:183
    989c:	f90008a2 	str	x2, [x5, #16]
/home/nk/optee/optee_os/lib/libutils/ext/mempool.c:184
    98a0:	92800001 	mov	x1, #0xffffffffffffffff    	// #-1
    98a4:	f9000861 	str	x1, [x3, #16]
/home/nk/optee/optee_os/lib/libutils/ext/mempool.c:185
    98a8:	f9000402 	str	x2, [x0, #8]
/home/nk/optee/optee_os/lib/libutils/ext/mempool.c:194
    98ac:	91006060 	add	x0, x3, #0x18
/home/nk/optee/optee_os/lib/libutils/ext/mempool.c:200
    98b0:	d65f03c0 	ret

00000000000098b4 <mempool_calloc>:
mempool_calloc():
/home/nk/optee/optee_os/lib/libutils/ext/mempool.c:203
    98b4:	a9be7bfd 	stp	x29, x30, [sp, #-32]!
    98b8:	910003fd 	mov	x29, sp
    98bc:	a90153f3 	stp	x19, x20, [sp, #16]
/home/nk/optee/optee_os/lib/libutils/ext/mempool.c:207
    98c0:	9b027c34 	mul	x20, x1, x2
    98c4:	9bc27c21 	umulh	x1, x1, x2
    98c8:	b5000121 	cbnz	x1, 98ec <mempool_calloc+0x38>
/home/nk/optee/optee_os/lib/libutils/ext/mempool.c:210
    98cc:	aa1403e1 	mov	x1, x20
    98d0:	97ffffce 	bl	9808 <mempool_alloc>
    98d4:	aa0003f3 	mov	x19, x0
/home/nk/optee/optee_os/lib/libutils/ext/mempool.c:211
    98d8:	b50000e0 	cbnz	x0, 98f4 <mempool_calloc+0x40>
/home/nk/optee/optee_os/lib/libutils/ext/mempool.c:215
    98dc:	aa1303e0 	mov	x0, x19
    98e0:	a94153f3 	ldp	x19, x20, [sp, #16]
    98e4:	a8c27bfd 	ldp	x29, x30, [sp], #32
    98e8:	d65f03c0 	ret
/home/nk/optee/optee_os/lib/libutils/ext/mempool.c:208
    98ec:	d2800013 	mov	x19, #0x0                   	// #0
    98f0:	17fffffb 	b	98dc <mempool_calloc+0x28>
/home/nk/optee/optee_os/lib/libutils/ext/mempool.c:212
    98f4:	aa1403e2 	mov	x2, x20
    98f8:	52800001 	mov	w1, #0x0                   	// #0
    98fc:	97ffffa2 	bl	9784 <memset>
    9900:	17fffff7 	b	98dc <mempool_calloc+0x28>

0000000000009904 <mempool_free>:
mempool_free():
/home/nk/optee/optee_os/lib/libutils/ext/mempool.c:224
    9904:	b40001c1 	cbz	x1, 993c <mempool_free+0x38>
/home/nk/optee/optee_os/lib/libutils/ext/mempool.c:229
    9908:	f85f0022 	ldur	x2, [x1, #-16]
    990c:	b7f801a2 	tbnz	x2, #63, 9940 <mempool_free+0x3c>
/home/nk/optee/optee_os/lib/libutils/ext/mempool.c:232
    9910:	f9400803 	ldr	x3, [x0, #16]
    9914:	f85f8024 	ldur	x4, [x1, #-8]
    9918:	8b020063 	add	x3, x3, x2
    991c:	f9000864 	str	x4, [x3, #16]
    9920:	aa0203e3 	mov	x3, x2
/home/nk/optee/optee_os/lib/libutils/ext/mempool.c:236
    9924:	f85f8024 	ldur	x4, [x1, #-8]
    9928:	b7f80084 	tbnz	x4, #63, 9938 <mempool_free+0x34>
/home/nk/optee/optee_os/lib/libutils/ext/mempool.c:239
    992c:	a9408403 	ldp	x3, x1, [x0, #8]
    9930:	8b040021 	add	x1, x1, x4
    9934:	f9000422 	str	x2, [x1, #8]
/home/nk/optee/optee_os/lib/libutils/ext/mempool.c:243
    9938:	f9000403 	str	x3, [x0, #8]
/home/nk/optee/optee_os/lib/libutils/ext/mempool.c:245
    993c:	d65f03c0 	ret
/home/nk/optee/optee_os/lib/libutils/ext/mempool.c:222
    9940:	92800003 	mov	x3, #0xffffffffffffffff    	// #-1
    9944:	17fffff8 	b	9924 <mempool_free+0x20>

0000000000009948 <consttime_memcmp>:
consttime_memcmp():
/home/nk/optee/optee_os/lib/libutils/ext/consttime_memcmp.c:36
    9948:	d10043ff 	sub	sp, sp, #0x10
/home/nk/optee/optee_os/lib/libutils/ext/consttime_memcmp.c:41
    994c:	52802003 	mov	w3, #0x100                 	// #256
/home/nk/optee/optee_os/lib/libutils/ext/consttime_memcmp.c:43
    9950:	d2800005 	mov	x5, #0x0                   	// #0
/home/nk/optee/optee_os/lib/libutils/ext/consttime_memcmp.c:39
    9954:	52800006 	mov	w6, #0x0                   	// #0
/home/nk/optee/optee_os/lib/libutils/ext/consttime_memcmp.c:41
    9958:	b9000fe3 	str	w3, [sp, #12]
/home/nk/optee/optee_os/lib/libutils/ext/consttime_memcmp.c:40
    995c:	52800003 	mov	w3, #0x0                   	// #0
/home/nk/optee/optee_os/lib/libutils/ext/consttime_memcmp.c:43 (discriminator 1)
    9960:	eb0200bf 	cmp	x5, x2
    9964:	540000a1 	b.ne	9978 <consttime_memcmp+0x30>  // b.any
/home/nk/optee/optee_os/lib/libutils/ext/consttime_memcmp.c:50
    9968:	53087c63 	lsr	w3, w3, #8
/home/nk/optee/optee_os/lib/libutils/ext/consttime_memcmp.c:51
    996c:	4b462060 	sub	w0, w3, w6, lsr #8
    9970:	910043ff 	add	sp, sp, #0x10
    9974:	d65f03c0 	ret
/home/nk/optee/optee_os/lib/libutils/ext/consttime_memcmp.c:45 (discriminator 2)
    9978:	38656808 	ldrb	w8, [x0, x5]
    997c:	38656824 	ldrb	w4, [x1, x5]
    9980:	910004a5 	add	x5, x5, #0x1
/home/nk/optee/optee_os/lib/libutils/ext/consttime_memcmp.c:44 (discriminator 2)
    9984:	b9400fe9 	ldr	w9, [sp, #12]
/home/nk/optee/optee_os/lib/libutils/ext/consttime_memcmp.c:45 (discriminator 2)
    9988:	4b040107 	sub	w7, w8, w4
/home/nk/optee/optee_os/lib/libutils/ext/consttime_memcmp.c:47 (discriminator 2)
    998c:	4b080084 	sub	w4, w4, w8
/home/nk/optee/optee_os/lib/libutils/ext/consttime_memcmp.c:44 (discriminator 2)
    9990:	0a0900e7 	and	w7, w7, w9
    9994:	2a0700c6 	orr	w6, w6, w7
/home/nk/optee/optee_os/lib/libutils/ext/consttime_memcmp.c:46 (discriminator 2)
    9998:	b9400fe7 	ldr	w7, [sp, #12]
    999c:	0a070084 	and	w4, w4, w7
/home/nk/optee/optee_os/lib/libutils/ext/consttime_memcmp.c:48 (discriminator 2)
    99a0:	b9400fe7 	ldr	w7, [sp, #12]
/home/nk/optee/optee_os/lib/libutils/ext/consttime_memcmp.c:46 (discriminator 2)
    99a4:	2a040063 	orr	w3, w3, w4
/home/nk/optee/optee_os/lib/libutils/ext/consttime_memcmp.c:48 (discriminator 2)
    99a8:	2a0300c4 	orr	w4, w6, w3
    99ac:	0a2400e4 	bic	w4, w7, w4
    99b0:	b9000fe4 	str	w4, [sp, #12]
    99b4:	17ffffeb 	b	9960 <consttime_memcmp+0x18>

00000000000099b8 <_assert_log>:
_assert_log():
/home/nk/optee/optee_os/lib/libutee/assert.c:17
    99b8:	d10083ff 	sub	sp, sp, #0x20
/home/nk/optee/optee_os/lib/libutee/assert.c:18
    99bc:	2a0203e7 	mov	w7, w2
    99c0:	aa0103e6 	mov	x6, x1
    99c4:	aa0003e5 	mov	x5, x0
    99c8:	52800022 	mov	w2, #0x1                   	// #1
    99cc:	52800001 	mov	w1, #0x0                   	// #0
/home/nk/optee/optee_os/lib/libutee/assert.c:17
    99d0:	a9017bfd 	stp	x29, x30, [sp, #16]
    99d4:	910043fd 	add	x29, sp, #0x10
/home/nk/optee/optee_os/lib/libutee/assert.c:18
    99d8:	d2800000 	mov	x0, #0x0                   	// #0
    99dc:	f0000004 	adrp	x4, c000 <HEXDIGITS+0x62>
    99e0:	f90003e3 	str	x3, [sp]
    99e4:	91282884 	add	x4, x4, #0xa0a
    99e8:	52800023 	mov	w3, #0x1                   	// #1
    99ec:	97ffdb29 	bl	690 <trace_printf>
/home/nk/optee/optee_os/lib/libutee/assert.c:20
    99f0:	a9417bfd 	ldp	x29, x30, [sp, #16]
    99f4:	910083ff 	add	sp, sp, #0x20
    99f8:	d65f03c0 	ret

00000000000099fc <_assert_break>:
_assert_break():
/home/nk/optee/optee_os/lib/libutee/assert.c:23
    99fc:	a9bf7bfd 	stp	x29, x30, [sp, #-16]!
/home/nk/optee/optee_os/lib/libutee/assert.c:24
    9a00:	d2bfffe0 	mov	x0, #0xffff0000            	// #4294901760
/home/nk/optee/optee_os/lib/libutee/assert.c:23
    9a04:	910003fd 	mov	x29, sp
/home/nk/optee/optee_os/lib/libutee/assert.c:24
    9a08:	97ffe451 	bl	2b4c <_utee_panic>
/home/nk/optee/optee_os/lib/libutee/assert.c:27 (discriminator 1)
    9a0c:	14000000 	b	9a0c <_assert_break+0x10>
